---
triple:          'arm64-apple-darwin'
binary-path:     Problem 2. Telephone
relocations:
  - { offsetInCU: 0x3B, offset: 0x3B, size: 0x8, addend: 0x0, symName: _.str, symObjAddr: 0x22CA0, symBinAddr: 0x100023CC0, symSize: 0x0 }
  - { offsetInCU: 0x6B, offset: 0x6B, size: 0x8, addend: 0x0, symName: _.str.1, symObjAddr: 0x22CC0, symBinAddr: 0x100023CE0, symSize: 0x0 }
  - { offsetInCU: 0x7C, offset: 0x7C, size: 0x8, addend: 0x0, symName: _.str.2, symObjAddr: 0x22CE0, symBinAddr: 0x100023D00, symSize: 0x0 }
  - { offsetInCU: 0x8D, offset: 0x8D, size: 0x8, addend: 0x0, symName: _.str.3, symObjAddr: 0x22F60, symBinAddr: 0x100023F80, symSize: 0x0 }
  - { offsetInCU: 0xAA, offset: 0xAA, size: 0x8, addend: 0x0, symName: _.str.4, symObjAddr: 0x22D00, symBinAddr: 0x100023D20, symSize: 0x0 }
  - { offsetInCU: 0xBB, offset: 0xBB, size: 0x8, addend: 0x0, symName: _.str.6, symObjAddr: 0x22D20, symBinAddr: 0x100023D40, symSize: 0x0 }
  - { offsetInCU: 0xD8, offset: 0xD8, size: 0x8, addend: 0x0, symName: _.str.7, symObjAddr: 0x22D40, symBinAddr: 0x100023D60, symSize: 0x0 }
  - { offsetInCU: 0xE9, offset: 0xE9, size: 0x8, addend: 0x0, symName: _.str.8, symObjAddr: 0x22D60, symBinAddr: 0x100023D80, symSize: 0x0 }
  - { offsetInCU: 0x106, offset: 0x106, size: 0x8, addend: 0x0, symName: _.str.9, symObjAddr: 0x22DA0, symBinAddr: 0x100023DC0, symSize: 0x0 }
  - { offsetInCU: 0x118, offset: 0x118, size: 0x8, addend: 0x0, symName: _.str.20, symObjAddr: 0x22DC0, symBinAddr: 0x100023DE0, symSize: 0x0 }
  - { offsetInCU: 0x136, offset: 0x136, size: 0x8, addend: 0x0, symName: _.str.33, symObjAddr: 0x22DE0, symBinAddr: 0x100023E00, symSize: 0x0 }
  - { offsetInCU: 0x153, offset: 0x153, size: 0x8, addend: 0x0, symName: _.str.34, symObjAddr: 0x22E00, symBinAddr: 0x100023E20, symSize: 0x0 }
  - { offsetInCU: 0x164, offset: 0x164, size: 0x8, addend: 0x0, symName: _.str.35, symObjAddr: 0x22E20, symBinAddr: 0x100023E40, symSize: 0x0 }
  - { offsetInCU: 0x181, offset: 0x181, size: 0x8, addend: 0x0, symName: _.str.53, symObjAddr: 0x22E40, symBinAddr: 0x100023E60, symSize: 0x0 }
  - { offsetInCU: 0x640E, offset: 0x640E, size: 0x8, addend: 0x0, symName: __ZNSt3__124__put_character_sequenceB8ue170006IcNS_11char_traitsIcEEEERNS_13basic_ostreamIT_T0_EES7_PKS4_m, symObjAddr: 0x7108, symBinAddr: 0x100007DC4, symSize: 0x910 }
  - { offsetInCU: 0xCDB0, offset: 0xCDB0, size: 0x8, addend: 0x0, symName: __ZNSt3__1lsB8ue170006IcNS_11char_traitsIcEENS_9allocatorIcEEEERNS_13basic_ostreamIT_T0_EES9_RKNS_12basic_stringIS6_S7_T1_EE, symObjAddr: 0xB8C, symBinAddr: 0x100001848, symSize: 0x48 }
  - { offsetInCU: 0xCE6A, offset: 0xCE6A, size: 0x8, addend: 0x0, symName: __ZNSt3__1neB8ue170006ERKNS_14__bit_iteratorINS_6vectorIbNS_9allocatorIbEEEELb0ELm0EEES7_, symObjAddr: 0x1104, symBinAddr: 0x100001DC0, symSize: 0xC4 }
  - { offsetInCU: 0xD0F5, offset: 0xD0F5, size: 0x8, addend: 0x0, symName: __ZNSt3__1rsB8ue170006IcNS_11char_traitsIcEENS_9allocatorIcEEEERNS_13basic_istreamIT_T0_EES9_RNS_12basic_stringIS6_S7_T1_EE, symObjAddr: 0x533C, symBinAddr: 0x100005FF8, symSize: 0xE9C }
  - { offsetInCU: 0xD8C2, offset: 0xD8C2, size: 0x8, addend: 0x0, symName: __ZNSt3__19use_facetB8ue170006INS_5ctypeIcEEEERKT_RKNS_6localeE, symObjAddr: 0x96B8, symBinAddr: 0x10000A374, symSize: 0x100 }
  - { offsetInCU: 0xDCA1, offset: 0xDCA1, size: 0x8, addend: 0x0, symName: __ZNSt3__116__pad_and_outputB8ue170006IcNS_11char_traitsIcEEEENS_19ostreambuf_iteratorIT_T0_EES6_PKS4_S8_S8_RNS_8ios_baseES4_, symObjAddr: 0x7A18, symBinAddr: 0x1000086D4, symSize: 0x800 }
  - { offsetInCU: 0xDF00, offset: 0xDF00, size: 0x8, addend: 0x0, symName: __ZNSt3__120__throw_length_errorB8ue170006EPKc, symObjAddr: 0x8B68, symBinAddr: 0x100009824, symSize: 0x78 }
  - { offsetInCU: 0xDF6A, offset: 0xDF6A, size: 0x8, addend: 0x0, symName: __ZNSt3__119__allocate_at_leastB8ue170006INS_9allocatorIiEEEENS_19__allocation_resultINS_16allocator_traitsIT_E7pointerEEERS5_m, symObjAddr: 0xA70C, symBinAddr: 0x10000B3C8, symSize: 0x44 }
  - { offsetInCU: 0xE129, offset: 0xE129, size: 0x8, addend: 0x0, symName: __ZNSt3__1eqB8ue170006IPiEEbRKNS_11__wrap_iterIT_EES6_, symObjAddr: 0xC2D8, symBinAddr: 0x10000CF94, symSize: 0x58 }
  - { offsetInCU: 0xE1AB, offset: 0xE1AB, size: 0x8, addend: 0x0, symName: __ZNSt3__119__allocate_at_leastB8ue170006INS_9allocatorINS_12basic_stringIcNS_11char_traitsIcEENS1_IcEEEEEEEENS_19__allocation_resultINS_16allocator_traitsIT_E7pointerEEERSA_m, symObjAddr: 0xCCE0, symBinAddr: 0x10000D99C, symSize: 0x54 }
  - { offsetInCU: 0xE328, offset: 0xE328, size: 0x8, addend: 0x0, symName: __ZNSt3__1neB8ue170006ERKNS_5dequeI4vertNS_9allocatorIS1_EEE13__deque_rangeES7_, symObjAddr: 0x12300, symBinAddr: 0x100012FBC, symSize: 0x60 }
  - { offsetInCU: 0xEB71, offset: 0xEB71, size: 0x8, addend: 0x0, symName: __ZNSt3__119__allocate_at_leastB8ue170006INS_9allocatorIP4vertEEEENS_19__allocation_resultINS_16allocator_traitsIT_E7pointerEEERS7_m, symObjAddr: 0x179CC, symBinAddr: 0x100018688, symSize: 0x44 }
  - { offsetInCU: 0xEC5E, offset: 0xEC5E, size: 0x8, addend: 0x0, symName: __ZNSt3__119__allocate_at_leastB8ue170006INS_9allocatorINS_5arrayIbLm2EEEEEEENS_19__allocation_resultINS_16allocator_traitsIT_E7pointerEEERS7_m, symObjAddr: 0x1A160, symBinAddr: 0x10001AE1C, symSize: 0x40 }
  - { offsetInCU: 0xED21, offset: 0xED21, size: 0x8, addend: 0x0, symName: __ZNSt3__119__allocate_at_leastB8ue170006INS_9allocatorINS_6vectorINS_5arrayIbLm2EEENS1_IS4_EEEEEEEENS_19__allocation_resultINS_16allocator_traitsIT_E7pointerEEERSA_m, symObjAddr: 0x1C2F4, symBinAddr: 0x10001CFB0, symSize: 0x54 }
  - { offsetInCU: 0xFD72, offset: 0xFD72, size: 0x8, addend: 0x0, symName: __ZSt28__throw_bad_array_new_lengthB8ue170006v, symObjAddr: 0x8D58, symBinAddr: 0x100009A14, symSize: 0x5C }
  - { offsetInCU: 0x13261, offset: 0x13261, size: 0x8, addend: 0x0, symName: __ZN14__DEBUG_UTIL__5printEPKc, symObjAddr: 0x0, symBinAddr: 0x100000CBC, symSize: 0x30 }
  - { offsetInCU: 0x132ED, offset: 0x132ED, size: 0x8, addend: 0x0, symName: __ZN14__DEBUG_UTIL__5printEb, symObjAddr: 0x30, symBinAddr: 0x100000CEC, symSize: 0x28 }
  - { offsetInCU: 0x1333C, offset: 0x1333C, size: 0x8, addend: 0x0, symName: __ZN14__DEBUG_UTIL__5printEc, symObjAddr: 0x58, symBinAddr: 0x100000D14, symSize: 0x21C }
  - { offsetInCU: 0x13413, offset: 0x13413, size: 0x8, addend: 0x0, symName: __ZN14__DEBUG_UTIL__5printEs, symObjAddr: 0x274, symBinAddr: 0x100000F30, symSize: 0xA8 }
  - { offsetInCU: 0x1343D, offset: 0x1343D, size: 0x8, addend: 0x0, symName: __ZN14__DEBUG_UTIL__5printEt, symObjAddr: 0x31C, symBinAddr: 0x100000FD8, symSize: 0xA8 }
  - { offsetInCU: 0x13467, offset: 0x13467, size: 0x8, addend: 0x0, symName: __ZN14__DEBUG_UTIL__5printEi, symObjAddr: 0x3C4, symBinAddr: 0x100001080, symSize: 0xA8 }
  - { offsetInCU: 0x13485, offset: 0x13485, size: 0x8, addend: 0x0, symName: __ZN14__DEBUG_UTIL__5printEj, symObjAddr: 0x46C, symBinAddr: 0x100001128, symSize: 0xA8 }
  - { offsetInCU: 0x134AF, offset: 0x134AF, size: 0x8, addend: 0x0, symName: __ZN14__DEBUG_UTIL__5printEl, symObjAddr: 0x514, symBinAddr: 0x1000011D0, symSize: 0xA8 }
  - { offsetInCU: 0x134D9, offset: 0x134D9, size: 0x8, addend: 0x0, symName: __ZN14__DEBUG_UTIL__5printEm, symObjAddr: 0x5BC, symBinAddr: 0x100001278, symSize: 0xA8 }
  - { offsetInCU: 0x13503, offset: 0x13503, size: 0x8, addend: 0x0, symName: __ZN14__DEBUG_UTIL__5printEx, symObjAddr: 0x664, symBinAddr: 0x100001320, symSize: 0xA8 }
  - { offsetInCU: 0x1352D, offset: 0x1352D, size: 0x8, addend: 0x0, symName: __ZN14__DEBUG_UTIL__5printEy, symObjAddr: 0x70C, symBinAddr: 0x1000013C8, symSize: 0xA8 }
  - { offsetInCU: 0x13557, offset: 0x13557, size: 0x8, addend: 0x0, symName: __ZN14__DEBUG_UTIL__5printEf, symObjAddr: 0x7B4, symBinAddr: 0x100001470, symSize: 0xA0 }
  - { offsetInCU: 0x13581, offset: 0x13581, size: 0x8, addend: 0x0, symName: __ZN14__DEBUG_UTIL__5printEd, symObjAddr: 0x854, symBinAddr: 0x100001510, symSize: 0xA0 }
  - { offsetInCU: 0x135AB, offset: 0x135AB, size: 0x8, addend: 0x0, symName: __ZN14__DEBUG_UTIL__5printEe, symObjAddr: 0x8F4, symBinAddr: 0x1000015B0, symSize: 0xA0 }
  - { offsetInCU: 0x135D5, offset: 0x135D5, size: 0x8, addend: 0x0, symName: __ZN14__DEBUG_UTIL__5printENSt3__112basic_stringIcNS0_11char_traitsIcEENS0_9allocatorIcEEEE, symObjAddr: 0x994, symBinAddr: 0x100001650, symSize: 0x1F8 }
  - { offsetInCU: 0x13680, offset: 0x13680, size: 0x8, addend: 0x0, symName: __ZN14__DEBUG_UTIL__5printENSt3__16vectorIbNS0_9allocatorIbEEEE, symObjAddr: 0xBD4, symBinAddr: 0x100001890, symSize: 0x4E4 }
  - { offsetInCU: 0x138F2, offset: 0x138F2, size: 0x8, addend: 0x0, symName: __ZN14__DEBUG_UTIL__7printerEPKc, symObjAddr: 0x1518, symBinAddr: 0x1000021D4, symSize: 0x4 }
  - { offsetInCU: 0x13917, offset: 0x13917, size: 0x8, addend: 0x0, symName: __ZN14__DEBUG_UTIL__10printerArrEPKc, symObjAddr: 0x151C, symBinAddr: 0x1000021D8, symSize: 0x4 }
  - { offsetInCU: 0x1393C, offset: 0x1393C, size: 0x8, addend: 0x0, symName: __ZN14__DEBUG_UTIL__7printerIRNSt3__16vectorIiNS1_9allocatorIiEEEEJEEEvPKcOT_DpOT0_, symObjAddr: 0x4DC4, symBinAddr: 0x100005A80, symSize: 0x578 }
  - { offsetInCU: 0x13A13, offset: 0x13A13, size: 0x8, addend: 0x0, symName: __ZN14__DEBUG_UTIL__7printerIRiJS1_RbS1_EEEvPKcOT_DpOT0_, symObjAddr: 0x6378, symBinAddr: 0x100007034, symSize: 0x78C }
  - { offsetInCU: 0x13B45, offset: 0x13B45, size: 0x8, addend: 0x0, symName: __ZN14__DEBUG_UTIL__5printIRNSt3__16vectorIiNS1_9allocatorIiEEEEEEvOT_, symObjAddr: 0xBED0, symBinAddr: 0x10000CB8C, symSize: 0x408 }
  - { offsetInCU: 0x13D34, offset: 0x13D34, size: 0x8, addend: 0x0, symName: __ZN14__DEBUG_UTIL__7printerIRiJRbS1_EEEvPKcOT_DpOT0_, symObjAddr: 0x1ED98, symBinAddr: 0x10001FA54, symSize: 0x898 }
  - { offsetInCU: 0x13E4A, offset: 0x13E4A, size: 0x8, addend: 0x0, symName: __ZN14__DEBUG_UTIL__7printerIRbJRiEEEvPKcOT_DpOT0_, symObjAddr: 0x1F630, symBinAddr: 0x1000202EC, symSize: 0x604 }
  - { offsetInCU: 0x13FA1, offset: 0x13FA1, size: 0x8, addend: 0x0, symName: __ZN14__DEBUG_UTIL__7printerIRiJEEEvPKcOT_DpOT0_, symObjAddr: 0x1FC34, symBinAddr: 0x1000208F0, symSize: 0x6AC }
  - { offsetInCU: 0x140AA, offset: 0x140AA, size: 0x8, addend: 0x0, symName: __ZNKSt3__112basic_stringIcNS_11char_traitsIcEENS_9allocatorIcEEE13__get_pointerB8ue170006Ev, symObjAddr: 0x99B0, symBinAddr: 0x10000A66C, symSize: 0x5C }
  - { offsetInCU: 0x1410D, offset: 0x1410D, size: 0x8, addend: 0x0, symName: __ZNKSt3__112basic_stringIcNS_11char_traitsIcEENS_9allocatorIcEEE4sizeB8ue170006Ev, symObjAddr: 0x9954, symBinAddr: 0x10000A610, symSize: 0x5C }
  - { offsetInCU: 0x1422E, offset: 0x1422E, size: 0x8, addend: 0x0, symName: __ZNKSt3__114__bit_iteratorINS_6vectorIbNS_9allocatorIbEEEELb0ELm0EEdeB8ue170006Ev, symObjAddr: 0x11C8, symBinAddr: 0x100001E84, symSize: 0xCC }
  - { offsetInCU: 0x14255, offset: 0x14255, size: 0x8, addend: 0x0, symName: __ZNKSt3__115__bit_referenceINS_6vectorIbNS_9allocatorIbEEEELb1EEcvbB8ue170006Ev, symObjAddr: 0x1294, symBinAddr: 0x100001F50, symSize: 0xE4 }
  - { offsetInCU: 0x1427C, offset: 0x1427C, size: 0x8, addend: 0x0, symName: __ZNSt3__114__bit_iteratorINS_6vectorIbNS_9allocatorIbEEEELb0ELm0EEppB8ue170006Ev, symObjAddr: 0x1378, symBinAddr: 0x100002034, symSize: 0x1A0 }
  - { offsetInCU: 0x142A3, offset: 0x142A3, size: 0x8, addend: 0x0, symName: __ZNSt3__16vectorIbNS_9allocatorIbEEE5beginB8ue170006Ev, symObjAddr: 0x10B8, symBinAddr: 0x100001D74, symSize: 0x4C }
  - { offsetInCU: 0x142D8, offset: 0x142D8, size: 0x8, addend: 0x0, symName: __ZNSt3__16vectorIbNS_9allocatorIbEEE11__make_iterB8ue170006Em, symObjAddr: 0x9C14, symBinAddr: 0x10000A8D0, symSize: 0x168 }
  - { offsetInCU: 0x14887, offset: 0x14887, size: 0x8, addend: 0x0, symName: _main, symObjAddr: 0x1520, symBinAddr: 0x1000021DC, symSize: 0x3704 }
  - { offsetInCU: 0x15581, offset: 0x15581, size: 0x8, addend: 0x0, symName: __ZNSt3__19basic_iosIcNS_11char_traitsIcEEE3tieB8ue170006EPNS_13basic_ostreamIcS2_EE, symObjAddr: 0x4C24, symBinAddr: 0x1000058E0, symSize: 0x1A0 }
  - { offsetInCU: 0x155CA, offset: 0x155CA, size: 0x8, addend: 0x0, symName: __ZNSt3__16vectorIiNS_9allocatorIiEEEC2Em, symObjAddr: 0x9D7C, symBinAddr: 0x10000AA38, symSize: 0x338 }
  - { offsetInCU: 0x15722, offset: 0x15722, size: 0x8, addend: 0x0, symName: __ZNSt3__16vectorINS_12basic_stringIcNS_11char_traitsIcEENS_9allocatorIcEEEENS4_IS6_EEEC2Em, symObjAddr: 0xC330, symBinAddr: 0x10000CFEC, symSize: 0x338 }
  - { offsetInCU: 0x1587A, offset: 0x1587A, size: 0x8, addend: 0x0, symName: __ZNSt3__15dequeI4vertNS_9allocatorIS1_EEEC2ESt16initializer_listIS1_E, symObjAddr: 0xF58C, symBinAddr: 0x100010248, symSize: 0x320 }
  - { offsetInCU: 0x159FC, offset: 0x159FC, size: 0x8, addend: 0x0, symName: __ZNSt3__15dequeI4vertNS_9allocatorIS1_EEEC2EOS4_, symObjAddr: 0x1951C, symBinAddr: 0x10001A1D8, symSize: 0x114 }
  - { offsetInCU: 0x15A95, offset: 0x15A95, size: 0x8, addend: 0x0, symName: __ZNSt3__15dequeI4vertNS_9allocatorIS1_EEED2B8ue170006Ev, symObjAddr: 0x18AF4, symBinAddr: 0x1000197B0, symSize: 0x1C8 }
  - { offsetInCU: 0x15C42, offset: 0x15C42, size: 0x8, addend: 0x0, symName: __ZNSt3__16vectorINS_5arrayIbLm2EEENS_9allocatorIS2_EEEC2Em, symObjAddr: 0x1979C, symBinAddr: 0x10001A458, symSize: 0x338 }
  - { offsetInCU: 0x15D9A, offset: 0x15D9A, size: 0x8, addend: 0x0, symName: __ZNSt3__16vectorINS0_INS_5arrayIbLm2EEENS_9allocatorIS2_EEEENS3_IS5_EEEC2EmRKS5_, symObjAddr: 0x1B8FC, symBinAddr: 0x10001C5B8, symSize: 0x340 }
  - { offsetInCU: 0x15F06, offset: 0x15F06, size: 0x8, addend: 0x0, symName: __ZNSt3__16vectorINS_5arrayIbLm2EEENS_9allocatorIS2_EEE16__destroy_vectorclB8ue170006Ev, symObjAddr: 0x1B36C, symBinAddr: 0x10001C028, symSize: 0x240 }
  - { offsetInCU: 0x16034, offset: 0x16034, size: 0x8, addend: 0x0, symName: __ZNKSt3__15dequeI4vertNS_9allocatorIS1_EEE5emptyB8ue170006Ev, symObjAddr: 0x108FC, symBinAddr: 0x1000115B8, symSize: 0x90 }
  - { offsetInCU: 0x1607F, offset: 0x1607F, size: 0x8, addend: 0x0, symName: __ZNSt3__16vectorINS0_INS_5arrayIbLm2EEENS_9allocatorIS2_EEEENS3_IS5_EEE16__destroy_vectorclB8ue170006Ev, symObjAddr: 0x1DF18, symBinAddr: 0x10001EBD4, symSize: 0x240 }
  - { offsetInCU: 0x161AD, offset: 0x161AD, size: 0x8, addend: 0x0, symName: __ZNSt3__16vectorINS_12basic_stringIcNS_11char_traitsIcEENS_9allocatorIcEEEENS4_IS6_EEE16__destroy_vectorclB8ue170006Ev, symObjAddr: 0xE1F8, symBinAddr: 0x10000EEB4, symSize: 0x240 }
  - { offsetInCU: 0x162DB, offset: 0x162DB, size: 0x8, addend: 0x0, symName: __ZNSt3__16vectorIiNS_9allocatorIiEEE16__destroy_vectorclB8ue170006Ev, symObjAddr: 0xB938, symBinAddr: 0x10000C5F4, symSize: 0x240 }
  - { offsetInCU: 0x16409, offset: 0x16409, size: 0x8, addend: 0x0, symName: __ZNSt3__15dequeI4vertNS_9allocatorIS1_EEE9push_backERKS1_, symObjAddr: 0x202E0, symBinAddr: 0x100020F9C, symSize: 0xF8 }
  - { offsetInCU: 0x16519, offset: 0x16519, size: 0x8, addend: 0x0, symName: __ZNSt3__15dequeI4vertNS_9allocatorIS1_EEE5frontEv, symObjAddr: 0x1E6C4, symBinAddr: 0x10001F380, symSize: 0x1EC }
  - { offsetInCU: 0x16559, offset: 0x16559, size: 0x8, addend: 0x0, symName: __ZNSt3__15dequeI4vertNS_9allocatorIS1_EEE9pop_frontEv, symObjAddr: 0x1E8B0, symBinAddr: 0x10001F56C, symSize: 0x264 }
  - { offsetInCU: 0x16651, offset: 0x16651, size: 0x8, addend: 0x0, symName: __ZNSt3__112basic_stringIcNS_11char_traitsIcEENS_9allocatorIcEEEixB8ue170006Em, symObjAddr: 0x6B04, symBinAddr: 0x1000077C0, symSize: 0xBC }
  - { offsetInCU: 0x16695, offset: 0x16695, size: 0x8, addend: 0x0, symName: __ZNSt3__16vectorINS_5arrayIbLm2EEENS_9allocatorIS2_EEED1B8ue170006Ev, symObjAddr: 0x61D8, symBinAddr: 0x100006E94, symSize: 0x1A0 }
  - { offsetInCU: 0x166F7, offset: 0x166F7, size: 0x8, addend: 0x0, symName: __ZNSt3__16vectorINS0_INS_5arrayIbLm2EEENS_9allocatorIS2_EEEENS3_IS5_EEED1B8ue170006Ev, symObjAddr: 0x6BC0, symBinAddr: 0x10000787C, symSize: 0x1A0 }
  - { offsetInCU: 0x16759, offset: 0x16759, size: 0x8, addend: 0x0, symName: __ZNSt3__15queueI4vertNS_5dequeIS1_NS_9allocatorIS1_EEEEED1Ev, symObjAddr: 0x6D60, symBinAddr: 0x100007A1C, symSize: 0x68 }
  - { offsetInCU: 0x167B7, offset: 0x167B7, size: 0x8, addend: 0x0, symName: __ZNSt3__16vectorINS_12basic_stringIcNS_11char_traitsIcEENS_9allocatorIcEEEENS4_IS6_EEED1B8ue170006Ev, symObjAddr: 0x6DC8, symBinAddr: 0x100007A84, symSize: 0x1A0 }
  - { offsetInCU: 0x16819, offset: 0x16819, size: 0x8, addend: 0x0, symName: __ZNSt3__16vectorIiNS_9allocatorIiEEED1B8ue170006Ev, symObjAddr: 0x6F68, symBinAddr: 0x100007C24, symSize: 0x1A0 }
  - { offsetInCU: 0x1696D, offset: 0x1696D, size: 0x8, addend: 0x0, symName: __ZNSt3__112basic_stringIcNS_11char_traitsIcEENS_9allocatorIcEEE5clearB8ue170006Ev, symObjAddr: 0xE800, symBinAddr: 0x10000F4BC, symSize: 0x124 }
  - { offsetInCU: 0x16A32, offset: 0x16A32, size: 0x8, addend: 0x0, symName: __ZNKSt3__112basic_stringIcNS_11char_traitsIcEENS_9allocatorIcEEE8max_sizeB8ue170006Ev, symObjAddr: 0x881C, symBinAddr: 0x1000094D8, symSize: 0x74 }
  - { offsetInCU: 0x16A84, offset: 0x16A84, size: 0x8, addend: 0x0, symName: __ZNKSt3__18ios_base5rdbufB8ue170006Ev, symObjAddr: 0x9298, symBinAddr: 0x100009F54, symSize: 0xE0 }
  - { offsetInCU: 0x16AAB, offset: 0x16AAB, size: 0x8, addend: 0x0, symName: __ZNSt3__115basic_streambufIcNS_11char_traitsIcEEE5sgetcB8ue170006Ev, symObjAddr: 0xE924, symBinAddr: 0x10000F5E0, symSize: 0x308 }
  - { offsetInCU: 0x16B0C, offset: 0x16B0C, size: 0x8, addend: 0x0, symName: __ZNKSt3__15ctypeIcE2isB8ue170006Ejc, symObjAddr: 0xEC2C, symBinAddr: 0x10000F8E8, symSize: 0x1C8 }
  - { offsetInCU: 0x16B53, offset: 0x16B53, size: 0x8, addend: 0x0, symName: __ZNSt3__115basic_streambufIcNS_11char_traitsIcEEE6sbumpcB8ue170006Ev, symObjAddr: 0xEDF4, symBinAddr: 0x10000FAB0, symSize: 0x370 }
  - { offsetInCU: 0x16B86, offset: 0x16B86, size: 0x8, addend: 0x0, symName: __ZNSt3__18ios_base5widthB8ue170006El, symObjAddr: 0x8568, symBinAddr: 0x100009224, symSize: 0x1A0 }
  - { offsetInCU: 0x16BCF, offset: 0x16BCF, size: 0x8, addend: 0x0, symName: __ZNSt3__19basic_iosIcNS_11char_traitsIcEEE8setstateB8ue170006Ej, symObjAddr: 0x8460, symBinAddr: 0x10000911C, symSize: 0xFC }
  - { offsetInCU: 0x16C14, offset: 0x16C14, size: 0x8, addend: 0x0, symName: __ZNSt3__18ios_base18__setstate_nothrowB8ue170006Ej, symObjAddr: 0xF164, symBinAddr: 0x10000FE20, symSize: 0x234 }
  - { offsetInCU: 0x16C4B, offset: 0x16C4B, size: 0x8, addend: 0x0, symName: __ZNKSt3__19basic_iosIcNS_11char_traitsIcEEE10exceptionsB8ue170006Ev, symObjAddr: 0xF398, symBinAddr: 0x100010054, symSize: 0x1F4 }
  - { offsetInCU: 0x16C89, offset: 0x16C89, size: 0x8, addend: 0x0, symName: __ZNSt3__112basic_stringIcNS_11char_traitsIcEENS_9allocatorIcEEE13__get_pointerB8ue170006Ev, symObjAddr: 0x8DB4, symBinAddr: 0x100009A70, symSize: 0x5C }
  - { offsetInCU: 0x16D68, offset: 0x16D68, size: 0x8, addend: 0x0, symName: __ZNSt3__119ostreambuf_iteratorIcNS_11char_traitsIcEEEC2B8ue170006ERNS_13basic_ostreamIcS2_EE, symObjAddr: 0x9000, symBinAddr: 0x100009CBC, symSize: 0x298 }
  - { offsetInCU: 0x16DC5, offset: 0x16DC5, size: 0x8, addend: 0x0, symName: __ZNKSt3__19basic_iosIcNS_11char_traitsIcEEE4fillB8ue170006Ev, symObjAddr: 0x8218, symBinAddr: 0x100008ED4, symSize: 0x248 }
  - { offsetInCU: 0x16EB4, offset: 0x16EB4, size: 0x8, addend: 0x0, symName: __ZNSt3__117__compressed_pairINS_12basic_stringIcNS_11char_traitsIcEENS_9allocatorIcEEE5__repES5_EC1B8ue170006INS_18__default_init_tagESA_EEOT_OT0_, symObjAddr: 0x8708, symBinAddr: 0x1000093C4, symSize: 0x98 }
  - { offsetInCU: 0x16F51, offset: 0x16F51, size: 0x8, addend: 0x0, symName: __ZNKSt3__19basic_iosIcNS_11char_traitsIcEEE5widenB8ue170006Ec, symObjAddr: 0x9378, symBinAddr: 0x10000A034, symSize: 0x340 }
  - { offsetInCU: 0x16FD4, offset: 0x16FD4, size: 0x8, addend: 0x0, symName: __ZNSt3__18ios_base8setstateB8ue170006Ej, symObjAddr: 0x97B8, symBinAddr: 0x10000A474, symSize: 0x19C }
  - { offsetInCU: 0x17070, offset: 0x17070, size: 0x8, addend: 0x0, symName: __ZNSt3__122__compressed_pair_elemINS_9allocatorIcEELi1ELb1EEC2B8ue170006ENS_18__default_init_tagE, symObjAddr: 0x87A0, symBinAddr: 0x10000945C, symSize: 0x7C }
  - { offsetInCU: 0x17134, offset: 0x17134, size: 0x8, addend: 0x0, symName: __ZNKSt3__117__compressed_pairINS_12basic_stringIcNS_11char_traitsIcEENS_9allocatorIcEEE5__repES5_E6secondB8ue170006Ev, symObjAddr: 0x8A94, symBinAddr: 0x100009750, symSize: 0xD4 }
  - { offsetInCU: 0x17177, offset: 0x17177, size: 0x8, addend: 0x0, symName: __ZNSt3__112basic_stringIcNS_11char_traitsIcEENS_9allocatorIcEEE16__set_short_sizeB8ue170006Em, symObjAddr: 0x8890, symBinAddr: 0x10000954C, symSize: 0x11C }
  - { offsetInCU: 0x171EA, offset: 0x171EA, size: 0x8, addend: 0x0, symName: __ZNSt3__117__compressed_pairINS_12basic_stringIcNS_11char_traitsIcEENS_9allocatorIcEEE5__repES5_E5firstB8ue170006Ev, symObjAddr: 0x8C8C, symBinAddr: 0x100009948, symSize: 0xCC }
  - { offsetInCU: 0x1722E, offset: 0x1722E, size: 0x8, addend: 0x0, symName: __ZNSt3__112basic_stringIcNS_11char_traitsIcEENS_9allocatorIcEEE19__get_short_pointerB8ue170006Ev, symObjAddr: 0x89AC, symBinAddr: 0x100009668, symSize: 0x58 }
  - { offsetInCU: 0x17263, offset: 0x17263, size: 0x8, addend: 0x0, symName: __ZNSt3__112basic_stringIcNS_11char_traitsIcEENS_9allocatorIcEEE15__set_long_sizeB8ue170006Em, symObjAddr: 0x8A04, symBinAddr: 0x1000096C0, symSize: 0x90 }
  - { offsetInCU: 0x172C3, offset: 0x172C3, size: 0x8, addend: 0x0, symName: __ZNSt12length_errorC1B8ue170006EPKc, symObjAddr: 0x8BE0, symBinAddr: 0x10000989C, symSize: 0xAC }
  - { offsetInCU: 0x1735D, offset: 0x1735D, size: 0x8, addend: 0x0, symName: __ZNKSt3__112basic_stringIcNS_11char_traitsIcEENS_9allocatorIcEEE9__is_longB8ue170006Ev, symObjAddr: 0x8E10, symBinAddr: 0x100009ACC, symSize: 0x9C }
  - { offsetInCU: 0x17391, offset: 0x17391, size: 0x8, addend: 0x0, symName: __ZNSt3__112basic_stringIcNS_11char_traitsIcEENS_9allocatorIcEEE18__get_long_pointerB8ue170006Ev, symObjAddr: 0x8EAC, symBinAddr: 0x100009B68, symSize: 0x88 }
  - { offsetInCU: 0x173C5, offset: 0x173C5, size: 0x8, addend: 0x0, symName: __ZNKSt3__117__compressed_pairINS_12basic_stringIcNS_11char_traitsIcEENS_9allocatorIcEEE5__repES5_E5firstB8ue170006Ev, symObjAddr: 0x8F34, symBinAddr: 0x100009BF0, symSize: 0xCC }
  - { offsetInCU: 0x1744D, offset: 0x1744D, size: 0x8, addend: 0x0, symName: __ZNKSt3__112basic_stringIcNS_11char_traitsIcEENS_9allocatorIcEEE15__get_long_sizeB8ue170006Ev, symObjAddr: 0x9AEC, symBinAddr: 0x10000A7A8, symSize: 0x8C }
  - { offsetInCU: 0x17481, offset: 0x17481, size: 0x8, addend: 0x0, symName: __ZNKSt3__112basic_stringIcNS_11char_traitsIcEENS_9allocatorIcEEE16__get_short_sizeB8ue170006Ev, symObjAddr: 0x9B78, symBinAddr: 0x10000A834, symSize: 0x9C }
  - { offsetInCU: 0x174B5, offset: 0x174B5, size: 0x8, addend: 0x0, symName: __ZNKSt3__112basic_stringIcNS_11char_traitsIcEENS_9allocatorIcEEE18__get_long_pointerB8ue170006Ev, symObjAddr: 0x9A0C, symBinAddr: 0x10000A6C8, symSize: 0x88 }
  - { offsetInCU: 0x174E9, offset: 0x174E9, size: 0x8, addend: 0x0, symName: __ZNKSt3__112basic_stringIcNS_11char_traitsIcEENS_9allocatorIcEEE19__get_short_pointerB8ue170006Ev, symObjAddr: 0x9A94, symBinAddr: 0x10000A750, symSize: 0x58 }
  - { offsetInCU: 0x175E6, offset: 0x175E6, size: 0x8, addend: 0x0, symName: __ZNSt3__117__compressed_pairIPiNS_9allocatorIiEEEC2B8ue170006IDnNS_18__default_init_tagEEEOT_OT0_, symObjAddr: 0xA59C, symBinAddr: 0x10000B258, symSize: 0xB0 }
  - { offsetInCU: 0x17665, offset: 0x17665, size: 0x8, addend: 0x0, symName: __ZNSt3__16vectorIiNS_9allocatorIiEEE11__vallocateB8ue170006Em, symObjAddr: 0xA0B4, symBinAddr: 0x10000AD70, symSize: 0x1A0 }
  - { offsetInCU: 0x17750, offset: 0x17750, size: 0x8, addend: 0x0, symName: __ZNSt3__16vectorIiNS_9allocatorIiEEE18__construct_at_endEm, symObjAddr: 0xA254, symBinAddr: 0x10000AF10, symSize: 0x300 }
  - { offsetInCU: 0x1788C, offset: 0x1788C, size: 0x8, addend: 0x0, symName: __ZNSt3__128__exception_guard_exceptionsINS_6vectorIiNS_9allocatorIiEEE16__destroy_vectorEED2B8ue170006Ev, symObjAddr: 0xB854, symBinAddr: 0x10000C510, symSize: 0xE4 }
  - { offsetInCU: 0x178CB, offset: 0x178CB, size: 0x8, addend: 0x0, symName: __ZNSt3__128__exception_guard_exceptionsINS_6vectorIiNS_9allocatorIiEEE16__destroy_vectorEED1B8ue170006Ev, symObjAddr: 0xA554, symBinAddr: 0x10000B210, symSize: 0x48 }
  - { offsetInCU: 0x1792F, offset: 0x1792F, size: 0x8, addend: 0x0, symName: __ZNKSt3__16vectorIiNS_9allocatorIiEEE7__allocB8ue170006Ev, symObjAddr: 0xAA40, symBinAddr: 0x10000B6FC, symSize: 0x70 }
  - { offsetInCU: 0x17964, offset: 0x17964, size: 0x8, addend: 0x0, symName: __ZNSt3__16vectorIiNS_9allocatorIiEEE7__allocB8ue170006Ev, symObjAddr: 0xA750, symBinAddr: 0x10000B40C, symSize: 0x70 }
  - { offsetInCU: 0x17994, offset: 0x17994, size: 0x8, addend: 0x0, symName: __ZNSt3__117__compressed_pairIPiNS_9allocatorIiEEE5firstB8ue170006Ev, symObjAddr: 0xAC58, symBinAddr: 0x10000B914, symSize: 0xCC }
  - { offsetInCU: 0x179D8, offset: 0x179D8, size: 0x8, addend: 0x0, symName: __ZNKSt3__16vectorIiNS_9allocatorIiEEE14__annotate_newB8ue170006Em, symObjAddr: 0xA7C0, symBinAddr: 0x10000B47C, symSize: 0x280 }
  - { offsetInCU: 0x17ACE, offset: 0x17ACE, size: 0x8, addend: 0x0, symName: __ZNKSt3__16vectorIiNS_9allocatorIiEEE20__throw_length_errorB8ue170006Ev, symObjAddr: 0xA6C8, symBinAddr: 0x10000B384, symSize: 0x44 }
  - { offsetInCU: 0x17BEA, offset: 0x17BEA, size: 0x8, addend: 0x0, symName: __ZNSt3__16vectorIiNS_9allocatorIiEEE21_ConstructTransactionC2B8ue170006ERS3_m, symObjAddr: 0xAEEC, symBinAddr: 0x10000BBA8, symSize: 0x194 }
  - { offsetInCU: 0x17C42, offset: 0x17C42, size: 0x8, addend: 0x0, symName: __ZNSt3__117__compressed_pairIPiNS_9allocatorIiEEE6secondB8ue170006Ev, symObjAddr: 0xAB84, symBinAddr: 0x10000B840, symSize: 0xD4 }
  - { offsetInCU: 0x17C85, offset: 0x17C85, size: 0x8, addend: 0x0, symName: __ZNSt3__16vectorIiNS_9allocatorIiEEE21_ConstructTransactionD2B8ue170006Ev, symObjAddr: 0xB3E4, symBinAddr: 0x10000C0A0, symSize: 0x214 }
  - { offsetInCU: 0x17CEC, offset: 0x17CEC, size: 0x8, addend: 0x0, symName: __ZNSt3__122__compressed_pair_elemINS_9allocatorIiEELi1ELb1EEC2B8ue170006ENS_18__default_init_tagE, symObjAddr: 0xA64C, symBinAddr: 0x10000B308, symSize: 0x7C }
  - { offsetInCU: 0x17E16, offset: 0x17E16, size: 0x8, addend: 0x0, symName: __ZNKSt3__16vectorIiNS_9allocatorIiEEE8capacityB8ue170006Ev, symObjAddr: 0xAD24, symBinAddr: 0x10000B9E0, symSize: 0x8C }
  - { offsetInCU: 0x17E51, offset: 0x17E51, size: 0x8, addend: 0x0, symName: __ZNKSt3__117__compressed_pairIPiNS_9allocatorIiEEE6secondB8ue170006Ev, symObjAddr: 0xAAB0, symBinAddr: 0x10000B76C, symSize: 0xD4 }
  - { offsetInCU: 0x17EDC, offset: 0x17EDC, size: 0x8, addend: 0x0, symName: __ZNKSt3__16vectorIiNS_9allocatorIiEEE9__end_capB8ue170006Ev, symObjAddr: 0xADB0, symBinAddr: 0x10000BA6C, symSize: 0x70 }
  - { offsetInCU: 0x17F11, offset: 0x17F11, size: 0x8, addend: 0x0, symName: __ZNKSt3__117__compressed_pairIPiNS_9allocatorIiEEE5firstB8ue170006Ev, symObjAddr: 0xAE20, symBinAddr: 0x10000BADC, symSize: 0xCC }
  - { offsetInCU: 0x17F71, offset: 0x17F71, size: 0x8, addend: 0x0, symName: __ZNKSt3__16vectorIiNS_9allocatorIiEEE19__annotate_increaseB8ue170006Em, symObjAddr: 0xB080, symBinAddr: 0x10000BD3C, symSize: 0x2D8 }
  - { offsetInCU: 0x1807B, offset: 0x1807B, size: 0x8, addend: 0x0, symName: __ZNKSt3__16vectorIiNS_9allocatorIiEEE4sizeB8ue170006Ev, symObjAddr: 0xB358, symBinAddr: 0x10000C014, symSize: 0x8C }
  - { offsetInCU: 0x180A2, offset: 0x180A2, size: 0x8, addend: 0x0, symName: __ZNKSt3__16vectorIiNS_9allocatorIiEEE17__annotate_shrinkB8ue170006Em, symObjAddr: 0xB5F8, symBinAddr: 0x10000C2B4, symSize: 0x25C }
  - { offsetInCU: 0x18206, offset: 0x18206, size: 0x8, addend: 0x0, symName: __ZNSt3__16vectorIiNS_9allocatorIiEEE22__base_destruct_at_endB8ue170006EPi, symObjAddr: 0xBDE8, symBinAddr: 0x10000CAA4, symSize: 0xE8 }
  - { offsetInCU: 0x18261, offset: 0x18261, size: 0x8, addend: 0x0, symName: __ZNKSt3__16vectorIiNS_9allocatorIiEEE17__annotate_deleteB8ue170006Ev, symObjAddr: 0xBB78, symBinAddr: 0x10000C834, symSize: 0x270 }
  - { offsetInCU: 0x184A1, offset: 0x184A1, size: 0x8, addend: 0x0, symName: __ZNSt3__117__compressed_pairIPNS_12basic_stringIcNS_11char_traitsIcEENS_9allocatorIcEEEENS4_IS6_EEEC2B8ue170006IDnNS_18__default_init_tagEEEOT_OT0_, symObjAddr: 0xCB70, symBinAddr: 0x10000D82C, symSize: 0xB0 }
  - { offsetInCU: 0x18520, offset: 0x18520, size: 0x8, addend: 0x0, symName: __ZNSt3__16vectorINS_12basic_stringIcNS_11char_traitsIcEENS_9allocatorIcEEEENS4_IS6_EEE11__vallocateB8ue170006Em, symObjAddr: 0xC668, symBinAddr: 0x10000D324, symSize: 0x1BC }
  - { offsetInCU: 0x1860B, offset: 0x1860B, size: 0x8, addend: 0x0, symName: __ZNSt3__16vectorINS_12basic_stringIcNS_11char_traitsIcEENS_9allocatorIcEEEENS4_IS6_EEE18__construct_at_endEm, symObjAddr: 0xC824, symBinAddr: 0x10000D4E0, symSize: 0x304 }
  - { offsetInCU: 0x18771, offset: 0x18771, size: 0x8, addend: 0x0, symName: __ZNSt3__128__exception_guard_exceptionsINS_6vectorINS_12basic_stringIcNS_11char_traitsIcEENS_9allocatorIcEEEENS5_IS7_EEE16__destroy_vectorEED2B8ue170006Ev, symObjAddr: 0xE114, symBinAddr: 0x10000EDD0, symSize: 0xE4 }
  - { offsetInCU: 0x187B0, offset: 0x187B0, size: 0x8, addend: 0x0, symName: __ZNSt3__128__exception_guard_exceptionsINS_6vectorINS_12basic_stringIcNS_11char_traitsIcEENS_9allocatorIcEEEENS5_IS7_EEE16__destroy_vectorEED1B8ue170006Ev, symObjAddr: 0xCB28, symBinAddr: 0x10000D7E4, symSize: 0x48 }
  - { offsetInCU: 0x18814, offset: 0x18814, size: 0x8, addend: 0x0, symName: __ZNKSt3__16vectorINS_12basic_stringIcNS_11char_traitsIcEENS_9allocatorIcEEEENS4_IS6_EEE7__allocB8ue170006Ev, symObjAddr: 0xD04C, symBinAddr: 0x10000DD08, symSize: 0x70 }
  - { offsetInCU: 0x18849, offset: 0x18849, size: 0x8, addend: 0x0, symName: __ZNSt3__16vectorINS_12basic_stringIcNS_11char_traitsIcEENS_9allocatorIcEEEENS4_IS6_EEE7__allocB8ue170006Ev, symObjAddr: 0xCD34, symBinAddr: 0x10000D9F0, symSize: 0x70 }
  - { offsetInCU: 0x18879, offset: 0x18879, size: 0x8, addend: 0x0, symName: __ZNSt3__117__compressed_pairIPNS_12basic_stringIcNS_11char_traitsIcEENS_9allocatorIcEEEENS4_IS6_EEE5firstB8ue170006Ev, symObjAddr: 0xD264, symBinAddr: 0x10000DF20, symSize: 0xCC }
  - { offsetInCU: 0x188BD, offset: 0x188BD, size: 0x8, addend: 0x0, symName: __ZNKSt3__16vectorINS_12basic_stringIcNS_11char_traitsIcEENS_9allocatorIcEEEENS4_IS6_EEE14__annotate_newB8ue170006Em, symObjAddr: 0xCDA4, symBinAddr: 0x10000DA60, symSize: 0x2A8 }
  - { offsetInCU: 0x189B3, offset: 0x189B3, size: 0x8, addend: 0x0, symName: __ZNKSt3__16vectorINS_12basic_stringIcNS_11char_traitsIcEENS_9allocatorIcEEEENS4_IS6_EEE20__throw_length_errorB8ue170006Ev, symObjAddr: 0xCC9C, symBinAddr: 0x10000D958, symSize: 0x44 }
  - { offsetInCU: 0x18AE9, offset: 0x18AE9, size: 0x8, addend: 0x0, symName: __ZNSt3__16vectorINS_12basic_stringIcNS_11char_traitsIcEENS_9allocatorIcEEEENS4_IS6_EEE21_ConstructTransactionC2B8ue170006ERS8_m, symObjAddr: 0xD504, symBinAddr: 0x10000E1C0, symSize: 0x1A4 }
  - { offsetInCU: 0x18B41, offset: 0x18B41, size: 0x8, addend: 0x0, symName: __ZNSt3__117__compressed_pairIPNS_12basic_stringIcNS_11char_traitsIcEENS_9allocatorIcEEEENS4_IS6_EEE6secondB8ue170006Ev, symObjAddr: 0xD190, symBinAddr: 0x10000DE4C, symSize: 0xD4 }
  - { offsetInCU: 0x18B84, offset: 0x18B84, size: 0x8, addend: 0x0, symName: __ZNSt3__112basic_stringIcNS_11char_traitsIcEENS_9allocatorIcEEEC2B8ue170006Ev, symObjAddr: 0xDA4C, symBinAddr: 0x10000E708, symSize: 0x224 }
  - { offsetInCU: 0x18BF4, offset: 0x18BF4, size: 0x8, addend: 0x0, symName: __ZNSt3__16vectorINS_12basic_stringIcNS_11char_traitsIcEENS_9allocatorIcEEEENS4_IS6_EEE21_ConstructTransactionD2B8ue170006Ev, symObjAddr: 0xDC70, symBinAddr: 0x10000E92C, symSize: 0x220 }
  - { offsetInCU: 0x18C5B, offset: 0x18C5B, size: 0x8, addend: 0x0, symName: __ZNSt3__122__compressed_pair_elemINS_9allocatorINS_12basic_stringIcNS_11char_traitsIcEENS1_IcEEEEEELi1ELb1EEC2B8ue170006ENS_18__default_init_tagE, symObjAddr: 0xCC20, symBinAddr: 0x10000D8DC, symSize: 0x7C }
  - { offsetInCU: 0x18D80, offset: 0x18D80, size: 0x8, addend: 0x0, symName: __ZNKSt3__16vectorINS_12basic_stringIcNS_11char_traitsIcEENS_9allocatorIcEEEENS4_IS6_EEE8capacityB8ue170006Ev, symObjAddr: 0xD330, symBinAddr: 0x10000DFEC, symSize: 0x98 }
  - { offsetInCU: 0x18DBB, offset: 0x18DBB, size: 0x8, addend: 0x0, symName: __ZNKSt3__117__compressed_pairIPNS_12basic_stringIcNS_11char_traitsIcEENS_9allocatorIcEEEENS4_IS6_EEE6secondB8ue170006Ev, symObjAddr: 0xD0BC, symBinAddr: 0x10000DD78, symSize: 0xD4 }
  - { offsetInCU: 0x18E46, offset: 0x18E46, size: 0x8, addend: 0x0, symName: __ZNKSt3__16vectorINS_12basic_stringIcNS_11char_traitsIcEENS_9allocatorIcEEEENS4_IS6_EEE9__end_capB8ue170006Ev, symObjAddr: 0xD3C8, symBinAddr: 0x10000E084, symSize: 0x70 }
  - { offsetInCU: 0x18E7B, offset: 0x18E7B, size: 0x8, addend: 0x0, symName: __ZNKSt3__117__compressed_pairIPNS_12basic_stringIcNS_11char_traitsIcEENS_9allocatorIcEEEENS4_IS6_EEE5firstB8ue170006Ev, symObjAddr: 0xD438, symBinAddr: 0x10000E0F4, symSize: 0xCC }
  - { offsetInCU: 0x18EDB, offset: 0x18EDB, size: 0x8, addend: 0x0, symName: __ZNKSt3__16vectorINS_12basic_stringIcNS_11char_traitsIcEENS_9allocatorIcEEEENS4_IS6_EEE19__annotate_increaseB8ue170006Em, symObjAddr: 0xD6A8, symBinAddr: 0x10000E364, symSize: 0x30C }
  - { offsetInCU: 0x18FE5, offset: 0x18FE5, size: 0x8, addend: 0x0, symName: __ZNKSt3__16vectorINS_12basic_stringIcNS_11char_traitsIcEENS_9allocatorIcEEEENS4_IS6_EEE4sizeB8ue170006Ev, symObjAddr: 0xD9B4, symBinAddr: 0x10000E670, symSize: 0x98 }
  - { offsetInCU: 0x19022, offset: 0x19022, size: 0x8, addend: 0x0, symName: __ZNKSt3__16vectorINS_12basic_stringIcNS_11char_traitsIcEENS_9allocatorIcEEEENS4_IS6_EEE17__annotate_shrinkB8ue170006Em, symObjAddr: 0xDE90, symBinAddr: 0x10000EB4C, symSize: 0x284 }
  - { offsetInCU: 0x19186, offset: 0x19186, size: 0x8, addend: 0x0, symName: __ZNSt3__16vectorINS_12basic_stringIcNS_11char_traitsIcEENS_9allocatorIcEEEENS4_IS6_EEE22__base_destruct_at_endB8ue170006EPS6_, symObjAddr: 0xE6D0, symBinAddr: 0x10000F38C, symSize: 0x130 }
  - { offsetInCU: 0x19225, offset: 0x19225, size: 0x8, addend: 0x0, symName: __ZNKSt3__16vectorINS_12basic_stringIcNS_11char_traitsIcEENS_9allocatorIcEEEENS4_IS6_EEE17__annotate_deleteB8ue170006Ev, symObjAddr: 0xE438, symBinAddr: 0x10000F0F4, symSize: 0x298 }
  - { offsetInCU: 0x19466, offset: 0x19466, size: 0x8, addend: 0x0, symName: __ZNSt3__114__split_bufferIP4vertNS_9allocatorIS2_EEEC1B8ue170006Ev, symObjAddr: 0xF8AC, symBinAddr: 0x100010568, symSize: 0x204 }
  - { offsetInCU: 0x194E3, offset: 0x194E3, size: 0x8, addend: 0x0, symName: __ZNSt3__117__compressed_pairImNS_9allocatorI4vertEEEC2B8ue170006IiNS_18__default_init_tagEEEOT_OT0_, symObjAddr: 0xFE14, symBinAddr: 0x100010AD0, symSize: 0xE8 }
  - { offsetInCU: 0x1956B, offset: 0x1956B, size: 0x8, addend: 0x0, symName: __ZNKSt3__15dequeI4vertNS_9allocatorIS1_EEE14__annotate_newB8ue170006Em, symObjAddr: 0xFAB0, symBinAddr: 0x10001076C, symSize: 0x118 }
  - { offsetInCU: 0x19605, offset: 0x19605, size: 0x8, addend: 0x0, symName: __ZNKSt16initializer_listI4vertE3endB8ue170006Ev, symObjAddr: 0xFBC8, symBinAddr: 0x100010884, symSize: 0xD8 }
  - { offsetInCU: 0x1962C, offset: 0x1962C, size: 0x8, addend: 0x0, symName: __ZNSt3__15dequeI4vertNS_9allocatorIS1_EEE18__append_with_sizeB8ue170006IPKS1_EEvT_m, symObjAddr: 0x10AC8, symBinAddr: 0x100011784, symSize: 0x5BC }
  - { offsetInCU: 0x198E6, offset: 0x198E6, size: 0x8, addend: 0x0, symName: __ZNSt3__114__split_bufferIP4vertNS_9allocatorIS2_EEED1Ev, symObjAddr: 0xFCA0, symBinAddr: 0x10001095C, symSize: 0x48 }
  - { offsetInCU: 0x19978, offset: 0x19978, size: 0x8, addend: 0x0, symName: __ZNSt3__117__compressed_pairIPP4vertNS_9allocatorIS2_EEEC2B8ue170006IDnNS_18__default_init_tagEEEOT_OT0_, symObjAddr: 0xFCE8, symBinAddr: 0x1000109A4, symSize: 0xB0 }
  - { offsetInCU: 0x199F7, offset: 0x199F7, size: 0x8, addend: 0x0, symName: __ZNKSt3__15dequeI4vertNS_9allocatorIS1_EEE18__annotate_from_toB8ue170006EmmNS4_22__asan_annotation_typeENS4_23__asan_annotation_placeE, symObjAddr: 0xFF78, symBinAddr: 0x100010C34, symSize: 0x8F4 }
  - { offsetInCU: 0x19C51, offset: 0x19C51, size: 0x8, addend: 0x0, symName: __ZNKSt3__114__split_bufferIP4vertNS_9allocatorIS2_EEE4sizeB8ue170006Ev, symObjAddr: 0x1086C, symBinAddr: 0x100011528, symSize: 0x90 }
  - { offsetInCU: 0x19C78, offset: 0x19C78, size: 0x8, addend: 0x0, symName: __ZNSt3__114__split_bufferIP4vertNS_9allocatorIS2_EEED2Ev, symObjAddr: 0x18854, symBinAddr: 0x100019510, symSize: 0xF4 }
  - { offsetInCU: 0x19DB6, offset: 0x19DB6, size: 0x8, addend: 0x0, symName: __ZNSt3__122__compressed_pair_elemINS_9allocatorIP4vertEELi1ELb1EEC2B8ue170006ENS_18__default_init_tagE, symObjAddr: 0xFD98, symBinAddr: 0x100010A54, symSize: 0x7C }
  - { offsetInCU: 0x19E93, offset: 0x19E93, size: 0x8, addend: 0x0, symName: __ZNSt3__122__compressed_pair_elemINS_9allocatorI4vertEELi1ELb1EEC2B8ue170006ENS_18__default_init_tagE, symObjAddr: 0xFEFC, symBinAddr: 0x100010BB8, symSize: 0x7C }
  - { offsetInCU: 0x19FC5, offset: 0x19FC5, size: 0x8, addend: 0x0, symName: __ZNKSt3__15dequeI4vertNS_9allocatorIS1_EEE6__sizeB8ue170006Ev, symObjAddr: 0x1098C, symBinAddr: 0x100011648, symSize: 0x70 }
  - { offsetInCU: 0x19FFA, offset: 0x19FFA, size: 0x8, addend: 0x0, symName: __ZNKSt3__117__compressed_pairImNS_9allocatorI4vertEEE5firstB8ue170006Ev, symObjAddr: 0x109FC, symBinAddr: 0x1000116B8, symSize: 0xCC }
  - { offsetInCU: 0x1A203, offset: 0x1A203, size: 0x8, addend: 0x0, symName: __ZNSt3__15dequeI4vertNS_9allocatorIS1_EEE7__allocB8ue170006Ev, symObjAddr: 0x11084, symBinAddr: 0x100011D40, symSize: 0x70 }
  - { offsetInCU: 0x1A238, offset: 0x1A238, size: 0x8, addend: 0x0, symName: __ZNKSt3__15dequeI4vertNS_9allocatorIS1_EEE12__back_spareB8ue170006Ev, symObjAddr: 0x110F4, symBinAddr: 0x100011DB0, symSize: 0xC4 }
  - { offsetInCU: 0x1A29E, offset: 0x1A29E, size: 0x8, addend: 0x0, symName: __ZNSt3__15dequeI4vertNS_9allocatorIS1_EEE19__add_back_capacityEm, symObjAddr: 0x111B8, symBinAddr: 0x100011E74, symSize: 0xE40 }
  - { offsetInCU: 0x1AA71, offset: 0x1AA71, size: 0x8, addend: 0x0, symName: __ZNKSt3__15dequeI4vertNS_9allocatorIS1_EEE24__annotate_increase_backB8ue170006Em, symObjAddr: 0x11FF8, symBinAddr: 0x100012CB4, symSize: 0x128 }
  - { offsetInCU: 0x1AB1C, offset: 0x1AB1C, size: 0x8, addend: 0x0, symName: __ZNSt3__15dequeI4vertNS_9allocatorIS1_EEE3endB8ue170006Ev, symObjAddr: 0x12120, symBinAddr: 0x100012DDC, symSize: 0x1E0 }
  - { offsetInCU: 0x1ABB9, offset: 0x1ABB9, size: 0x8, addend: 0x0, symName: __ZNSt3__116__deque_iteratorI4vertPS1_RS1_PS2_lLl256EEpLB8ue170006El, symObjAddr: 0x1810C, symBinAddr: 0x100018DC8, symSize: 0x504 }
  - { offsetInCU: 0x1AC06, offset: 0x1AC06, size: 0x8, addend: 0x0, symName: __ZNSt3__15dequeI4vertNS_9allocatorIS1_EEE21_ConstructTransactionD2B8ue170006Ev, symObjAddr: 0x18610, symBinAddr: 0x1000192CC, symSize: 0x108 }
  - { offsetInCU: 0x1AC3E, offset: 0x1AC3E, size: 0x8, addend: 0x0, symName: __ZNSt3__15dequeI4vertNS_9allocatorIS1_EEE13__deque_rangeppB8ue170006Ev, symObjAddr: 0x1274C, symBinAddr: 0x100013408, symSize: 0x24C }
  - { offsetInCU: 0x1AC65, offset: 0x1AC65, size: 0x8, addend: 0x0, symName: __ZNKSt3__15dequeI4vertNS_9allocatorIS1_EEE13__deque_rangedeB8ue170006Ev, symObjAddr: 0x12360, symBinAddr: 0x10001301C, symSize: 0x2C8 }
  - { offsetInCU: 0x1AC8C, offset: 0x1AC8C, size: 0x8, addend: 0x0, symName: __ZNSt3__15dequeI4vertNS_9allocatorIS1_EEE21_ConstructTransactionC1B8ue170006EPS4_RNS4_19__deque_block_rangeE, symObjAddr: 0x12628, symBinAddr: 0x1000132E4, symSize: 0x124 }
  - { offsetInCU: 0x1AD00, offset: 0x1AD00, size: 0x8, addend: 0x0, symName: __ZNSt3__117__compressed_pairImNS_9allocatorI4vertEEE6secondB8ue170006Ev, symObjAddr: 0x12998, symBinAddr: 0x100013654, symSize: 0xD4 }
  - { offsetInCU: 0x1AD43, offset: 0x1AD43, size: 0x8, addend: 0x0, symName: __ZNKSt3__15dequeI4vertNS_9allocatorIS1_EEE10__capacityB8ue170006Ev, symObjAddr: 0x12A6C, symBinAddr: 0x100013728, symSize: 0x84 }
  - { offsetInCU: 0x1AF66, offset: 0x1AF66, size: 0x8, addend: 0x0, symName: __ZNKSt3__114__split_bufferIP4vertNS_9allocatorIS2_EEE5emptyB8ue170006Ev, symObjAddr: 0x12AF0, symBinAddr: 0x1000137AC, symSize: 0x90 }
  - { offsetInCU: 0x1AF8D, offset: 0x1AF8D, size: 0x8, addend: 0x0, symName: __ZNKSt3__114__split_bufferIP4vertNS_9allocatorIS2_EEE8capacityB8ue170006Ev, symObjAddr: 0x135B8, symBinAddr: 0x100014274, symSize: 0x8C }
  - { offsetInCU: 0x1AFC8, offset: 0x1AFC8, size: 0x8, addend: 0x0, symName: __ZNSt3__114__split_bufferIP4vertNS_9allocatorIS2_EEE7__allocB8ue170006Ev, symObjAddr: 0x14C60, symBinAddr: 0x10001591C, symSize: 0x70 }
  - { offsetInCU: 0x1AFF8, offset: 0x1AFF8, size: 0x8, addend: 0x0, symName: __ZNSt3__114__split_bufferIP4vertRNS_9allocatorIS2_EEEC2EmmS5_, symObjAddr: 0x17670, symBinAddr: 0x10001832C, symSize: 0x35C }
  - { offsetInCU: 0x1B0FF, offset: 0x1B0FF, size: 0x8, addend: 0x0, symName: __ZNSt3__114__split_bufferIP4vertRNS_9allocatorIS2_EEE9push_backEOS2_, symObjAddr: 0x14CD0, symBinAddr: 0x10001598C, symSize: 0x8F8 }
  - { offsetInCU: 0x1B613, offset: 0x1B613, size: 0x8, addend: 0x0, symName: __ZNSt3__114__split_bufferIP4vertRNS_9allocatorIS2_EEE4backB8ue170006Ev, symObjAddr: 0x155C8, symBinAddr: 0x100016284, symSize: 0xC0 }
  - { offsetInCU: 0x1B63A, offset: 0x1B63A, size: 0x8, addend: 0x0, symName: __ZNSt3__114__split_bufferIP4vertRNS_9allocatorIS2_EEE9push_backB8ue170006ERKS2_, symObjAddr: 0x15874, symBinAddr: 0x100016530, symSize: 0x8F8 }
  - { offsetInCU: 0x1BB4E, offset: 0x1BB4E, size: 0x8, addend: 0x0, symName: __ZNSt3__114__split_bufferIP4vertNS_9allocatorIS2_EEE9pop_frontB8ue170006Ev, symObjAddr: 0x12B80, symBinAddr: 0x10001383C, symSize: 0x140 }
  - { offsetInCU: 0x1BBB3, offset: 0x1BBB3, size: 0x8, addend: 0x0, symName: __ZNSt3__114__split_bufferIP4vertNS_9allocatorIS2_EEE9push_backB8ue170006ERKS2_, symObjAddr: 0x12CC0, symBinAddr: 0x10001397C, symSize: 0x8F8 }
  - { offsetInCU: 0x1C0C7, offset: 0x1C0C7, size: 0x8, addend: 0x0, symName: __ZNKSt3__114__split_bufferIP4vertNS_9allocatorIS2_EEE12__back_spareB8ue170006Ev, symObjAddr: 0x13644, symBinAddr: 0x100014300, symSize: 0x90 }
  - { offsetInCU: 0x1C102, offset: 0x1C102, size: 0x8, addend: 0x0, symName: __ZNSt3__114__split_bufferIP4vertNS_9allocatorIS2_EEE9push_backEOS2_, symObjAddr: 0x136D4, symBinAddr: 0x100014390, symSize: 0x8F8 }
  - { offsetInCU: 0x1C616, offset: 0x1C616, size: 0x8, addend: 0x0, symName: __ZNKSt3__15dequeI4vertNS_9allocatorIS1_EEE22__annotate_whole_blockB8ue170006EmNS4_22__asan_annotation_typeE, symObjAddr: 0x13FCC, symBinAddr: 0x100014C88, symSize: 0x270 }
  - { offsetInCU: 0x1C6BB, offset: 0x1C6BB, size: 0x8, addend: 0x0, symName: __ZNSt3__114__split_bufferIP4vertRNS_9allocatorIS2_EEE10push_frontERKS2_, symObjAddr: 0x1616C, symBinAddr: 0x100016E28, symSize: 0xA24 }
  - { offsetInCU: 0x1CBF2, offset: 0x1CBF2, size: 0x8, addend: 0x0, symName: __ZNSt3__117__compressed_pairIPP4vertNS_9allocatorIS2_EEE5firstB8ue170006Ev, symObjAddr: 0x17B0C, symBinAddr: 0x1000187C8, symSize: 0xCC }
  - { offsetInCU: 0x1CC36, offset: 0x1CC36, size: 0x8, addend: 0x0, symName: __ZNSt3__117__compressed_pairIPP4vertRNS_9allocatorIS2_EEE5firstB8ue170006Ev, symObjAddr: 0x17BD8, symBinAddr: 0x100018894, symSize: 0xCC }
  - { offsetInCU: 0x1CC7A, offset: 0x1CC7A, size: 0x8, addend: 0x0, symName: __ZNSt3__114__split_bufferIP4vertRNS_9allocatorIS2_EEED2Ev, symObjAddr: 0x17CA4, symBinAddr: 0x100018960, symSize: 0xF4 }
  - { offsetInCU: 0x1CD89, offset: 0x1CD89, size: 0x8, addend: 0x0, symName: __ZNSt3__114__split_bufferIP4vertNS_9allocatorIS2_EEE10push_frontEOS2_, symObjAddr: 0x1423C, symBinAddr: 0x100014EF8, symSize: 0xA24 }
  - { offsetInCU: 0x1D2C0, offset: 0x1D2C0, size: 0x8, addend: 0x0, symName: __ZNKSt3__15dequeI4vertNS_9allocatorIS1_EEE17__annotate_deleteB8ue170006Ev, symObjAddr: 0x15688, symBinAddr: 0x100016344, symSize: 0x180 }
  - { offsetInCU: 0x1D3D1, offset: 0x1D3D1, size: 0x8, addend: 0x0, symName: __ZNSt3__114__split_bufferIP4vertRNS_9allocatorIS2_EEE5beginB8ue170006Ev, symObjAddr: 0x15808, symBinAddr: 0x1000164C4, symSize: 0x6C }
  - { offsetInCU: 0x1D3F8, offset: 0x1D3F8, size: 0x8, addend: 0x0, symName: __ZNSt3__114__split_bufferIP4vertRNS_9allocatorIS2_EEED1Ev, symObjAddr: 0x16C70, symBinAddr: 0x10001792C, symSize: 0x48 }
  - { offsetInCU: 0x1D637, offset: 0x1D637, size: 0x8, addend: 0x0, symName: __ZNSt3__114__split_bufferIP4vertNS_9allocatorIS2_EEE9__end_capB8ue170006Ev, symObjAddr: 0x16B90, symBinAddr: 0x10001784C, symSize: 0x70 }
  - { offsetInCU: 0x1D667, offset: 0x1D667, size: 0x8, addend: 0x0, symName: __ZNSt3__117__compressed_pairIPP4vertNS_9allocatorIS2_EEE6secondB8ue170006Ev, symObjAddr: 0x1759C, symBinAddr: 0x100018258, symSize: 0xD4 }
  - { offsetInCU: 0x1D6AA, offset: 0x1D6AA, size: 0x8, addend: 0x0, symName: __ZNSt3__114__split_bufferIP4vertRNS_9allocatorIS2_EEE28__construct_at_end_with_sizeINS_13move_iteratorIPS2_EEEEvT_m, symObjAddr: 0x16CB8, symBinAddr: 0x100017974, symSize: 0x39C }
  - { offsetInCU: 0x1D7E8, offset: 0x1D7E8, size: 0x8, addend: 0x0, symName: __ZNKSt3__114__split_bufferIP4vertNS_9allocatorIS2_EEE9__end_capB8ue170006Ev, symObjAddr: 0x17460, symBinAddr: 0x10001811C, symSize: 0x70 }
  - { offsetInCU: 0x1D915, offset: 0x1D915, size: 0x8, addend: 0x0, symName: __ZNSt3__114__split_bufferIP4vertRNS_9allocatorIS2_EEE9__end_capB8ue170006Ev, symObjAddr: 0x16C00, symBinAddr: 0x1000178BC, symSize: 0x70 }
  - { offsetInCU: 0x1D945, offset: 0x1D945, size: 0x8, addend: 0x0, symName: __ZNSt3__117__compressed_pairIPP4vertRNS_9allocatorIS2_EEE6secondB8ue170006Ev, symObjAddr: 0x17278, symBinAddr: 0x100017F34, symSize: 0x100 }
  - { offsetInCU: 0x1D982, offset: 0x1D982, size: 0x8, addend: 0x0, symName: __ZNSt3__114__split_bufferIP4vertRNS_9allocatorIS2_EEE7__allocB8ue170006Ev, symObjAddr: 0x17054, symBinAddr: 0x100017D10, symSize: 0x70 }
  - { offsetInCU: 0x1DA46, offset: 0x1DA46, size: 0x8, addend: 0x0, symName: __ZNSt3__114__split_bufferIP4vertRNS_9allocatorIS2_EEE21_ConstructTransactionC2B8ue170006EPPS2_m, symObjAddr: 0x170C4, symBinAddr: 0x100017D80, symSize: 0x1B4 }
  - { offsetInCU: 0x1DA8F, offset: 0x1DA8F, size: 0x8, addend: 0x0, symName: __ZNSt3__114__split_bufferIP4vertRNS_9allocatorIS2_EEE21_ConstructTransactionD2B8ue170006Ev, symObjAddr: 0x17378, symBinAddr: 0x100018034, symSize: 0xE8 }
  - { offsetInCU: 0x1DAD0, offset: 0x1DAD0, size: 0x8, addend: 0x0, symName: __ZNKSt3__117__compressed_pairIPP4vertNS_9allocatorIS2_EEE5firstB8ue170006Ev, symObjAddr: 0x174D0, symBinAddr: 0x10001818C, symSize: 0xCC }
  - { offsetInCU: 0x1DB88, offset: 0x1DB88, size: 0x8, addend: 0x0, symName: __ZNSt3__117__compressed_pairIPP4vertRNS_9allocatorIS2_EEEC2B8ue170006IDnS6_EEOT_OT0_, symObjAddr: 0x17A10, symBinAddr: 0x1000186CC, symSize: 0xFC }
  - { offsetInCU: 0x1DCD6, offset: 0x1DCD6, size: 0x8, addend: 0x0, symName: __ZNSt3__114__split_bufferIP4vertRNS_9allocatorIS2_EEE5clearB8ue170006Ev, symObjAddr: 0x17D98, symBinAddr: 0x100018A54, symSize: 0xAC }
  - { offsetInCU: 0x1DD2A, offset: 0x1DD2A, size: 0x8, addend: 0x0, symName: __ZNKSt3__114__split_bufferIP4vertRNS_9allocatorIS2_EEE8capacityB8ue170006Ev, symObjAddr: 0x17E44, symBinAddr: 0x100018B00, symSize: 0x8C }
  - { offsetInCU: 0x1DD86, offset: 0x1DD86, size: 0x8, addend: 0x0, symName: __ZNSt3__114__split_bufferIP4vertRNS_9allocatorIS2_EEE17__destruct_at_endB8ue170006EPS2_NS_17integral_constantIbLb0EEE, symObjAddr: 0x17ED0, symBinAddr: 0x100018B8C, symSize: 0x100 }
  - { offsetInCU: 0x1DDD9, offset: 0x1DDD9, size: 0x8, addend: 0x0, symName: __ZNKSt3__114__split_bufferIP4vertRNS_9allocatorIS2_EEE9__end_capB8ue170006Ev, symObjAddr: 0x17FD0, symBinAddr: 0x100018C8C, symSize: 0x70 }
  - { offsetInCU: 0x1DE0E, offset: 0x1DE0E, size: 0x8, addend: 0x0, symName: __ZNKSt3__117__compressed_pairIPP4vertRNS_9allocatorIS2_EEE5firstB8ue170006Ev, symObjAddr: 0x18040, symBinAddr: 0x100018CFC, symSize: 0xCC }
  - { offsetInCU: 0x1DE52, offset: 0x1DE52, size: 0x8, addend: 0x0, symName: __ZNSt3__15dequeI4vertNS_9allocatorIS1_EEE6__sizeB8ue170006Ev, symObjAddr: 0x18718, symBinAddr: 0x1000193D4, symSize: 0x70 }
  - { offsetInCU: 0x1DE82, offset: 0x1DE82, size: 0x8, addend: 0x0, symName: __ZNSt3__117__compressed_pairImNS_9allocatorI4vertEEE5firstB8ue170006Ev, symObjAddr: 0x18788, symBinAddr: 0x100019444, symSize: 0xCC }
  - { offsetInCU: 0x1DEDC, offset: 0x1DEDC, size: 0x8, addend: 0x0, symName: __ZNSt3__114__split_bufferIP4vertNS_9allocatorIS2_EEE5clearB8ue170006Ev, symObjAddr: 0x18948, symBinAddr: 0x100019604, symSize: 0xAC }
  - { offsetInCU: 0x1DF51, offset: 0x1DF51, size: 0x8, addend: 0x0, symName: __ZNSt3__114__split_bufferIP4vertNS_9allocatorIS2_EEE17__destruct_at_endB8ue170006EPS2_NS_17integral_constantIbLb0EEE, symObjAddr: 0x189F4, symBinAddr: 0x1000196B0, symSize: 0x100 }
  - { offsetInCU: 0x1DFC0, offset: 0x1DFC0, size: 0x8, addend: 0x0, symName: __ZNSt3__15dequeI4vertNS_9allocatorIS1_EEE5clearEv, symObjAddr: 0x18CBC, symBinAddr: 0x100019978, symSize: 0x3C8 }
  - { offsetInCU: 0x1E1FB, offset: 0x1E1FB, size: 0x8, addend: 0x0, symName: __ZNSt3__15dequeI4vertNS_9allocatorIS1_EEE5beginB8ue170006Ev, symObjAddr: 0x19084, symBinAddr: 0x100019D40, symSize: 0x1EC }
  - { offsetInCU: 0x1E256, offset: 0x1E256, size: 0x8, addend: 0x0, symName: __ZNSt3__116__deque_iteratorI4vertPS1_RS1_PS2_lLl256EEppB8ue170006Ev, symObjAddr: 0x19270, symBinAddr: 0x100019F2C, symSize: 0x2AC }
  - { offsetInCU: 0x1E2BA, offset: 0x1E2BA, size: 0x8, addend: 0x0, symName: __ZNSt3__114__split_bufferIP4vertNS_9allocatorIS2_EEEC2EOS5_, symObjAddr: 0x19630, symBinAddr: 0x10001A2EC, symSize: 0x16C }
  - { offsetInCU: 0x1E3DA, offset: 0x1E3DA, size: 0x8, addend: 0x0, symName: __ZNSt3__117__compressed_pairIPNS_5arrayIbLm2EEENS_9allocatorIS2_EEEC2B8ue170006IDnNS_18__default_init_tagEEEOT_OT0_, symObjAddr: 0x19FF0, symBinAddr: 0x10001ACAC, symSize: 0xB0 }
  - { offsetInCU: 0x1E459, offset: 0x1E459, size: 0x8, addend: 0x0, symName: __ZNSt3__16vectorINS_5arrayIbLm2EEENS_9allocatorIS2_EEE11__vallocateB8ue170006Em, symObjAddr: 0x19AD4, symBinAddr: 0x10001A790, symSize: 0x198 }
  - { offsetInCU: 0x1E544, offset: 0x1E544, size: 0x8, addend: 0x0, symName: __ZNSt3__16vectorINS_5arrayIbLm2EEENS_9allocatorIS2_EEE18__construct_at_endEm, symObjAddr: 0x19C6C, symBinAddr: 0x10001A928, symSize: 0x33C }
  - { offsetInCU: 0x1E681, offset: 0x1E681, size: 0x8, addend: 0x0, symName: __ZNSt3__128__exception_guard_exceptionsINS_6vectorINS_5arrayIbLm2EEENS_9allocatorIS3_EEE16__destroy_vectorEED2B8ue170006Ev, symObjAddr: 0x1B288, symBinAddr: 0x10001BF44, symSize: 0xE4 }
  - { offsetInCU: 0x1E6C0, offset: 0x1E6C0, size: 0x8, addend: 0x0, symName: __ZNSt3__128__exception_guard_exceptionsINS_6vectorINS_5arrayIbLm2EEENS_9allocatorIS3_EEE16__destroy_vectorEED1B8ue170006Ev, symObjAddr: 0x19FA8, symBinAddr: 0x10001AC64, symSize: 0x48 }
  - { offsetInCU: 0x1E71E, offset: 0x1E71E, size: 0x8, addend: 0x0, symName: __ZNKSt3__16vectorINS_5arrayIbLm2EEENS_9allocatorIS2_EEE7__allocB8ue170006Ev, symObjAddr: 0x1A488, symBinAddr: 0x10001B144, symSize: 0x70 }
  - { offsetInCU: 0x1E74E, offset: 0x1E74E, size: 0x8, addend: 0x0, symName: __ZNSt3__16vectorINS_5arrayIbLm2EEENS_9allocatorIS2_EEE7__allocB8ue170006Ev, symObjAddr: 0x1A1A0, symBinAddr: 0x10001AE5C, symSize: 0x70 }
  - { offsetInCU: 0x1E77E, offset: 0x1E77E, size: 0x8, addend: 0x0, symName: __ZNSt3__117__compressed_pairIPNS_5arrayIbLm2EEENS_9allocatorIS2_EEE5firstB8ue170006Ev, symObjAddr: 0x1A6A0, symBinAddr: 0x10001B35C, symSize: 0xCC }
  - { offsetInCU: 0x1E7C2, offset: 0x1E7C2, size: 0x8, addend: 0x0, symName: __ZNKSt3__16vectorINS_5arrayIbLm2EEENS_9allocatorIS2_EEE14__annotate_newB8ue170006Em, symObjAddr: 0x1A210, symBinAddr: 0x10001AECC, symSize: 0x278 }
  - { offsetInCU: 0x1E8B8, offset: 0x1E8B8, size: 0x8, addend: 0x0, symName: __ZNKSt3__16vectorINS_5arrayIbLm2EEENS_9allocatorIS2_EEE20__throw_length_errorB8ue170006Ev, symObjAddr: 0x1A11C, symBinAddr: 0x10001ADD8, symSize: 0x44 }
  - { offsetInCU: 0x1E9D4, offset: 0x1E9D4, size: 0x8, addend: 0x0, symName: __ZNSt3__16vectorINS_5arrayIbLm2EEENS_9allocatorIS2_EEE21_ConstructTransactionC2B8ue170006ERS5_m, symObjAddr: 0x1A934, symBinAddr: 0x10001B5F0, symSize: 0x194 }
  - { offsetInCU: 0x1EA2C, offset: 0x1EA2C, size: 0x8, addend: 0x0, symName: __ZNSt3__117__compressed_pairIPNS_5arrayIbLm2EEENS_9allocatorIS2_EEE6secondB8ue170006Ev, symObjAddr: 0x1A5CC, symBinAddr: 0x10001B288, symSize: 0xD4 }
  - { offsetInCU: 0x1EA6F, offset: 0x1EA6F, size: 0x8, addend: 0x0, symName: __ZNSt3__16vectorINS_5arrayIbLm2EEENS_9allocatorIS2_EEE21_ConstructTransactionD2B8ue170006Ev, symObjAddr: 0x1AE20, symBinAddr: 0x10001BADC, symSize: 0x214 }
  - { offsetInCU: 0x1EAD6, offset: 0x1EAD6, size: 0x8, addend: 0x0, symName: __ZNSt3__122__compressed_pair_elemINS_9allocatorINS_5arrayIbLm2EEEEELi1ELb1EEC2B8ue170006ENS_18__default_init_tagE, symObjAddr: 0x1A0A0, symBinAddr: 0x10001AD5C, symSize: 0x7C }
  - { offsetInCU: 0x1EBFB, offset: 0x1EBFB, size: 0x8, addend: 0x0, symName: __ZNKSt3__16vectorINS_5arrayIbLm2EEENS_9allocatorIS2_EEE8capacityB8ue170006Ev, symObjAddr: 0x1A76C, symBinAddr: 0x10001B428, symSize: 0x8C }
  - { offsetInCU: 0x1EC36, offset: 0x1EC36, size: 0x8, addend: 0x0, symName: __ZNKSt3__117__compressed_pairIPNS_5arrayIbLm2EEENS_9allocatorIS2_EEE6secondB8ue170006Ev, symObjAddr: 0x1A4F8, symBinAddr: 0x10001B1B4, symSize: 0xD4 }
  - { offsetInCU: 0x1ECC1, offset: 0x1ECC1, size: 0x8, addend: 0x0, symName: __ZNKSt3__16vectorINS_5arrayIbLm2EEENS_9allocatorIS2_EEE9__end_capB8ue170006Ev, symObjAddr: 0x1A7F8, symBinAddr: 0x10001B4B4, symSize: 0x70 }
  - { offsetInCU: 0x1ECF6, offset: 0x1ECF6, size: 0x8, addend: 0x0, symName: __ZNKSt3__117__compressed_pairIPNS_5arrayIbLm2EEENS_9allocatorIS2_EEE5firstB8ue170006Ev, symObjAddr: 0x1A868, symBinAddr: 0x10001B524, symSize: 0xCC }
  - { offsetInCU: 0x1ED56, offset: 0x1ED56, size: 0x8, addend: 0x0, symName: __ZNKSt3__16vectorINS_5arrayIbLm2EEENS_9allocatorIS2_EEE19__annotate_increaseB8ue170006Em, symObjAddr: 0x1AAC8, symBinAddr: 0x10001B784, symSize: 0x2CC }
  - { offsetInCU: 0x1EE60, offset: 0x1EE60, size: 0x8, addend: 0x0, symName: __ZNKSt3__16vectorINS_5arrayIbLm2EEENS_9allocatorIS2_EEE4sizeB8ue170006Ev, symObjAddr: 0x1AD94, symBinAddr: 0x10001BA50, symSize: 0x8C }
  - { offsetInCU: 0x1EE87, offset: 0x1EE87, size: 0x8, addend: 0x0, symName: __ZNKSt3__16vectorINS_5arrayIbLm2EEENS_9allocatorIS2_EEE17__annotate_shrinkB8ue170006Em, symObjAddr: 0x1B034, symBinAddr: 0x10001BCF0, symSize: 0x254 }
  - { offsetInCU: 0x1EFEB, offset: 0x1EFEB, size: 0x8, addend: 0x0, symName: __ZNSt3__16vectorINS_5arrayIbLm2EEENS_9allocatorIS2_EEE22__base_destruct_at_endB8ue170006EPS2_, symObjAddr: 0x1B814, symBinAddr: 0x10001C4D0, symSize: 0xE8 }
  - { offsetInCU: 0x1F046, offset: 0x1F046, size: 0x8, addend: 0x0, symName: __ZNKSt3__16vectorINS_5arrayIbLm2EEENS_9allocatorIS2_EEE17__annotate_deleteB8ue170006Ev, symObjAddr: 0x1B5AC, symBinAddr: 0x10001C268, symSize: 0x268 }
  - { offsetInCU: 0x1F202, offset: 0x1F202, size: 0x8, addend: 0x0, symName: __ZNSt3__117__compressed_pairIPNS_6vectorINS_5arrayIbLm2EEENS_9allocatorIS3_EEEENS4_IS6_EEEC2B8ue170006IDnNS_18__default_init_tagEEEOT_OT0_, symObjAddr: 0x1C184, symBinAddr: 0x10001CE40, symSize: 0xB0 }
  - { offsetInCU: 0x1F281, offset: 0x1F281, size: 0x8, addend: 0x0, symName: __ZNSt3__16vectorINS0_INS_5arrayIbLm2EEENS_9allocatorIS2_EEEENS3_IS5_EEE11__vallocateB8ue170006Em, symObjAddr: 0x1BC3C, symBinAddr: 0x10001C8F8, symSize: 0x1BC }
  - { offsetInCU: 0x1F36C, offset: 0x1F36C, size: 0x8, addend: 0x0, symName: __ZNSt3__16vectorINS0_INS_5arrayIbLm2EEENS_9allocatorIS2_EEEENS3_IS5_EEE18__construct_at_endEmRKS5_, symObjAddr: 0x1BDF8, symBinAddr: 0x10001CAB4, symSize: 0x344 }
  - { offsetInCU: 0x1F4C1, offset: 0x1F4C1, size: 0x8, addend: 0x0, symName: __ZNSt3__128__exception_guard_exceptionsINS_6vectorINS1_INS_5arrayIbLm2EEENS_9allocatorIS3_EEEENS4_IS6_EEE16__destroy_vectorEED2B8ue170006Ev, symObjAddr: 0x1DE34, symBinAddr: 0x10001EAF0, symSize: 0xE4 }
  - { offsetInCU: 0x1F500, offset: 0x1F500, size: 0x8, addend: 0x0, symName: __ZNSt3__128__exception_guard_exceptionsINS_6vectorINS1_INS_5arrayIbLm2EEENS_9allocatorIS3_EEEENS4_IS6_EEE16__destroy_vectorEED1B8ue170006Ev, symObjAddr: 0x1C13C, symBinAddr: 0x10001CDF8, symSize: 0x48 }
  - { offsetInCU: 0x1F564, offset: 0x1F564, size: 0x8, addend: 0x0, symName: __ZNKSt3__16vectorINS0_INS_5arrayIbLm2EEENS_9allocatorIS2_EEEENS3_IS5_EEE7__allocB8ue170006Ev, symObjAddr: 0x1C660, symBinAddr: 0x10001D31C, symSize: 0x70 }
  - { offsetInCU: 0x1F599, offset: 0x1F599, size: 0x8, addend: 0x0, symName: __ZNSt3__16vectorINS0_INS_5arrayIbLm2EEENS_9allocatorIS2_EEEENS3_IS5_EEE7__allocB8ue170006Ev, symObjAddr: 0x1C348, symBinAddr: 0x10001D004, symSize: 0x70 }
  - { offsetInCU: 0x1F5C9, offset: 0x1F5C9, size: 0x8, addend: 0x0, symName: __ZNSt3__117__compressed_pairIPNS_6vectorINS_5arrayIbLm2EEENS_9allocatorIS3_EEEENS4_IS6_EEE5firstB8ue170006Ev, symObjAddr: 0x1C878, symBinAddr: 0x10001D534, symSize: 0xCC }
  - { offsetInCU: 0x1F60D, offset: 0x1F60D, size: 0x8, addend: 0x0, symName: __ZNKSt3__16vectorINS0_INS_5arrayIbLm2EEENS_9allocatorIS2_EEEENS3_IS5_EEE14__annotate_newB8ue170006Em, symObjAddr: 0x1C3B8, symBinAddr: 0x10001D074, symSize: 0x2A8 }
  - { offsetInCU: 0x1F703, offset: 0x1F703, size: 0x8, addend: 0x0, symName: __ZNKSt3__16vectorINS0_INS_5arrayIbLm2EEENS_9allocatorIS2_EEEENS3_IS5_EEE20__throw_length_errorB8ue170006Ev, symObjAddr: 0x1C2B0, symBinAddr: 0x10001CF6C, symSize: 0x44 }
  - { offsetInCU: 0x1F7BB, offset: 0x1F7BB, size: 0x8, addend: 0x0, symName: __ZNSt3__16vectorINS0_INS_5arrayIbLm2EEENS_9allocatorIS2_EEEENS3_IS5_EEE21_ConstructTransactionC2B8ue170006ERS7_m, symObjAddr: 0x1CBB4, symBinAddr: 0x10001D870, symSize: 0x1A4 }
  - { offsetInCU: 0x1F813, offset: 0x1F813, size: 0x8, addend: 0x0, symName: __ZNSt3__117__compressed_pairIPNS_6vectorINS_5arrayIbLm2EEENS_9allocatorIS3_EEEENS4_IS6_EEE6secondB8ue170006Ev, symObjAddr: 0x1C7A4, symBinAddr: 0x10001D460, symSize: 0xD4 }
  - { offsetInCU: 0x1F856, offset: 0x1F856, size: 0x8, addend: 0x0, symName: __ZNSt3__116allocator_traitsINS_9allocatorINS_6vectorINS_5arrayIbLm2EEENS1_IS4_EEEEEEE9constructB8ue170006IS6_JRKS6_EvEEvRS7_PT_DpOT0_, symObjAddr: 0x1CB18, symBinAddr: 0x10001D7D4, symSize: 0x54 }
  - { offsetInCU: 0x1F8FC, offset: 0x1F8FC, size: 0x8, addend: 0x0, symName: __ZNSt3__16vectorINS0_INS_5arrayIbLm2EEENS_9allocatorIS2_EEEENS3_IS5_EEE21_ConstructTransactionD2B8ue170006Ev, symObjAddr: 0x1D990, symBinAddr: 0x10001E64C, symSize: 0x220 }
  - { offsetInCU: 0x1F934, offset: 0x1F934, size: 0x8, addend: 0x0, symName: __ZNSt3__16vectorINS0_INS_5arrayIbLm2EEENS_9allocatorIS2_EEEENS3_IS5_EEE21_ConstructTransactionD1B8ue170006Ev, symObjAddr: 0x1CB6C, symBinAddr: 0x10001D828, symSize: 0x48 }
  - { offsetInCU: 0x1F993, offset: 0x1F993, size: 0x8, addend: 0x0, symName: __ZNSt3__122__compressed_pair_elemINS_9allocatorINS_6vectorINS_5arrayIbLm2EEENS1_IS4_EEEEEELi1ELb1EEC2B8ue170006ENS_18__default_init_tagE, symObjAddr: 0x1C234, symBinAddr: 0x10001CEF0, symSize: 0x7C }
  - { offsetInCU: 0x1FABE, offset: 0x1FABE, size: 0x8, addend: 0x0, symName: __ZNKSt3__16vectorINS0_INS_5arrayIbLm2EEENS_9allocatorIS2_EEEENS3_IS5_EEE8capacityB8ue170006Ev, symObjAddr: 0x1C944, symBinAddr: 0x10001D600, symSize: 0x98 }
  - { offsetInCU: 0x1FAF9, offset: 0x1FAF9, size: 0x8, addend: 0x0, symName: __ZNKSt3__117__compressed_pairIPNS_6vectorINS_5arrayIbLm2EEENS_9allocatorIS3_EEEENS4_IS6_EEE6secondB8ue170006Ev, symObjAddr: 0x1C6D0, symBinAddr: 0x10001D38C, symSize: 0xD4 }
  - { offsetInCU: 0x1FB84, offset: 0x1FB84, size: 0x8, addend: 0x0, symName: __ZNKSt3__16vectorINS0_INS_5arrayIbLm2EEENS_9allocatorIS2_EEEENS3_IS5_EEE9__end_capB8ue170006Ev, symObjAddr: 0x1C9DC, symBinAddr: 0x10001D698, symSize: 0x70 }
  - { offsetInCU: 0x1FBB9, offset: 0x1FBB9, size: 0x8, addend: 0x0, symName: __ZNKSt3__117__compressed_pairIPNS_6vectorINS_5arrayIbLm2EEENS_9allocatorIS3_EEEENS4_IS6_EEE5firstB8ue170006Ev, symObjAddr: 0x1CA4C, symBinAddr: 0x10001D708, symSize: 0xCC }
  - { offsetInCU: 0x1FC81, offset: 0x1FC81, size: 0x8, addend: 0x0, symName: __ZNSt3__16vectorINS_5arrayIbLm2EEENS_9allocatorIS2_EEEC2ERKS5_, symObjAddr: 0x1D0FC, symBinAddr: 0x10001DDB8, symSize: 0x240 }
  - { offsetInCU: 0x1FD60, offset: 0x1FD60, size: 0x8, addend: 0x0, symName: __ZNKSt3__16vectorINS0_INS_5arrayIbLm2EEENS_9allocatorIS2_EEEENS3_IS5_EEE19__annotate_increaseB8ue170006Em, symObjAddr: 0x1CD58, symBinAddr: 0x10001DA14, symSize: 0x30C }
  - { offsetInCU: 0x1FE6A, offset: 0x1FE6A, size: 0x8, addend: 0x0, symName: __ZNKSt3__16vectorINS0_INS_5arrayIbLm2EEENS_9allocatorIS2_EEEENS3_IS5_EEE4sizeB8ue170006Ev, symObjAddr: 0x1D064, symBinAddr: 0x10001DD20, symSize: 0x98 }
  - { offsetInCU: 0x1FEEF, offset: 0x1FEEF, size: 0x8, addend: 0x0, symName: __ZNSt3__117__compressed_pairIPNS_5arrayIbLm2EEENS_9allocatorIS2_EEEC2B8ue170006IDnS5_EEOT_OT0_, symObjAddr: 0x1D5F0, symBinAddr: 0x10001E2AC, symSize: 0xB0 }
  - { offsetInCU: 0x1FF60, offset: 0x1FF60, size: 0x8, addend: 0x0, symName: __ZNSt3__16vectorINS_5arrayIbLm2EEENS_9allocatorIS2_EEE16__init_with_sizeB8ue170006IPS2_S7_EEvT_T0_m, symObjAddr: 0x1D33C, symBinAddr: 0x10001DFF8, symSize: 0x2B4 }
  - { offsetInCU: 0x200A7, offset: 0x200A7, size: 0x8, addend: 0x0, symName: __ZNSt3__16vectorINS_5arrayIbLm2EEENS_9allocatorIS2_EEE18__construct_at_endIPS2_S7_EEvT_T0_m, symObjAddr: 0x1D6A0, symBinAddr: 0x10001E35C, symSize: 0x2F0 }
  - { offsetInCU: 0x2047C, offset: 0x2047C, size: 0x8, addend: 0x0, symName: __ZNKSt3__16vectorINS0_INS_5arrayIbLm2EEENS_9allocatorIS2_EEEENS3_IS5_EEE17__annotate_shrinkB8ue170006Em, symObjAddr: 0x1DBB0, symBinAddr: 0x10001E86C, symSize: 0x284 }
  - { offsetInCU: 0x205E0, offset: 0x205E0, size: 0x8, addend: 0x0, symName: __ZNSt3__16vectorINS0_INS_5arrayIbLm2EEENS_9allocatorIS2_EEEENS3_IS5_EEE22__base_destruct_at_endB8ue170006EPS5_, symObjAddr: 0x1E3F0, symBinAddr: 0x10001F0AC, symSize: 0x100 }
  - { offsetInCU: 0x20673, offset: 0x20673, size: 0x8, addend: 0x0, symName: __ZNKSt3__16vectorINS0_INS_5arrayIbLm2EEENS_9allocatorIS2_EEEENS3_IS5_EEE17__annotate_deleteB8ue170006Ev, symObjAddr: 0x1E158, symBinAddr: 0x10001EE14, symSize: 0x298 }
  - { offsetInCU: 0x20797, offset: 0x20797, size: 0x8, addend: 0x0, symName: __ZNSt3__19allocatorINS_6vectorINS_5arrayIbLm2EEENS0_IS3_EEEEE7destroyB8ue170006EPS5_, symObjAddr: 0x1E4F0, symBinAddr: 0x10001F1AC, symSize: 0x1D4 }
  - { offsetInCU: 0x2081F, offset: 0x2081F, size: 0x8, addend: 0x0, symName: __ZNKSt3__15dequeI4vertNS_9allocatorIS1_EEE23__annotate_shrink_frontB8ue170006Emm, symObjAddr: 0x1EB14, symBinAddr: 0x10001F7D0, symSize: 0xA0 }
  - { offsetInCU: 0x208B5, offset: 0x208B5, size: 0x8, addend: 0x0, symName: __ZNSt3__15dequeI4vertNS_9allocatorIS1_EEE26__maybe_remove_front_spareB8ue170006Eb, symObjAddr: 0x1EBB4, symBinAddr: 0x10001F870, symSize: 0x164 }
  - { offsetInCU: 0x20A10, offset: 0x20A10, size: 0x8, addend: 0x0, symName: __ZNKSt3__15dequeI4vertNS_9allocatorIS1_EEE20__front_spare_blocksB8ue170006Ev, symObjAddr: 0x1ED18, symBinAddr: 0x10001F9D4, symSize: 0x80 }
  - { offsetInCU: 0x20A4E, offset: 0x20A4E, size: 0x8, addend: 0x0, symName: __ZNSt3__15dequeI4vertNS_9allocatorIS1_EEE19__add_back_capacityEv, symObjAddr: 0x203D8, symBinAddr: 0x100021094, symSize: 0xAE0 }
  - { offsetInCU: 0x21212, offset: 0x21212, size: 0x8, addend: 0x0, symName: __ZNSt3__110unique_ptrIP4vertNS_22__allocator_destructorINS_9allocatorIS1_EEEEEC1B8ue170006ILb1EvEES2_NS_16__dependent_typeINS_27__unique_ptr_deleter_sfinaeIS6_EEXT_EE20__good_rval_ref_typeE, symObjAddr: 0x20EB8, symBinAddr: 0x100021B74, symSize: 0x20C }
  - { offsetInCU: 0x212C8, offset: 0x212C8, size: 0x8, addend: 0x0, symName: __ZNKSt3__117__compressed_pairIP4vertNS_22__allocator_destructorINS_9allocatorIS1_EEEEE5firstB8ue170006Ev, symObjAddr: 0x212E4, symBinAddr: 0x100021FA0, symSize: 0xCC }
  - { offsetInCU: 0x2130C, offset: 0x2130C, size: 0x8, addend: 0x0, symName: __ZNSt3__110unique_ptrIP4vertNS_22__allocator_destructorINS_9allocatorIS1_EEEEE7releaseB8ue170006Ev, symObjAddr: 0x210C4, symBinAddr: 0x100021D80, symSize: 0xC0 }
  - { offsetInCU: 0x2136B, offset: 0x2136B, size: 0x8, addend: 0x0, symName: __ZNSt3__110unique_ptrIP4vertNS_22__allocator_destructorINS_9allocatorIS1_EEEEE5resetB8ue170006ES2_, symObjAddr: 0x2147C, symBinAddr: 0x100022138, symSize: 0x104 }
  - { offsetInCU: 0x21402, offset: 0x21402, size: 0x8, addend: 0x0, symName: __ZNSt3__110unique_ptrIP4vertNS_22__allocator_destructorINS_9allocatorIS1_EEEEED1B8ue170006Ev, symObjAddr: 0x21184, symBinAddr: 0x100021E40, symSize: 0x5C }
  - { offsetInCU: 0x214D1, offset: 0x214D1, size: 0x8, addend: 0x0, symName: __ZNSt3__117__compressed_pairIP4vertNS_22__allocator_destructorINS_9allocatorIS1_EEEEEC2B8ue170006IRS2_S6_EEOT_OT0_, symObjAddr: 0x211E0, symBinAddr: 0x100021E9C, symSize: 0x104 }
  - { offsetInCU: 0x2156A, offset: 0x2156A, size: 0x8, addend: 0x0, symName: __ZNSt3__117__compressed_pairIP4vertNS_22__allocator_destructorINS_9allocatorIS1_EEEEE5firstB8ue170006Ev, symObjAddr: 0x213B0, symBinAddr: 0x10002206C, symSize: 0xCC }
  - { offsetInCU: 0x2163E, offset: 0x2163E, size: 0x8, addend: 0x0, symName: __ZNSt3__117__compressed_pairIP4vertNS_22__allocator_destructorINS_9allocatorIS1_EEEEE6secondB8ue170006Ev, symObjAddr: 0x21580, symBinAddr: 0x10002223C, symSize: 0xB0 }
  - { offsetInCU: 0x21682, offset: 0x21682, size: 0x8, addend: 0x0, symName: __ZNSt3__122__allocator_destructorINS_9allocatorI4vertEEEclB8ue170006EPS2_, symObjAddr: 0x21630, symBinAddr: 0x1000222EC, symSize: 0x98 }
...
