---
triple:          'arm64-apple-darwin'
binary-path:     '/Users/eric/Workspace/compprog/codeforces/contest/922virtual/B_Minimize_Inversions.bin'
relocations:
  - { offsetInCU: 0x3B, offset: 0x3B, size: 0x8, addend: 0x0, symName: _.str, symObjAddr: 0xE980, symBinAddr: 0x1000125A0, symSize: 0x0 }
  - { offsetInCU: 0x6B, offset: 0x6B, size: 0x8, addend: 0x0, symName: _.str.1, symObjAddr: 0xE9A0, symBinAddr: 0x1000125C0, symSize: 0x0 }
  - { offsetInCU: 0x7C, offset: 0x7C, size: 0x8, addend: 0x0, symName: _.str.2, symObjAddr: 0xE9C0, symBinAddr: 0x1000125E0, symSize: 0x0 }
  - { offsetInCU: 0x8D, offset: 0x8D, size: 0x8, addend: 0x0, symName: _.str.3, symObjAddr: 0xCC80, symBinAddr: 0x100010880, symSize: 0x0 }
  - { offsetInCU: 0xAA, offset: 0xAA, size: 0x8, addend: 0x0, symName: _.str.4, symObjAddr: 0xE9E0, symBinAddr: 0x100012600, symSize: 0x0 }
  - { offsetInCU: 0xBC, offset: 0xBC, size: 0x8, addend: 0x0, symName: _.str.14, symObjAddr: 0xEA00, symBinAddr: 0x100012620, symSize: 0x0 }
  - { offsetInCU: 0xDA, offset: 0xDA, size: 0x8, addend: 0x0, symName: _.str.27, symObjAddr: 0xEA20, symBinAddr: 0x100012640, symSize: 0x0 }
  - { offsetInCU: 0x33B2, offset: 0x33B2, size: 0x8, addend: 0x0, symName: __ZNSt3__124__put_character_sequenceB8ue170006IcNS_11char_traitsIcEEEERNS_13basic_ostreamIT_T0_EES7_PKS4_m, symObjAddr: 0x26B4, symBinAddr: 0x100005F98, symSize: 0x910 }
  - { offsetInCU: 0x67D8, offset: 0x67D8, size: 0x8, addend: 0x0, symName: '__ZNSt3__111__introsortINS_17_ClassicAlgPolicyERZ5solvevE3$_0PNS_4pairIiiEELb0EEEvT1_S7_T0_NS_15iterator_traitsIS7_E15difference_typeEb', symObjAddr: 0x7200, symBinAddr: 0x10000AAE4, symSize: 0x36A4 }
  - { offsetInCU: 0x7114, offset: 0x7114, size: 0x8, addend: 0x0, symName: '__ZNSt3__127__insertion_sort_incompleteB8ue170006INS_17_ClassicAlgPolicyERZ5solvevE3$_0PNS_4pairIiiEEEEbT1_S7_T0_', symObjAddr: 0xB594, symBinAddr: 0x10000EE78, symSize: 0xAB8 }
  - { offsetInCU: 0x7F98, offset: 0x7F98, size: 0x8, addend: 0x0, symName: __ZNSt3__1lsB8ue170006IcNS_11char_traitsIcEENS_9allocatorIcEEEERNS_13basic_ostreamIT_T0_EES9_RKNS_12basic_stringIS6_S7_T1_EE, symObjAddr: 0xB8C, symBinAddr: 0x100004470, symSize: 0x48 }
  - { offsetInCU: 0x8052, offset: 0x8052, size: 0x8, addend: 0x0, symName: __ZNSt3__1neB8ue170006ERKNS_14__bit_iteratorINS_6vectorIbNS_9allocatorIbEEEELb0ELm0EEES7_, symObjAddr: 0x1104, symBinAddr: 0x1000049E8, symSize: 0xC4 }
  - { offsetInCU: 0x81FA, offset: 0x81FA, size: 0x8, addend: 0x0, symName: __ZNSt3__116__pad_and_outputB8ue170006IcNS_11char_traitsIcEEEENS_19ostreambuf_iteratorIT_T0_EES6_PKS4_S8_S8_RNS_8ios_baseES4_, symObjAddr: 0x2FC4, symBinAddr: 0x1000068A8, symSize: 0x800 }
  - { offsetInCU: 0x8459, offset: 0x8459, size: 0x8, addend: 0x0, symName: __ZNSt3__120__throw_length_errorB8ue170006EPKc, symObjAddr: 0x3E20, symBinAddr: 0x100007704, symSize: 0x78 }
  - { offsetInCU: 0x8936, offset: 0x8936, size: 0x8, addend: 0x0, symName: __ZNSt3__19use_facetB8ue170006INS_5ctypeIcEEEERKT_RKNS_6localeE, symObjAddr: 0x4970, symBinAddr: 0x100008254, symSize: 0x100 }
  - { offsetInCU: 0x8991, offset: 0x8991, size: 0x8, addend: 0x0, symName: __ZNSt3__119__allocate_at_leastB8ue170006INS_9allocatorINS_4pairIiiEEEEEENS_19__allocation_resultINS_16allocator_traitsIT_E7pointerEEERS7_m, symObjAddr: 0x5A3C, symBinAddr: 0x100009320, symSize: 0x44 }
  - { offsetInCU: 0x93DF, offset: 0x93DF, size: 0x8, addend: 0x0, symName: '__ZNSt3__17__sort3B8ue170006INS_17_ClassicAlgPolicyERZ5solvevE3$_0PNS_4pairIiiEEEEjT1_S7_S7_T0_', symObjAddr: 0xAFB4, symBinAddr: 0x10000E898, symSize: 0x534 }
  - { offsetInCU: 0x94DF, offset: 0x94DF, size: 0x8, addend: 0x0, symName: '__ZNSt3__124__sort5_maybe_branchlessB8ue170006INS_17_ClassicAlgPolicyERZ5solvevE3$_0PNS_4pairIiiEEEENS_9enable_ifIXntsr21__use_branchless_sortIT0_T1_EE5valueEvE4typeES9_S9_S9_S9_S9_S8_', symObjAddr: 0xA950, symBinAddr: 0x10000E234, symSize: 0x664 }
  - { offsetInCU: 0x9633, offset: 0x9633, size: 0x8, addend: 0x0, symName: '__ZNSt3__17__sort4B8ue170006INS_17_ClassicAlgPolicyERZ5solvevE3$_0PNS_4pairIiiEEEEvT1_S7_S7_S7_T0_', symObjAddr: 0xC230, symBinAddr: 0x10000FB14, symSize: 0x504 }
  - { offsetInCU: 0x9BB5, offset: 0x9BB5, size: 0x8, addend: 0x0, symName: __ZSt28__throw_bad_array_new_lengthB8ue170006v, symObjAddr: 0x4010, symBinAddr: 0x1000078F4, symSize: 0x5C }
  - { offsetInCU: 0xC991, offset: 0xC991, size: 0x8, addend: 0x0, symName: __ZN14__DEBUG_UTIL__5printEPKc, symObjAddr: 0x0, symBinAddr: 0x1000038E4, symSize: 0x30 }
  - { offsetInCU: 0xCA1D, offset: 0xCA1D, size: 0x8, addend: 0x0, symName: __ZN14__DEBUG_UTIL__5printEb, symObjAddr: 0x30, symBinAddr: 0x100003914, symSize: 0x28 }
  - { offsetInCU: 0xCA78, offset: 0xCA78, size: 0x8, addend: 0x0, symName: __ZN14__DEBUG_UTIL__5printEc, symObjAddr: 0x58, symBinAddr: 0x10000393C, symSize: 0x21C }
  - { offsetInCU: 0xCB4F, offset: 0xCB4F, size: 0x8, addend: 0x0, symName: __ZN14__DEBUG_UTIL__5printEs, symObjAddr: 0x274, symBinAddr: 0x100003B58, symSize: 0xA8 }
  - { offsetInCU: 0xCB79, offset: 0xCB79, size: 0x8, addend: 0x0, symName: __ZN14__DEBUG_UTIL__5printEt, symObjAddr: 0x31C, symBinAddr: 0x100003C00, symSize: 0xA8 }
  - { offsetInCU: 0xCBA3, offset: 0xCBA3, size: 0x8, addend: 0x0, symName: __ZN14__DEBUG_UTIL__5printEi, symObjAddr: 0x3C4, symBinAddr: 0x100003CA8, symSize: 0xA8 }
  - { offsetInCU: 0xCBCD, offset: 0xCBCD, size: 0x8, addend: 0x0, symName: __ZN14__DEBUG_UTIL__5printEj, symObjAddr: 0x46C, symBinAddr: 0x100003D50, symSize: 0xA8 }
  - { offsetInCU: 0xCBF7, offset: 0xCBF7, size: 0x8, addend: 0x0, symName: __ZN14__DEBUG_UTIL__5printEl, symObjAddr: 0x514, symBinAddr: 0x100003DF8, symSize: 0xA8 }
  - { offsetInCU: 0xCC21, offset: 0xCC21, size: 0x8, addend: 0x0, symName: __ZN14__DEBUG_UTIL__5printEm, symObjAddr: 0x5BC, symBinAddr: 0x100003EA0, symSize: 0xA8 }
  - { offsetInCU: 0xCC4B, offset: 0xCC4B, size: 0x8, addend: 0x0, symName: __ZN14__DEBUG_UTIL__5printEx, symObjAddr: 0x664, symBinAddr: 0x100003F48, symSize: 0xA8 }
  - { offsetInCU: 0xCC75, offset: 0xCC75, size: 0x8, addend: 0x0, symName: __ZN14__DEBUG_UTIL__5printEy, symObjAddr: 0x70C, symBinAddr: 0x100003FF0, symSize: 0xA8 }
  - { offsetInCU: 0xCC9F, offset: 0xCC9F, size: 0x8, addend: 0x0, symName: __ZN14__DEBUG_UTIL__5printEf, symObjAddr: 0x7B4, symBinAddr: 0x100004098, symSize: 0xA0 }
  - { offsetInCU: 0xCCC9, offset: 0xCCC9, size: 0x8, addend: 0x0, symName: __ZN14__DEBUG_UTIL__5printEd, symObjAddr: 0x854, symBinAddr: 0x100004138, symSize: 0xA0 }
  - { offsetInCU: 0xCCF3, offset: 0xCCF3, size: 0x8, addend: 0x0, symName: __ZN14__DEBUG_UTIL__5printEe, symObjAddr: 0x8F4, symBinAddr: 0x1000041D8, symSize: 0xA0 }
  - { offsetInCU: 0xCD1D, offset: 0xCD1D, size: 0x8, addend: 0x0, symName: __ZN14__DEBUG_UTIL__5printENSt3__112basic_stringIcNS0_11char_traitsIcEENS0_9allocatorIcEEEE, symObjAddr: 0x994, symBinAddr: 0x100004278, symSize: 0x1F8 }
  - { offsetInCU: 0xCDC8, offset: 0xCDC8, size: 0x8, addend: 0x0, symName: __ZN14__DEBUG_UTIL__5printENSt3__16vectorIbNS0_9allocatorIbEEEE, symObjAddr: 0xBD4, symBinAddr: 0x1000044B8, symSize: 0x4E4 }
  - { offsetInCU: 0xD038, offset: 0xD038, size: 0x8, addend: 0x0, symName: __ZN14__DEBUG_UTIL__7printerEPKc, symObjAddr: 0x1518, symBinAddr: 0x100004DFC, symSize: 0x4 }
  - { offsetInCU: 0xD05D, offset: 0xD05D, size: 0x8, addend: 0x0, symName: __ZN14__DEBUG_UTIL__10printerArrEPKc, symObjAddr: 0x151C, symBinAddr: 0x100004E00, symSize: 0x4 }
  - { offsetInCU: 0xD0B8, offset: 0xD0B8, size: 0x8, addend: 0x0, symName: __ZNKSt3__112basic_stringIcNS_11char_traitsIcEENS_9allocatorIcEEE13__get_pointerB8ue170006Ev, symObjAddr: 0x4C68, symBinAddr: 0x10000854C, symSize: 0x5C }
  - { offsetInCU: 0xD11B, offset: 0xD11B, size: 0x8, addend: 0x0, symName: __ZNKSt3__112basic_stringIcNS_11char_traitsIcEENS_9allocatorIcEEE4sizeB8ue170006Ev, symObjAddr: 0x4C0C, symBinAddr: 0x1000084F0, symSize: 0x5C }
  - { offsetInCU: 0xD23C, offset: 0xD23C, size: 0x8, addend: 0x0, symName: __ZNKSt3__114__bit_iteratorINS_6vectorIbNS_9allocatorIbEEEELb0ELm0EEdeB8ue170006Ev, symObjAddr: 0x11C8, symBinAddr: 0x100004AAC, symSize: 0xCC }
  - { offsetInCU: 0xD263, offset: 0xD263, size: 0x8, addend: 0x0, symName: __ZNKSt3__115__bit_referenceINS_6vectorIbNS_9allocatorIbEEEELb1EEcvbB8ue170006Ev, symObjAddr: 0x1294, symBinAddr: 0x100004B78, symSize: 0xE4 }
  - { offsetInCU: 0xD28A, offset: 0xD28A, size: 0x8, addend: 0x0, symName: __ZNSt3__114__bit_iteratorINS_6vectorIbNS_9allocatorIbEEEELb0ELm0EEppB8ue170006Ev, symObjAddr: 0x1378, symBinAddr: 0x100004C5C, symSize: 0x1A0 }
  - { offsetInCU: 0xD2B1, offset: 0xD2B1, size: 0x8, addend: 0x0, symName: __ZNSt3__16vectorIbNS_9allocatorIbEEE5beginB8ue170006Ev, symObjAddr: 0x10B8, symBinAddr: 0x10000499C, symSize: 0x4C }
  - { offsetInCU: 0xD2E6, offset: 0xD2E6, size: 0x8, addend: 0x0, symName: __ZNSt3__16vectorIbNS_9allocatorIbEEE11__make_iterB8ue170006Em, symObjAddr: 0x4ECC, symBinAddr: 0x1000087B0, symSize: 0x168 }
  - { offsetInCU: 0xD3E5, offset: 0xD3E5, size: 0x8, addend: 0x0, symName: __Z5solvev, symObjAddr: 0x1520, symBinAddr: 0x100004E04, symSize: 0xAC0 }
  - { offsetInCU: 0xD80F, offset: 0xD80F, size: 0x8, addend: 0x0, symName: __ZNSt3__16vectorINS_4pairIiiEENS_9allocatorIS2_EEEC2Em, symObjAddr: 0x5034, symBinAddr: 0x100008918, symSize: 0x338 }
  - { offsetInCU: 0xD967, offset: 0xD967, size: 0x8, addend: 0x0, symName: __ZNSt3__16vectorINS_4pairIiiEENS_9allocatorIS2_EEE16__destroy_vectorclB8ue170006Ev, symObjAddr: 0x6C68, symBinAddr: 0x10000A54C, symSize: 0x240 }
  - { offsetInCU: 0xDA95, offset: 0xDA95, size: 0x8, addend: 0x0, symName: __ZNSt3__16vectorINS_4pairIiiEENS_9allocatorIS2_EEED1B8ue170006Ev, symObjAddr: 0x1FE0, symBinAddr: 0x1000058C4, symSize: 0x1A0 }
  - { offsetInCU: 0xDAF6, offset: 0xDAF6, size: 0x8, addend: 0x0, symName: _main, symObjAddr: 0x2180, symBinAddr: 0x100005A64, symSize: 0x394 }
  - { offsetInCU: 0xDB54, offset: 0xDB54, size: 0x8, addend: 0x0, symName: __ZNSt3__19basic_iosIcNS_11char_traitsIcEEE3tieB8ue170006EPNS_13basic_ostreamIcS2_EE, symObjAddr: 0x2514, symBinAddr: 0x100005DF8, symSize: 0x1A0 }
  - { offsetInCU: 0xDC1F, offset: 0xDC1F, size: 0x8, addend: 0x0, symName: __ZNSt3__119ostreambuf_iteratorIcNS_11char_traitsIcEEEC2B8ue170006ERNS_13basic_ostreamIcS2_EE, symObjAddr: 0x42B8, symBinAddr: 0x100007B9C, symSize: 0x298 }
  - { offsetInCU: 0xDC7C, offset: 0xDC7C, size: 0x8, addend: 0x0, symName: __ZNKSt3__19basic_iosIcNS_11char_traitsIcEEE4fillB8ue170006Ev, symObjAddr: 0x37C4, symBinAddr: 0x1000070A8, symSize: 0x248 }
  - { offsetInCU: 0xDCBF, offset: 0xDCBF, size: 0x8, addend: 0x0, symName: __ZNSt3__19basic_iosIcNS_11char_traitsIcEEE8setstateB8ue170006Ej, symObjAddr: 0x3A0C, symBinAddr: 0x1000072F0, symSize: 0xFC }
  - { offsetInCU: 0xDDCE, offset: 0xDDCE, size: 0x8, addend: 0x0, symName: __ZNSt3__117__compressed_pairINS_12basic_stringIcNS_11char_traitsIcEENS_9allocatorIcEEE5__repES5_EC1B8ue170006INS_18__default_init_tagESA_EEOT_OT0_, symObjAddr: 0x3CB4, symBinAddr: 0x100007598, symSize: 0x98 }
  - { offsetInCU: 0xDE6B, offset: 0xDE6B, size: 0x8, addend: 0x0, symName: __ZNSt3__112basic_stringIcNS_11char_traitsIcEENS_9allocatorIcEEE13__get_pointerB8ue170006Ev, symObjAddr: 0x406C, symBinAddr: 0x100007950, symSize: 0x5C }
  - { offsetInCU: 0xDECE, offset: 0xDECE, size: 0x8, addend: 0x0, symName: __ZNSt3__18ios_base5widthB8ue170006El, symObjAddr: 0x3B14, symBinAddr: 0x1000073F8, symSize: 0x1A0 }
  - { offsetInCU: 0xDF17, offset: 0xDF17, size: 0x8, addend: 0x0, symName: __ZNKSt3__19basic_iosIcNS_11char_traitsIcEEE5widenB8ue170006Ec, symObjAddr: 0x4630, symBinAddr: 0x100007F14, symSize: 0x340 }
  - { offsetInCU: 0xDF9A, offset: 0xDF9A, size: 0x8, addend: 0x0, symName: __ZNSt3__18ios_base8setstateB8ue170006Ej, symObjAddr: 0x4A70, symBinAddr: 0x100008354, symSize: 0x19C }
  - { offsetInCU: 0xE037, offset: 0xE037, size: 0x8, addend: 0x0, symName: __ZNSt3__122__compressed_pair_elemINS_9allocatorIcEELi1ELb1EEC2B8ue170006ENS_18__default_init_tagE, symObjAddr: 0x3D4C, symBinAddr: 0x100007630, symSize: 0x7C }
  - { offsetInCU: 0xE0E6, offset: 0xE0E6, size: 0x8, addend: 0x0, symName: __ZNSt3__112basic_stringIcNS_11char_traitsIcEENS_9allocatorIcEEE19__get_short_pointerB8ue170006Ev, symObjAddr: 0x3DC8, symBinAddr: 0x1000076AC, symSize: 0x58 }
  - { offsetInCU: 0xE11B, offset: 0xE11B, size: 0x8, addend: 0x0, symName: __ZNSt3__117__compressed_pairINS_12basic_stringIcNS_11char_traitsIcEENS_9allocatorIcEEE5__repES5_E5firstB8ue170006Ev, symObjAddr: 0x3F44, symBinAddr: 0x100007828, symSize: 0xCC }
  - { offsetInCU: 0xE15F, offset: 0xE15F, size: 0x8, addend: 0x0, symName: __ZNSt12length_errorC1B8ue170006EPKc, symObjAddr: 0x3E98, symBinAddr: 0x10000777C, symSize: 0xAC }
  - { offsetInCU: 0xE1F9, offset: 0xE1F9, size: 0x8, addend: 0x0, symName: __ZNKSt3__112basic_stringIcNS_11char_traitsIcEENS_9allocatorIcEEE9__is_longB8ue170006Ev, symObjAddr: 0x40C8, symBinAddr: 0x1000079AC, symSize: 0x9C }
  - { offsetInCU: 0xE22D, offset: 0xE22D, size: 0x8, addend: 0x0, symName: __ZNSt3__112basic_stringIcNS_11char_traitsIcEENS_9allocatorIcEEE18__get_long_pointerB8ue170006Ev, symObjAddr: 0x4164, symBinAddr: 0x100007A48, symSize: 0x88 }
  - { offsetInCU: 0xE261, offset: 0xE261, size: 0x8, addend: 0x0, symName: __ZNKSt3__117__compressed_pairINS_12basic_stringIcNS_11char_traitsIcEENS_9allocatorIcEEE5__repES5_E5firstB8ue170006Ev, symObjAddr: 0x41EC, symBinAddr: 0x100007AD0, symSize: 0xCC }
  - { offsetInCU: 0xE2DF, offset: 0xE2DF, size: 0x8, addend: 0x0, symName: __ZNKSt3__18ios_base5rdbufB8ue170006Ev, symObjAddr: 0x4550, symBinAddr: 0x100007E34, symSize: 0xE0 }
  - { offsetInCU: 0xE36C, offset: 0xE36C, size: 0x8, addend: 0x0, symName: __ZNKSt3__112basic_stringIcNS_11char_traitsIcEENS_9allocatorIcEEE15__get_long_sizeB8ue170006Ev, symObjAddr: 0x4DA4, symBinAddr: 0x100008688, symSize: 0x8C }
  - { offsetInCU: 0xE3A0, offset: 0xE3A0, size: 0x8, addend: 0x0, symName: __ZNKSt3__112basic_stringIcNS_11char_traitsIcEENS_9allocatorIcEEE16__get_short_sizeB8ue170006Ev, symObjAddr: 0x4E30, symBinAddr: 0x100008714, symSize: 0x9C }
  - { offsetInCU: 0xE3D4, offset: 0xE3D4, size: 0x8, addend: 0x0, symName: __ZNKSt3__112basic_stringIcNS_11char_traitsIcEENS_9allocatorIcEEE18__get_long_pointerB8ue170006Ev, symObjAddr: 0x4CC4, symBinAddr: 0x1000085A8, symSize: 0x88 }
  - { offsetInCU: 0xE408, offset: 0xE408, size: 0x8, addend: 0x0, symName: __ZNKSt3__112basic_stringIcNS_11char_traitsIcEENS_9allocatorIcEEE19__get_short_pointerB8ue170006Ev, symObjAddr: 0x4D4C, symBinAddr: 0x100008630, symSize: 0x58 }
  - { offsetInCU: 0xE505, offset: 0xE505, size: 0x8, addend: 0x0, symName: __ZNSt3__117__compressed_pairIPNS_4pairIiiEENS_9allocatorIS2_EEEC2B8ue170006IDnNS_18__default_init_tagEEEOT_OT0_, symObjAddr: 0x58CC, symBinAddr: 0x1000091B0, symSize: 0xB0 }
  - { offsetInCU: 0xE584, offset: 0xE584, size: 0x8, addend: 0x0, symName: __ZNSt3__16vectorINS_4pairIiiEENS_9allocatorIS2_EEE11__vallocateB8ue170006Em, symObjAddr: 0x536C, symBinAddr: 0x100008C50, symSize: 0x1A0 }
  - { offsetInCU: 0xE66F, offset: 0xE66F, size: 0x8, addend: 0x0, symName: __ZNSt3__16vectorINS_4pairIiiEENS_9allocatorIS2_EEE18__construct_at_endEm, symObjAddr: 0x550C, symBinAddr: 0x100008DF0, symSize: 0x378 }
  - { offsetInCU: 0xE7DB, offset: 0xE7DB, size: 0x8, addend: 0x0, symName: __ZNSt3__128__exception_guard_exceptionsINS_6vectorINS_4pairIiiEENS_9allocatorIS3_EEE16__destroy_vectorEED2B8ue170006Ev, symObjAddr: 0x6B84, symBinAddr: 0x10000A468, symSize: 0xE4 }
  - { offsetInCU: 0xE81A, offset: 0xE81A, size: 0x8, addend: 0x0, symName: __ZNSt3__128__exception_guard_exceptionsINS_6vectorINS_4pairIiiEENS_9allocatorIS3_EEE16__destroy_vectorEED1B8ue170006Ev, symObjAddr: 0x5884, symBinAddr: 0x100009168, symSize: 0x48 }
  - { offsetInCU: 0xE87E, offset: 0xE87E, size: 0x8, addend: 0x0, symName: __ZNKSt3__16vectorINS_4pairIiiEENS_9allocatorIS2_EEE7__allocB8ue170006Ev, symObjAddr: 0x5D70, symBinAddr: 0x100009654, symSize: 0x70 }
  - { offsetInCU: 0xE8B3, offset: 0xE8B3, size: 0x8, addend: 0x0, symName: __ZNSt3__16vectorINS_4pairIiiEENS_9allocatorIS2_EEE7__allocB8ue170006Ev, symObjAddr: 0x5A80, symBinAddr: 0x100009364, symSize: 0x70 }
  - { offsetInCU: 0xE8E3, offset: 0xE8E3, size: 0x8, addend: 0x0, symName: __ZNSt3__117__compressed_pairIPNS_4pairIiiEENS_9allocatorIS2_EEE5firstB8ue170006Ev, symObjAddr: 0x5F88, symBinAddr: 0x10000986C, symSize: 0xCC }
  - { offsetInCU: 0xE927, offset: 0xE927, size: 0x8, addend: 0x0, symName: __ZNKSt3__16vectorINS_4pairIiiEENS_9allocatorIS2_EEE14__annotate_newB8ue170006Em, symObjAddr: 0x5AF0, symBinAddr: 0x1000093D4, symSize: 0x280 }
  - { offsetInCU: 0xEA1D, offset: 0xEA1D, size: 0x8, addend: 0x0, symName: __ZNKSt3__16vectorINS_4pairIiiEENS_9allocatorIS2_EEE20__throw_length_errorB8ue170006Ev, symObjAddr: 0x59F8, symBinAddr: 0x1000092DC, symSize: 0x44 }
  - { offsetInCU: 0xEB8D, offset: 0xEB8D, size: 0x8, addend: 0x0, symName: __ZNSt3__16vectorINS_4pairIiiEENS_9allocatorIS2_EEE21_ConstructTransactionC2B8ue170006ERS5_m, symObjAddr: 0x621C, symBinAddr: 0x100009B00, symSize: 0x194 }
  - { offsetInCU: 0xEBE5, offset: 0xEBE5, size: 0x8, addend: 0x0, symName: __ZNSt3__117__compressed_pairIPNS_4pairIiiEENS_9allocatorIS2_EEE6secondB8ue170006Ev, symObjAddr: 0x5EB4, symBinAddr: 0x100009798, symSize: 0xD4 }
  - { offsetInCU: 0xEC28, offset: 0xEC28, size: 0x8, addend: 0x0, symName: __ZNSt3__16vectorINS_4pairIiiEENS_9allocatorIS2_EEE21_ConstructTransactionD2B8ue170006Ev, symObjAddr: 0x6714, symBinAddr: 0x100009FF8, symSize: 0x214 }
  - { offsetInCU: 0xEC8F, offset: 0xEC8F, size: 0x8, addend: 0x0, symName: __ZNSt3__122__compressed_pair_elemINS_9allocatorINS_4pairIiiEEEELi1ELb1EEC2B8ue170006ENS_18__default_init_tagE, symObjAddr: 0x597C, symBinAddr: 0x100009260, symSize: 0x7C }
  - { offsetInCU: 0xEDBA, offset: 0xEDBA, size: 0x8, addend: 0x0, symName: __ZNKSt3__16vectorINS_4pairIiiEENS_9allocatorIS2_EEE8capacityB8ue170006Ev, symObjAddr: 0x6054, symBinAddr: 0x100009938, symSize: 0x8C }
  - { offsetInCU: 0xEDF5, offset: 0xEDF5, size: 0x8, addend: 0x0, symName: __ZNKSt3__117__compressed_pairIPNS_4pairIiiEENS_9allocatorIS2_EEE6secondB8ue170006Ev, symObjAddr: 0x5DE0, symBinAddr: 0x1000096C4, symSize: 0xD4 }
  - { offsetInCU: 0xEE80, offset: 0xEE80, size: 0x8, addend: 0x0, symName: __ZNKSt3__16vectorINS_4pairIiiEENS_9allocatorIS2_EEE9__end_capB8ue170006Ev, symObjAddr: 0x60E0, symBinAddr: 0x1000099C4, symSize: 0x70 }
  - { offsetInCU: 0xEEB5, offset: 0xEEB5, size: 0x8, addend: 0x0, symName: __ZNKSt3__117__compressed_pairIPNS_4pairIiiEENS_9allocatorIS2_EEE5firstB8ue170006Ev, symObjAddr: 0x6150, symBinAddr: 0x100009A34, symSize: 0xCC }
  - { offsetInCU: 0xEF15, offset: 0xEF15, size: 0x8, addend: 0x0, symName: __ZNKSt3__16vectorINS_4pairIiiEENS_9allocatorIS2_EEE19__annotate_increaseB8ue170006Em, symObjAddr: 0x63B0, symBinAddr: 0x100009C94, symSize: 0x2D8 }
  - { offsetInCU: 0xF01F, offset: 0xF01F, size: 0x8, addend: 0x0, symName: __ZNKSt3__16vectorINS_4pairIiiEENS_9allocatorIS2_EEE4sizeB8ue170006Ev, symObjAddr: 0x6688, symBinAddr: 0x100009F6C, symSize: 0x8C }
  - { offsetInCU: 0xF046, offset: 0xF046, size: 0x8, addend: 0x0, symName: __ZNKSt3__16vectorINS_4pairIiiEENS_9allocatorIS2_EEE17__annotate_shrinkB8ue170006Em, symObjAddr: 0x6928, symBinAddr: 0x10000A20C, symSize: 0x25C }
  - { offsetInCU: 0xF1AA, offset: 0xF1AA, size: 0x8, addend: 0x0, symName: __ZNSt3__16vectorINS_4pairIiiEENS_9allocatorIS2_EEE22__base_destruct_at_endB8ue170006EPS2_, symObjAddr: 0x7118, symBinAddr: 0x10000A9FC, symSize: 0xE8 }
  - { offsetInCU: 0xF205, offset: 0xF205, size: 0x8, addend: 0x0, symName: __ZNKSt3__16vectorINS_4pairIiiEENS_9allocatorIS2_EEE17__annotate_deleteB8ue170006Ev, symObjAddr: 0x6EA8, symBinAddr: 0x10000A78C, symSize: 0x270 }
  - { offsetInCU: 0xF33E, offset: 0xF33E, size: 0x8, addend: 0x0, symName: __ZNSt3__18_IterOpsINS_17_ClassicAlgPolicyEE9iter_swapB8ue170006IRPNS_4pairIiiEES6_EEvOT_OT0_, symObjAddr: 0xB4E8, symBinAddr: 0x10000EDCC, symSize: 0xAC }
  - { offsetInCU: 0xF3DB, offset: 0xF3DB, size: 0x8, addend: 0x0, symName: __ZNSt3__18_IterOpsINS_17_ClassicAlgPolicyEE9iter_swapB8ue170006IRPNS_4pairIiiEES7_EEvOT_OT0_, symObjAddr: 0xA8A4, symBinAddr: 0x10000E188, symSize: 0xAC }
  - { offsetInCU: 0xF478, offset: 0xF478, size: 0x8, addend: 0x0, symName: __ZNSt3__14pairIiiEaSB8ue170006EOS1_, symObjAddr: 0xC734, symBinAddr: 0x100010018, symSize: 0x138 }
  - { offsetInCU: 0xF4AF, offset: 0xF4AF, size: 0x8, addend: 0x0, symName: __ZNSt3__14pairIPNS0_IiiEEbEC1B8ue170006IRS2_RbLPv0EEEOT_OT0_, symObjAddr: 0xC86C, symBinAddr: 0x100010150, symSize: 0x130 }
  - { offsetInCU: 0xF538, offset: 0xF538, size: 0x8, addend: 0x0, symName: __ZNSt3__14pairIiiE4swapB8ue170006ERS1_, symObjAddr: 0xC04C, symBinAddr: 0x10000F930, symSize: 0x1E4 }
...
