---
triple:          'arm64-apple-darwin'
binary-path:     '/Users/eric/Workspace/compprog/codeforces/contest/978virtual/C_Gerrymandering.bin'
relocations:
  - { offsetInCU: 0x3B, offset: 0x3B, size: 0x8, addend: 0x0, symName: _.str, symObjAddr: 0x13F20, symBinAddr: 0x100015B80, symSize: 0x0 }
  - { offsetInCU: 0x6B, offset: 0x6B, size: 0x8, addend: 0x0, symName: _.str.1, symObjAddr: 0x13F40, symBinAddr: 0x100015BA0, symSize: 0x0 }
  - { offsetInCU: 0x7C, offset: 0x7C, size: 0x8, addend: 0x0, symName: _.str.2, symObjAddr: 0x13F60, symBinAddr: 0x100015BC0, symSize: 0x0 }
  - { offsetInCU: 0x8D, offset: 0x8D, size: 0x8, addend: 0x0, symName: _.str.3, symObjAddr: 0x10FE0, symBinAddr: 0x100012C20, symSize: 0x0 }
  - { offsetInCU: 0xAA, offset: 0xAA, size: 0x8, addend: 0x0, symName: _.str.4, symObjAddr: 0x13F80, symBinAddr: 0x100015BE0, symSize: 0x0 }
  - { offsetInCU: 0xBB, offset: 0xBB, size: 0x8, addend: 0x0, symName: _.str.6, symObjAddr: 0x13FA0, symBinAddr: 0x100015C00, symSize: 0x0 }
  - { offsetInCU: 0xD8, offset: 0xD8, size: 0x8, addend: 0x0, symName: _.str.7, symObjAddr: 0x13FC0, symBinAddr: 0x100015C20, symSize: 0x0 }
  - { offsetInCU: 0xE9, offset: 0xE9, size: 0x8, addend: 0x0, symName: _.str.8, symObjAddr: 0x13FE0, symBinAddr: 0x100015C40, symSize: 0x0 }
  - { offsetInCU: 0x106, offset: 0x106, size: 0x8, addend: 0x0, symName: _.str.9, symObjAddr: 0x14000, symBinAddr: 0x100015C60, symSize: 0x0 }
  - { offsetInCU: 0x117, offset: 0x117, size: 0x8, addend: 0x0, symName: _.str.10, symObjAddr: 0x14020, symBinAddr: 0x100015C80, symSize: 0x0 }
  - { offsetInCU: 0x128, offset: 0x128, size: 0x8, addend: 0x0, symName: _.str.11, symObjAddr: 0x14040, symBinAddr: 0x100015CA0, symSize: 0x0 }
  - { offsetInCU: 0x153, offset: 0x153, size: 0x8, addend: 0x0, symName: __ZNSt3__119piecewise_constructE, symObjAddr: 0x11408, symBinAddr: 0x100013048, symSize: 0x0 }
  - { offsetInCU: 0x60B4, offset: 0x60B4, size: 0x8, addend: 0x0, symName: __ZNSt3__124__put_character_sequenceB8ue170006IcNS_11char_traitsIcEEEERNS_13basic_ostreamIT_T0_EES7_PKS4_m, symObjAddr: 0xB628, symBinAddr: 0x10000CF88, symSize: 0x910 }
  - { offsetInCU: 0x8E6F, offset: 0x8E6F, size: 0x8, addend: 0x0, symName: __ZNSt3__1lsB8ue170006IcNS_11char_traitsIcEENS_9allocatorIcEEEERNS_13basic_ostreamIT_T0_EES9_RKNS_12basic_stringIS6_S7_T1_EE, symObjAddr: 0xB8C, symBinAddr: 0x1000024EC, symSize: 0x48 }
  - { offsetInCU: 0x8F29, offset: 0x8F29, size: 0x8, addend: 0x0, symName: __ZNSt3__1neB8ue170006ERKNS_14__bit_iteratorINS_6vectorIbNS_9allocatorIbEEEELb0ELm0EEES7_, symObjAddr: 0x1104, symBinAddr: 0x100002A64, symSize: 0xC4 }
  - { offsetInCU: 0x8FA9, offset: 0x8FA9, size: 0x8, addend: 0x0, symName: __ZNSt3__1rsB8ue170006IcNS_11char_traitsIcEENS_9allocatorIcEEEERNS_13basic_istreamIT_T0_EES9_RNS_12basic_stringIS6_S7_T1_EE, symObjAddr: 0x1B6C, symBinAddr: 0x1000034CC, symSize: 0xE9C }
  - { offsetInCU: 0x9776, offset: 0x9776, size: 0x8, addend: 0x0, symName: __ZNSt3__19use_facetB8ue170006INS_5ctypeIcEEEERKT_RKNS_6localeE, symObjAddr: 0xD5C8, symBinAddr: 0x10000EF28, symSize: 0x100 }
  - { offsetInCU: 0x9E11, offset: 0x9E11, size: 0x8, addend: 0x0, symName: __ZNSt3__127__tree_balance_after_insertB8ue170006IPNS_16__tree_node_baseIPvEEEEvT_S5_, symObjAddr: 0x874C, symBinAddr: 0x10000A0AC, symSize: 0x11B8 }
  - { offsetInCU: 0xA0EE, offset: 0xA0EE, size: 0x8, addend: 0x0, symName: __ZNSt3__119__tree_right_rotateB8ue170006IPNS_16__tree_node_baseIPvEEEEvT_, symObjAddr: 0x9F7C, symBinAddr: 0x10000B8DC, symSize: 0x834 }
  - { offsetInCU: 0xA1A0, offset: 0xA1A0, size: 0x8, addend: 0x0, symName: __ZNSt3__118__tree_left_rotateB8ue170006IPNS_16__tree_node_baseIPvEEEEvT_, symObjAddr: 0x9974, symBinAddr: 0x10000B2D4, symSize: 0x608 }
  - { offsetInCU: 0xA2E2, offset: 0xA2E2, size: 0x8, addend: 0x0, symName: __ZNSt3__116__pad_and_outputB8ue170006IcNS_11char_traitsIcEEEENS_19ostreambuf_iteratorIT_T0_EES6_PKS4_S8_S8_RNS_8ios_baseES4_, symObjAddr: 0xBF38, symBinAddr: 0x10000D898, symSize: 0x800 }
  - { offsetInCU: 0xA541, offset: 0xA541, size: 0x8, addend: 0x0, symName: __ZNSt3__1neB8ue170006ERKNS_14__map_iteratorINS_15__tree_iteratorINS_12__value_typeINS_4pairIiiEEiEEPNS_11__tree_nodeIS5_PvEElEEEESD_, symObjAddr: 0xF47C, symBinAddr: 0x100010DDC, symSize: 0x58 }
  - { offsetInCU: 0xA602, offset: 0xA602, size: 0x8, addend: 0x0, symName: __ZNSt3__116__tree_next_iterB8ue170006IPNS_15__tree_end_nodeIPNS_16__tree_node_baseIPvEEEES5_EET_T0_, symObjAddr: 0xFD38, symBinAddr: 0x100011698, symSize: 0x41C }
  - { offsetInCU: 0xA7F4, offset: 0xA7F4, size: 0x8, addend: 0x0, symName: _.str.31, symObjAddr: 0x14060, symBinAddr: 0x100015CC0, symSize: 0x0 }
  - { offsetInCU: 0xAC1D, offset: 0xAC1D, size: 0x8, addend: 0x0, symName: __Z5solvev, symObjAddr: 0x1520, symBinAddr: 0x100002E80, symSize: 0x64C }
  - { offsetInCU: 0xDCD4, offset: 0xDCD4, size: 0x8, addend: 0x0, symName: __ZN14__DEBUG_UTIL__5printEPKc, symObjAddr: 0x0, symBinAddr: 0x100001960, symSize: 0x30 }
  - { offsetInCU: 0xDD62, offset: 0xDD62, size: 0x8, addend: 0x0, symName: __ZN14__DEBUG_UTIL__5printEb, symObjAddr: 0x30, symBinAddr: 0x100001990, symSize: 0x28 }
  - { offsetInCU: 0xDDBE, offset: 0xDDBE, size: 0x8, addend: 0x0, symName: __ZN14__DEBUG_UTIL__5printEc, symObjAddr: 0x58, symBinAddr: 0x1000019B8, symSize: 0x21C }
  - { offsetInCU: 0xDE98, offset: 0xDE98, size: 0x8, addend: 0x0, symName: __ZN14__DEBUG_UTIL__5printEs, symObjAddr: 0x274, symBinAddr: 0x100001BD4, symSize: 0xA8 }
  - { offsetInCU: 0xDEC2, offset: 0xDEC2, size: 0x8, addend: 0x0, symName: __ZN14__DEBUG_UTIL__5printEt, symObjAddr: 0x31C, symBinAddr: 0x100001C7C, symSize: 0xA8 }
  - { offsetInCU: 0xDEEC, offset: 0xDEEC, size: 0x8, addend: 0x0, symName: __ZN14__DEBUG_UTIL__5printEi, symObjAddr: 0x3C4, symBinAddr: 0x100001D24, symSize: 0xA8 }
  - { offsetInCU: 0xDF0A, offset: 0xDF0A, size: 0x8, addend: 0x0, symName: __ZN14__DEBUG_UTIL__5printEj, symObjAddr: 0x46C, symBinAddr: 0x100001DCC, symSize: 0xA8 }
  - { offsetInCU: 0xDF34, offset: 0xDF34, size: 0x8, addend: 0x0, symName: __ZN14__DEBUG_UTIL__5printEl, symObjAddr: 0x514, symBinAddr: 0x100001E74, symSize: 0xA8 }
  - { offsetInCU: 0xDF5E, offset: 0xDF5E, size: 0x8, addend: 0x0, symName: __ZN14__DEBUG_UTIL__5printEm, symObjAddr: 0x5BC, symBinAddr: 0x100001F1C, symSize: 0xA8 }
  - { offsetInCU: 0xDF88, offset: 0xDF88, size: 0x8, addend: 0x0, symName: __ZN14__DEBUG_UTIL__5printEx, symObjAddr: 0x664, symBinAddr: 0x100001FC4, symSize: 0xA8 }
  - { offsetInCU: 0xDFB2, offset: 0xDFB2, size: 0x8, addend: 0x0, symName: __ZN14__DEBUG_UTIL__5printEy, symObjAddr: 0x70C, symBinAddr: 0x10000206C, symSize: 0xA8 }
  - { offsetInCU: 0xDFDC, offset: 0xDFDC, size: 0x8, addend: 0x0, symName: __ZN14__DEBUG_UTIL__5printEf, symObjAddr: 0x7B4, symBinAddr: 0x100002114, symSize: 0xA0 }
  - { offsetInCU: 0xE006, offset: 0xE006, size: 0x8, addend: 0x0, symName: __ZN14__DEBUG_UTIL__5printEd, symObjAddr: 0x854, symBinAddr: 0x1000021B4, symSize: 0xA0 }
  - { offsetInCU: 0xE030, offset: 0xE030, size: 0x8, addend: 0x0, symName: __ZN14__DEBUG_UTIL__5printEe, symObjAddr: 0x8F4, symBinAddr: 0x100002254, symSize: 0xA0 }
  - { offsetInCU: 0xE05A, offset: 0xE05A, size: 0x8, addend: 0x0, symName: __ZN14__DEBUG_UTIL__5printENSt3__112basic_stringIcNS0_11char_traitsIcEENS0_9allocatorIcEEEE, symObjAddr: 0x994, symBinAddr: 0x1000022F4, symSize: 0x1F8 }
  - { offsetInCU: 0xE107, offset: 0xE107, size: 0x8, addend: 0x0, symName: __ZN14__DEBUG_UTIL__5printENSt3__16vectorIbNS0_9allocatorIbEEEE, symObjAddr: 0xBD4, symBinAddr: 0x100002534, symSize: 0x4E4 }
  - { offsetInCU: 0xE37A, offset: 0xE37A, size: 0x8, addend: 0x0, symName: __ZN14__DEBUG_UTIL__7printerEPKc, symObjAddr: 0x1518, symBinAddr: 0x100002E78, symSize: 0x4 }
  - { offsetInCU: 0xE39F, offset: 0xE39F, size: 0x8, addend: 0x0, symName: __ZN14__DEBUG_UTIL__10printerArrEPKc, symObjAddr: 0x151C, symBinAddr: 0x100002E7C, symSize: 0x4 }
  - { offsetInCU: 0xE3C4, offset: 0xE3C4, size: 0x8, addend: 0x0, symName: __ZN14__DEBUG_UTIL__7printerIRNSt3__13mapINS1_4pairIiiEEiNS1_4lessIS4_EENS1_9allocatorINS3_IKS4_iEEEEEEJEEEvPKcOT_DpOT0_, symObjAddr: 0x2C10, symBinAddr: 0x100004570, symSize: 0x578 }
  - { offsetInCU: 0xE49B, offset: 0xE49B, size: 0x8, addend: 0x0, symName: __ZN14__DEBUG_UTIL__5printIRNSt3__13mapINS1_4pairIiiEEiNS1_4lessIS4_EENS1_9allocatorINS3_IKS4_iEEEEEEEEvOT_, symObjAddr: 0xF0D8, symBinAddr: 0x100010A38, symSize: 0x33C }
  - { offsetInCU: 0xE66B, offset: 0xE66B, size: 0x8, addend: 0x0, symName: __ZN14__DEBUG_UTIL__7printerIRiJS1_EEEvPKcOT_DpOT0_, symObjAddr: 0x5180, symBinAddr: 0x100006AE0, symSize: 0x8D0 }
  - { offsetInCU: 0xE78E, offset: 0xE78E, size: 0x8, addend: 0x0, symName: __ZN14__DEBUG_UTIL__7printerIRiJEEEvPKcOT_DpOT0_, symObjAddr: 0x5E30, symBinAddr: 0x100007790, symSize: 0x6AC }
  - { offsetInCU: 0xE867, offset: 0xE867, size: 0x8, addend: 0x0, symName: __ZN14__DEBUG_UTIL__5printIKNSt3__14pairIiiEEiEEvNS2_IT_T0_EE, symObjAddr: 0xF580, symBinAddr: 0x100010EE0, symSize: 0x2BC }
  - { offsetInCU: 0xE982, offset: 0xE982, size: 0x8, addend: 0x0, symName: __ZN14__DEBUG_UTIL__5printIiiEEvNSt3__14pairIT_T0_EE, symObjAddr: 0xF938, symBinAddr: 0x100011298, symSize: 0x328 }
  - { offsetInCU: 0xEAD7, offset: 0xEAD7, size: 0x8, addend: 0x0, symName: __ZNKSt3__112basic_stringIcNS_11char_traitsIcEENS_9allocatorIcEEE13__get_pointerB8ue170006Ev, symObjAddr: 0xD8C0, symBinAddr: 0x10000F220, symSize: 0x5C }
  - { offsetInCU: 0xEB3A, offset: 0xEB3A, size: 0x8, addend: 0x0, symName: __ZNKSt3__112basic_stringIcNS_11char_traitsIcEENS_9allocatorIcEEE4sizeB8ue170006Ev, symObjAddr: 0xD864, symBinAddr: 0x10000F1C4, symSize: 0x5C }
  - { offsetInCU: 0xEC5B, offset: 0xEC5B, size: 0x8, addend: 0x0, symName: __ZNKSt3__114__bit_iteratorINS_6vectorIbNS_9allocatorIbEEEELb0ELm0EEdeB8ue170006Ev, symObjAddr: 0x11C8, symBinAddr: 0x100002B28, symSize: 0xCC }
  - { offsetInCU: 0xEC82, offset: 0xEC82, size: 0x8, addend: 0x0, symName: __ZNKSt3__115__bit_referenceINS_6vectorIbNS_9allocatorIbEEEELb1EEcvbB8ue170006Ev, symObjAddr: 0x1294, symBinAddr: 0x100002BF4, symSize: 0xE4 }
  - { offsetInCU: 0xECA9, offset: 0xECA9, size: 0x8, addend: 0x0, symName: __ZNSt3__114__bit_iteratorINS_6vectorIbNS_9allocatorIbEEEELb0ELm0EEppB8ue170006Ev, symObjAddr: 0x1378, symBinAddr: 0x100002CD8, symSize: 0x1A0 }
  - { offsetInCU: 0xECD0, offset: 0xECD0, size: 0x8, addend: 0x0, symName: __ZNSt3__16vectorIbNS_9allocatorIbEEE5beginB8ue170006Ev, symObjAddr: 0x10B8, symBinAddr: 0x100002A18, symSize: 0x4C }
  - { offsetInCU: 0xED05, offset: 0xED05, size: 0x8, addend: 0x0, symName: __ZNSt3__16vectorIbNS_9allocatorIbEEE11__make_iterB8ue170006Em, symObjAddr: 0xDB24, symBinAddr: 0x10000F484, symSize: 0x168 }
  - { offsetInCU: 0xEEEC, offset: 0xEEEC, size: 0x8, addend: 0x0, symName: __ZNSt3__112basic_stringIcNS_11char_traitsIcEENS_9allocatorIcEEEC2B8ue170006Ev, symObjAddr: 0xB2F0, symBinAddr: 0x10000CC50, symSize: 0x224 }
  - { offsetInCU: 0xEF5C, offset: 0xEF5C, size: 0x8, addend: 0x0, symName: __ZNSt3__16__treeINS_12__value_typeINS_4pairIiiEEiEENS_19__map_value_compareIS3_S4_NS_4lessIS3_EELb1EEENS_9allocatorIS4_EEEC2ERKS8_, symObjAddr: 0xEA18, symBinAddr: 0x100010378, symSize: 0x258 }
  - { offsetInCU: 0xF02D, offset: 0xF02D, size: 0x8, addend: 0x0, symName: '__ZN12ycomb_resultIZ5solvevE3$_0EclIJiiEEEDcDpOT_', symObjAddr: 0x2A08, symBinAddr: 0x100004368, symSize: 0x208 }
  - { offsetInCU: 0xF08E, offset: 0xF08E, size: 0x8, addend: 0x0, symName: __ZNSt3__16__treeINS_12__value_typeINS_4pairIiiEEiEENS_19__map_value_compareIS3_S4_NS_4lessIS3_EELb1EEENS_9allocatorIS4_EEED1Ev, symObjAddr: 0xEEA4, symBinAddr: 0x100010804, symSize: 0x64 }
  - { offsetInCU: 0xF0FA, offset: 0xF0FA, size: 0x8, addend: 0x0, symName: __ZNSt3__13mapINS_4pairIiiEEiNS_4lessIS2_EENS_9allocatorINS1_IKS2_iEEEEED1B8ue170006Ev, symObjAddr: 0x3188, symBinAddr: 0x100004AE8, symSize: 0x58 }
  - { offsetInCU: 0xF239, offset: 0xF239, size: 0x8, addend: 0x0, symName: __ZNSt3__112basic_stringIcNS_11char_traitsIcEENS_9allocatorIcEEE5clearB8ue170006Ev, symObjAddr: 0xDC8C, symBinAddr: 0x10000F5EC, symSize: 0x124 }
  - { offsetInCU: 0xF2FE, offset: 0xF2FE, size: 0x8, addend: 0x0, symName: __ZNKSt3__112basic_stringIcNS_11char_traitsIcEENS_9allocatorIcEEE8max_sizeB8ue170006Ev, symObjAddr: 0xCC1C, symBinAddr: 0x10000E57C, symSize: 0x74 }
  - { offsetInCU: 0xF34F, offset: 0xF34F, size: 0x8, addend: 0x0, symName: __ZNKSt3__18ios_base5rdbufB8ue170006Ev, symObjAddr: 0xD1A8, symBinAddr: 0x10000EB08, symSize: 0xE0 }
  - { offsetInCU: 0xF376, offset: 0xF376, size: 0x8, addend: 0x0, symName: __ZNSt3__115basic_streambufIcNS_11char_traitsIcEEE5sgetcB8ue170006Ev, symObjAddr: 0xDDB0, symBinAddr: 0x10000F710, symSize: 0x308 }
  - { offsetInCU: 0xF3DC, offset: 0xF3DC, size: 0x8, addend: 0x0, symName: __ZNKSt3__15ctypeIcE2isB8ue170006Ejc, symObjAddr: 0xE0B8, symBinAddr: 0x10000FA18, symSize: 0x1C8 }
  - { offsetInCU: 0xF423, offset: 0xF423, size: 0x8, addend: 0x0, symName: __ZNSt3__115basic_streambufIcNS_11char_traitsIcEEE6sbumpcB8ue170006Ev, symObjAddr: 0xE280, symBinAddr: 0x10000FBE0, symSize: 0x370 }
  - { offsetInCU: 0xF456, offset: 0xF456, size: 0x8, addend: 0x0, symName: __ZNSt3__18ios_base5widthB8ue170006El, symObjAddr: 0xCA7C, symBinAddr: 0x10000E3DC, symSize: 0x1A0 }
  - { offsetInCU: 0xF49F, offset: 0xF49F, size: 0x8, addend: 0x0, symName: __ZNSt3__19basic_iosIcNS_11char_traitsIcEEE8setstateB8ue170006Ej, symObjAddr: 0xC980, symBinAddr: 0x10000E2E0, symSize: 0xFC }
  - { offsetInCU: 0xF4E4, offset: 0xF4E4, size: 0x8, addend: 0x0, symName: __ZNSt3__18ios_base18__setstate_nothrowB8ue170006Ej, symObjAddr: 0xE5F0, symBinAddr: 0x10000FF50, symSize: 0x234 }
  - { offsetInCU: 0xF51B, offset: 0xF51B, size: 0x8, addend: 0x0, symName: __ZNKSt3__19basic_iosIcNS_11char_traitsIcEEE10exceptionsB8ue170006Ev, symObjAddr: 0xE824, symBinAddr: 0x100010184, symSize: 0x1F4 }
  - { offsetInCU: 0xF56A, offset: 0xF56A, size: 0x8, addend: 0x0, symName: '__ZZ5solvevENK3$_0clINSt3__117reference_wrapperI12ycomb_resultIS_EEEEEiRKT_ii', symObjAddr: 0x3714, symBinAddr: 0x100005074, symSize: 0x1A6C }
  - { offsetInCU: 0xFB30, offset: 0xFB30, size: 0x8, addend: 0x0, symName: _main, symObjAddr: 0x31E0, symBinAddr: 0x100004B40, symSize: 0x394 }
  - { offsetInCU: 0xFB8E, offset: 0xFB8E, size: 0x8, addend: 0x0, symName: __ZNSt3__19basic_iosIcNS_11char_traitsIcEEE3tieB8ue170006EPNS_13basic_ostreamIcS2_EE, symObjAddr: 0x3574, symBinAddr: 0x100004ED4, symSize: 0x1A0 }
  - { offsetInCU: 0xFE28, offset: 0xFE28, size: 0x8, addend: 0x0, symName: __ZNSt3__13mapINS_4pairIiiEEiNS_4lessIS2_EENS_9allocatorINS1_IKS2_iEEEEEixERS6_, symObjAddr: 0x5A50, symBinAddr: 0x1000073B0, symSize: 0x264 }
  - { offsetInCU: 0xFEAF, offset: 0xFEAF, size: 0x8, addend: 0x0, symName: __ZNKSt3__16__treeINS_12__value_typeINS_4pairIiiEEiEENS_19__map_value_compareIS3_S4_NS_4lessIS3_EELb1EEENS_9allocatorIS4_EEE14__count_uniqueIS3_EEmRKT_, symObjAddr: 0xAC14, symBinAddr: 0x10000C574, symSize: 0x228 }
  - { offsetInCU: 0xFF7D, offset: 0xFF7D, size: 0x8, addend: 0x0, symName: __ZNSt3__112basic_stringIcNS_11char_traitsIcEENS_9allocatorIcEEEixB8ue170006Em, symObjAddr: 0x5CB4, symBinAddr: 0x100007614, symSize: 0xBC }
  - { offsetInCU: 0xFFC1, offset: 0xFFC1, size: 0x8, addend: 0x0, symName: '__ZNKSt3__117reference_wrapperI12ycomb_resultIZ5solvevE3$_0EEclB8ue170006IJiiEEENS_11__invoke_ofIRS3_JDpT_EE4typeEDpOS8_', symObjAddr: 0x5D70, symBinAddr: 0x1000076D0, symSize: 0xC0 }
  - { offsetInCU: 0x10093, offset: 0x10093, size: 0x8, addend: 0x0, symName: __ZNSt3__16__treeINS_12__value_typeINS_4pairIiiEEiEENS_19__map_value_compareIS3_S4_NS_4lessIS3_EELb1EEENS_9allocatorIS4_EEE25__emplace_unique_key_argsIS3_JRKNS_21piecewise_construct_tENS_5tupleIJRKS3_EEENSG_IJEEEEEENS2_INS_15__tree_iteratorIS4_PNS_11__tree_nodeIS4_PvEElEEbEERKT_DpOT0_, symObjAddr: 0x64DC, symBinAddr: 0x100007E3C, symSize: 0x2D8 }
  - { offsetInCU: 0x10286, offset: 0x10286, size: 0x8, addend: 0x0, symName: __ZNKSt3__115__tree_iteratorINS_12__value_typeINS_4pairIiiEEiEEPNS_11__tree_nodeIS4_PvEElEptB8ue170006Ev, symObjAddr: 0x67B4, symBinAddr: 0x100008114, symSize: 0xDC }
  - { offsetInCU: 0x102C4, offset: 0x102C4, size: 0x8, addend: 0x0, symName: __ZNSt3__112basic_stringIcNS_11char_traitsIcEENS_9allocatorIcEEE13__get_pointerB8ue170006Ev, symObjAddr: 0xAF80, symBinAddr: 0x10000C8E0, symSize: 0x5C }
  - { offsetInCU: 0x103CF, offset: 0x103CF, size: 0x8, addend: 0x0, symName: __ZNSt3__16__treeINS_12__value_typeINS_4pairIiiEEiEENS_19__map_value_compareIS3_S4_NS_4lessIS3_EELb1EEENS_9allocatorIS4_EEE12__find_equalIS3_EERPNS_16__tree_node_baseIPvEERPNS_15__tree_end_nodeISG_EERKT_, symObjAddr: 0x6890, symBinAddr: 0x1000081F0, symSize: 0x57C }
  - { offsetInCU: 0x104FC, offset: 0x104FC, size: 0x8, addend: 0x0, symName: __ZNSt3__16__treeINS_12__value_typeINS_4pairIiiEEiEENS_19__map_value_compareIS3_S4_NS_4lessIS3_EELb1EEENS_9allocatorIS4_EEE16__construct_nodeIJRKNS_21piecewise_construct_tENS_5tupleIJRKS3_EEENSG_IJEEEEEENS_10unique_ptrINS_11__tree_nodeIS4_PvEENS_22__tree_node_destructorINS9_ISO_EEEEEEDpOT_, symObjAddr: 0x6E0C, symBinAddr: 0x10000876C, symSize: 0x36C }
  - { offsetInCU: 0x1070D, offset: 0x1070D, size: 0x8, addend: 0x0, symName: __ZNKSt3__117__compressed_pairIPNS_11__tree_nodeINS_12__value_typeINS_4pairIiiEEiEEPvEENS_22__tree_node_destructorINS_9allocatorIS7_EEEEE5firstB8ue170006Ev, symObjAddr: 0x85D0, symBinAddr: 0x100009F30, symSize: 0xCC }
  - { offsetInCU: 0x10752, offset: 0x10752, size: 0x8, addend: 0x0, symName: __ZNSt3__16__treeINS_12__value_typeINS_4pairIiiEEiEENS_19__map_value_compareIS3_S4_NS_4lessIS3_EELb1EEENS_9allocatorIS4_EEE16__insert_node_atEPNS_15__tree_end_nodeIPNS_16__tree_node_baseIPvEEEERSG_SG_, symObjAddr: 0x7178, symBinAddr: 0x100008AD8, symSize: 0x4BC }
  - { offsetInCU: 0x10837, offset: 0x10837, size: 0x8, addend: 0x0, symName: __ZNSt3__110unique_ptrINS_11__tree_nodeINS_12__value_typeINS_4pairIiiEEiEEPvEENS_22__tree_node_destructorINS_9allocatorIS7_EEEEE7releaseB8ue170006Ev, symObjAddr: 0x7634, symBinAddr: 0x100008F94, symSize: 0xC0 }
  - { offsetInCU: 0x10896, offset: 0x10896, size: 0x8, addend: 0x0, symName: __ZNSt3__110unique_ptrINS_11__tree_nodeINS_12__value_typeINS_4pairIiiEEiEEPvEENS_22__tree_node_destructorINS_9allocatorIS7_EEEEE5resetB8ue170006EPS7_, symObjAddr: 0xA948, symBinAddr: 0x10000C2A8, symSize: 0x104 }
  - { offsetInCU: 0x10965, offset: 0x10965, size: 0x8, addend: 0x0, symName: __ZNKSt3__16__treeINS_12__value_typeINS_4pairIiiEEiEENS_19__map_value_compareIS3_S4_NS_4lessIS3_EELb1EEENS_9allocatorIS4_EEE6__rootB8ue170006Ev, symObjAddr: 0x7750, symBinAddr: 0x1000090B0, symSize: 0xE4 }
  - { offsetInCU: 0x10999, offset: 0x10999, size: 0x8, addend: 0x0, symName: __ZNKSt3__16__treeINS_12__value_typeINS_4pairIiiEEiEENS_19__map_value_compareIS3_S4_NS_4lessIS3_EELb1EEENS_9allocatorIS4_EEE10__end_nodeB8ue170006Ev, symObjAddr: 0x79BC, symBinAddr: 0x10000931C, symSize: 0x70 }
  - { offsetInCU: 0x109CE, offset: 0x109CE, size: 0x8, addend: 0x0, symName: __ZNSt3__16__treeINS_12__value_typeINS_4pairIiiEEiEENS_19__map_value_compareIS3_S4_NS_4lessIS3_EELb1EEENS_9allocatorIS4_EEE10value_compB8ue170006Ev, symObjAddr: 0x7834, symBinAddr: 0x100009194, symSize: 0x70 }
  - { offsetInCU: 0x10A03, offset: 0x10A03, size: 0x8, addend: 0x0, symName: __ZNKSt3__119__map_value_compareINS_4pairIiiEENS_12__value_typeIS2_iEENS_4lessIS2_EELb1EEclB8ue170006ERKS2_RKS4_, symObjAddr: 0x78A4, symBinAddr: 0x100009204, symSize: 0x54 }
  - { offsetInCU: 0x10A58, offset: 0x10A58, size: 0x8, addend: 0x0, symName: __ZNKSt3__119__map_value_compareINS_4pairIiiEENS_12__value_typeIS2_iEENS_4lessIS2_EELb1EEclB8ue170006ERKS4_RKS2_, symObjAddr: 0x78F8, symBinAddr: 0x100009258, symSize: 0x54 }
  - { offsetInCU: 0x10AAD, offset: 0x10AAD, size: 0x8, addend: 0x0, symName: __ZNSt3__16__treeINS_12__value_typeINS_4pairIiiEEiEENS_19__map_value_compareIS3_S4_NS_4lessIS3_EELb1EEENS_9allocatorIS4_EEE10__end_nodeB8ue170006Ev, symObjAddr: 0x794C, symBinAddr: 0x1000092AC, symSize: 0x70 }
  - { offsetInCU: 0x10BC4, offset: 0x10BC4, size: 0x8, addend: 0x0, symName: __ZNSt3__16__treeINS_12__value_typeINS_4pairIiiEEiEENS_19__map_value_compareIS3_S4_NS_4lessIS3_EELb1EEENS_9allocatorIS4_EEE12__node_allocB8ue170006Ev, symObjAddr: 0x7DC0, symBinAddr: 0x100009720, symSize: 0x70 }
  - { offsetInCU: 0x10BFF, offset: 0x10BFF, size: 0x8, addend: 0x0, symName: __ZNSt3__110unique_ptrINS_11__tree_nodeINS_12__value_typeINS_4pairIiiEEiEEPvEENS_22__tree_node_destructorINS_9allocatorIS7_EEEEEC1B8ue170006ILb1EvEEPS7_NS_16__dependent_typeINS_27__unique_ptr_deleter_sfinaeISB_EEXT_EE20__good_rval_ref_typeE, symObjAddr: 0x7E30, symBinAddr: 0x100009790, symSize: 0x20C }
  - { offsetInCU: 0x10CB5, offset: 0x10CB5, size: 0x8, addend: 0x0, symName: __ZNSt3__116allocator_traitsINS_9allocatorINS_11__tree_nodeINS_12__value_typeINS_4pairIiiEEiEEPvEEEEE9constructB8ue170006INS4_IKS5_iEEJRKNS_21piecewise_construct_tENS_5tupleIJRSC_EEENSH_IJEEEEvEEvRS9_PT_DpOT0_, symObjAddr: 0x803C, symBinAddr: 0x10000999C, symSize: 0x230 }
  - { offsetInCU: 0x10DB0, offset: 0x10DB0, size: 0x8, addend: 0x0, symName: __ZNSt3__117__compressed_pairIPNS_11__tree_nodeINS_12__value_typeINS_4pairIiiEEiEEPvEENS_22__tree_node_destructorINS_9allocatorIS7_EEEEE6secondB8ue170006Ev, symObjAddr: 0x869C, symBinAddr: 0x100009FFC, symSize: 0xB0 }
  - { offsetInCU: 0x10DF6, offset: 0x10DF6, size: 0x8, addend: 0x0, symName: __ZNSt3__110unique_ptrINS_11__tree_nodeINS_12__value_typeINS_4pairIiiEEiEEPvEENS_22__tree_node_destructorINS_9allocatorIS7_EEEEED1B8ue170006Ev, symObjAddr: 0x76F4, symBinAddr: 0x100009054, symSize: 0x5C }
  - { offsetInCU: 0x10E5E, offset: 0x10E5E, size: 0x8, addend: 0x0, symName: __ZNSt3__16__treeINS_12__value_typeINS_4pairIiiEEiEENS_19__map_value_compareIS3_S4_NS_4lessIS3_EELb1EEENS_9allocatorIS4_EEE4sizeB8ue170006Ev, symObjAddr: 0x9904, symBinAddr: 0x10000B264, symSize: 0x70 }
  - { offsetInCU: 0x10E93, offset: 0x10E93, size: 0x8, addend: 0x0, symName: __ZNSt3__117__compressed_pairIPNS_11__tree_nodeINS_12__value_typeINS_4pairIiiEEiEEPvEENS_22__tree_node_destructorINS_9allocatorIS7_EEEEE5firstB8ue170006Ev, symObjAddr: 0xA87C, symBinAddr: 0x10000C1DC, symSize: 0xCC }
  - { offsetInCU: 0x10ED8, offset: 0x10ED8, size: 0x8, addend: 0x0, symName: __ZNSt3__117__compressed_pairImNS_19__map_value_compareINS_4pairIiiEENS_12__value_typeIS3_iEENS_4lessIS3_EELb1EEEE6secondB8ue170006Ev, symObjAddr: 0x7AF8, symBinAddr: 0x100009458, symSize: 0xD4 }
  - { offsetInCU: 0x10F1C, offset: 0x10F1C, size: 0x8, addend: 0x0, symName: __ZNKSt3__14lessINS_4pairIiiEEEclB8ue170006ERKS2_S5_, symObjAddr: 0x7BCC, symBinAddr: 0x10000952C, symSize: 0x128 }
  - { offsetInCU: 0x10F83, offset: 0x10F83, size: 0x8, addend: 0x0, symName: __ZNSt3__117__compressed_pairINS_15__tree_end_nodeIPNS_16__tree_node_baseIPvEEEENS_9allocatorINS_11__tree_nodeINS_12__value_typeINS_4pairIiiEEiEES3_EEEEE5firstB8ue170006Ev, symObjAddr: 0x7CF4, symBinAddr: 0x100009654, symSize: 0xCC }
  - { offsetInCU: 0x10FC8, offset: 0x10FC8, size: 0x8, addend: 0x0, symName: __ZNKSt3__117__compressed_pairINS_15__tree_end_nodeIPNS_16__tree_node_baseIPvEEEENS_9allocatorINS_11__tree_nodeINS_12__value_typeINS_4pairIiiEEiEES3_EEEEE5firstB8ue170006Ev, symObjAddr: 0x7A2C, symBinAddr: 0x10000938C, symSize: 0xCC }
  - { offsetInCU: 0x11055, offset: 0x11055, size: 0x8, addend: 0x0, symName: __ZNSt3__117__compressed_pairINS_15__tree_end_nodeIPNS_16__tree_node_baseIPvEEEENS_9allocatorINS_11__tree_nodeINS_12__value_typeINS_4pairIiiEEiEES3_EEEEE6secondB8ue170006Ev, symObjAddr: 0x826C, symBinAddr: 0x100009BCC, symSize: 0xD4 }
  - { offsetInCU: 0x11116, offset: 0x11116, size: 0x8, addend: 0x0, symName: __ZNSt3__117__compressed_pairIPNS_11__tree_nodeINS_12__value_typeINS_4pairIiiEEiEEPvEENS_22__tree_node_destructorINS_9allocatorIS7_EEEEEC2B8ue170006IRS8_SC_EEOT_OT0_, symObjAddr: 0x834C, symBinAddr: 0x100009CAC, symSize: 0x104 }
  - { offsetInCU: 0x112CE, offset: 0x112CE, size: 0x8, addend: 0x0, symName: __ZNSt3__14pairIKNS0_IiiEEiEC2B8ue170006IJRS2_EJEJLm0EEJEEENS_21piecewise_construct_tERNS_5tupleIJDpT_EEERNS7_IJDpT0_EEENS_15__tuple_indicesIJXspT1_EEEENSG_IJXspT2_EEEE, symObjAddr: 0x8450, symBinAddr: 0x100009DB0, symSize: 0x180 }
  - { offsetInCU: 0x11451, offset: 0x11451, size: 0x8, addend: 0x0, symName: __ZNSt3__117__compressed_pairImNS_19__map_value_compareINS_4pairIiiEENS_12__value_typeIS3_iEENS_4lessIS3_EELb1EEEE5firstB8ue170006Ev, symObjAddr: 0xA7B0, symBinAddr: 0x10000C110, symSize: 0xCC }
  - { offsetInCU: 0x114E4, offset: 0x114E4, size: 0x8, addend: 0x0, symName: __ZNSt3__122__tree_node_destructorINS_9allocatorINS_11__tree_nodeINS_12__value_typeINS_4pairIiiEEiEEPvEEEEEclB8ue170006EPS8_, symObjAddr: 0xAA4C, symBinAddr: 0x10000C3AC, symSize: 0x1C8 }
  - { offsetInCU: 0x11621, offset: 0x11621, size: 0x8, addend: 0x0, symName: __ZNKSt3__16__treeINS_12__value_typeINS_4pairIiiEEiEENS_19__map_value_compareIS3_S4_NS_4lessIS3_EELb1EEENS_9allocatorIS4_EEE10value_compB8ue170006Ev, symObjAddr: 0xAE3C, symBinAddr: 0x10000C79C, symSize: 0x70 }
  - { offsetInCU: 0x11656, offset: 0x11656, size: 0x8, addend: 0x0, symName: __ZNKSt3__117__compressed_pairImNS_19__map_value_compareINS_4pairIiiEENS_12__value_typeIS3_iEENS_4lessIS3_EELb1EEEE6secondB8ue170006Ev, symObjAddr: 0xAEAC, symBinAddr: 0x10000C80C, symSize: 0xD4 }
  - { offsetInCU: 0x116B6, offset: 0x116B6, size: 0x8, addend: 0x0, symName: __ZNKSt3__112basic_stringIcNS_11char_traitsIcEENS_9allocatorIcEEE9__is_longB8ue170006Ev, symObjAddr: 0xAFDC, symBinAddr: 0x10000C93C, symSize: 0x9C }
  - { offsetInCU: 0x116EA, offset: 0x116EA, size: 0x8, addend: 0x0, symName: __ZNSt3__112basic_stringIcNS_11char_traitsIcEENS_9allocatorIcEEE18__get_long_pointerB8ue170006Ev, symObjAddr: 0xB078, symBinAddr: 0x10000C9D8, symSize: 0x88 }
  - { offsetInCU: 0x1171E, offset: 0x1171E, size: 0x8, addend: 0x0, symName: __ZNSt3__112basic_stringIcNS_11char_traitsIcEENS_9allocatorIcEEE19__get_short_pointerB8ue170006Ev, symObjAddr: 0xB100, symBinAddr: 0x10000CA60, symSize: 0x58 }
  - { offsetInCU: 0x11753, offset: 0x11753, size: 0x8, addend: 0x0, symName: __ZNKSt3__117__compressed_pairINS_12basic_stringIcNS_11char_traitsIcEENS_9allocatorIcEEE5__repES5_E5firstB8ue170006Ev, symObjAddr: 0xB158, symBinAddr: 0x10000CAB8, symSize: 0xCC }
  - { offsetInCU: 0x11798, offset: 0x11798, size: 0x8, addend: 0x0, symName: __ZNSt3__117__compressed_pairINS_12basic_stringIcNS_11char_traitsIcEENS_9allocatorIcEEE5__repES5_E5firstB8ue170006Ev, symObjAddr: 0xB224, symBinAddr: 0x10000CB84, symSize: 0xCC }
  - { offsetInCU: 0x1182B, offset: 0x1182B, size: 0x8, addend: 0x0, symName: __ZNSt3__117__compressed_pairINS_12basic_stringIcNS_11char_traitsIcEENS_9allocatorIcEEE5__repES5_EC1B8ue170006INS_18__default_init_tagESA_EEOT_OT0_, symObjAddr: 0xB514, symBinAddr: 0x10000CE74, symSize: 0x98 }
  - { offsetInCU: 0x1192D, offset: 0x1192D, size: 0x8, addend: 0x0, symName: __ZNSt3__122__compressed_pair_elemINS_9allocatorIcEELi1ELb1EEC2B8ue170006ENS_18__default_init_tagE, symObjAddr: 0xB5AC, symBinAddr: 0x10000CF0C, symSize: 0x7C }
  - { offsetInCU: 0x11A5A, offset: 0x11A5A, size: 0x8, addend: 0x0, symName: __ZNSt3__119ostreambuf_iteratorIcNS_11char_traitsIcEEEC2B8ue170006ERNS_13basic_ostreamIcS2_EE, symObjAddr: 0xCF10, symBinAddr: 0x10000E870, symSize: 0x298 }
  - { offsetInCU: 0x11AB7, offset: 0x11AB7, size: 0x8, addend: 0x0, symName: __ZNKSt3__19basic_iosIcNS_11char_traitsIcEEE4fillB8ue170006Ev, symObjAddr: 0xC738, symBinAddr: 0x10000E098, symSize: 0x248 }
  - { offsetInCU: 0x11BA0, offset: 0x11BA0, size: 0x8, addend: 0x0, symName: __ZNKSt3__19basic_iosIcNS_11char_traitsIcEEE5widenB8ue170006Ec, symObjAddr: 0xD288, symBinAddr: 0x10000EBE8, symSize: 0x340 }
  - { offsetInCU: 0x11C23, offset: 0x11C23, size: 0x8, addend: 0x0, symName: __ZNSt3__18ios_base8setstateB8ue170006Ej, symObjAddr: 0xD6C8, symBinAddr: 0x10000F028, symSize: 0x19C }
  - { offsetInCU: 0x11C72, offset: 0x11C72, size: 0x8, addend: 0x0, symName: __ZNKSt3__117__compressed_pairINS_12basic_stringIcNS_11char_traitsIcEENS_9allocatorIcEEE5__repES5_E6secondB8ue170006Ev, symObjAddr: 0xCE3C, symBinAddr: 0x10000E79C, symSize: 0xD4 }
  - { offsetInCU: 0x11CB6, offset: 0x11CB6, size: 0x8, addend: 0x0, symName: __ZNSt3__112basic_stringIcNS_11char_traitsIcEENS_9allocatorIcEEE16__set_short_sizeB8ue170006Em, symObjAddr: 0xCC90, symBinAddr: 0x10000E5F0, symSize: 0x11C }
  - { offsetInCU: 0x11D29, offset: 0x11D29, size: 0x8, addend: 0x0, symName: __ZNSt3__112basic_stringIcNS_11char_traitsIcEENS_9allocatorIcEEE15__set_long_sizeB8ue170006Em, symObjAddr: 0xCDAC, symBinAddr: 0x10000E70C, symSize: 0x90 }
  - { offsetInCU: 0x11DB1, offset: 0x11DB1, size: 0x8, addend: 0x0, symName: __ZNKSt3__112basic_stringIcNS_11char_traitsIcEENS_9allocatorIcEEE15__get_long_sizeB8ue170006Ev, symObjAddr: 0xD9FC, symBinAddr: 0x10000F35C, symSize: 0x8C }
  - { offsetInCU: 0x11DE5, offset: 0x11DE5, size: 0x8, addend: 0x0, symName: __ZNKSt3__112basic_stringIcNS_11char_traitsIcEENS_9allocatorIcEEE16__get_short_sizeB8ue170006Ev, symObjAddr: 0xDA88, symBinAddr: 0x10000F3E8, symSize: 0x9C }
  - { offsetInCU: 0x11E19, offset: 0x11E19, size: 0x8, addend: 0x0, symName: __ZNKSt3__112basic_stringIcNS_11char_traitsIcEENS_9allocatorIcEEE18__get_long_pointerB8ue170006Ev, symObjAddr: 0xD91C, symBinAddr: 0x10000F27C, symSize: 0x88 }
  - { offsetInCU: 0x11E4D, offset: 0x11E4D, size: 0x8, addend: 0x0, symName: __ZNKSt3__112basic_stringIcNS_11char_traitsIcEENS_9allocatorIcEEE19__get_short_pointerB8ue170006Ev, symObjAddr: 0xD9A4, symBinAddr: 0x10000F304, symSize: 0x58 }
  - { offsetInCU: 0x11F1F, offset: 0x11F1F, size: 0x8, addend: 0x0, symName: __ZNSt3__117__compressed_pairINS_15__tree_end_nodeIPNS_16__tree_node_baseIPvEEEENS_9allocatorINS_11__tree_nodeINS_12__value_typeINS_4pairIiiEEiEES3_EEEEEC2B8ue170006ILb1EvEEv, symObjAddr: 0xEC70, symBinAddr: 0x1000105D0, symSize: 0xD0 }
  - { offsetInCU: 0x11FA6, offset: 0x11FA6, size: 0x8, addend: 0x0, symName: __ZNSt3__117__compressed_pairImNS_19__map_value_compareINS_4pairIiiEENS_12__value_typeIS3_iEENS_4lessIS3_EELb1EEEEC2B8ue170006IiRKS8_EEOT_OT0_, symObjAddr: 0xEDBC, symBinAddr: 0x10001071C, symSize: 0xE8 }
  - { offsetInCU: 0x12076, offset: 0x12076, size: 0x8, addend: 0x0, symName: __ZNSt3__122__compressed_pair_elemINS_9allocatorINS_11__tree_nodeINS_12__value_typeINS_4pairIiiEEiEEPvEEEELi1ELb1EEC2B8ue170006ENS_16__value_init_tagE, symObjAddr: 0xED40, symBinAddr: 0x1000106A0, symSize: 0x7C }
  - { offsetInCU: 0x1216C, offset: 0x1216C, size: 0x8, addend: 0x0, symName: __ZNSt3__16__treeINS_12__value_typeINS_4pairIiiEEiEENS_19__map_value_compareIS3_S4_NS_4lessIS3_EELb1EEENS_9allocatorIS4_EEE7destroyEPNS_11__tree_nodeIS4_PvEE, symObjAddr: 0xEF08, symBinAddr: 0x100010868, symSize: 0x1D0 }
  - { offsetInCU: 0x122BF, offset: 0x122BF, size: 0x8, addend: 0x0, symName: __ZNSt3__16__treeINS_12__value_typeINS_4pairIiiEEiEENS_19__map_value_compareIS3_S4_NS_4lessIS3_EELb1EEENS_9allocatorIS4_EEE5beginB8ue170006Ev, symObjAddr: 0xF8AC, symBinAddr: 0x10001120C, symSize: 0x8C }
  - { offsetInCU: 0x12305, offset: 0x12305, size: 0x8, addend: 0x0, symName: __ZNSt3__13mapINS_4pairIiiEEiNS_4lessIS2_EENS_9allocatorINS1_IKS2_iEEEEE3endB8ue170006Ev, symObjAddr: 0xF414, symBinAddr: 0x100010D74, symSize: 0x68 }
  - { offsetInCU: 0x12351, offset: 0x12351, size: 0x8, addend: 0x0, symName: __ZNKSt3__114__map_iteratorINS_15__tree_iteratorINS_12__value_typeINS_4pairIiiEEiEEPNS_11__tree_nodeIS5_PvEElEEEdeB8ue170006Ev, symObjAddr: 0xF4D4, symBinAddr: 0x100010E34, symSize: 0xAC }
  - { offsetInCU: 0x123A3, offset: 0x123A3, size: 0x8, addend: 0x0, symName: __ZNSt3__114__map_iteratorINS_15__tree_iteratorINS_12__value_typeINS_4pairIiiEEiEEPNS_11__tree_nodeIS5_PvEElEEEppB8ue170006Ev, symObjAddr: 0xF83C, symBinAddr: 0x10001119C, symSize: 0x70 }
  - { offsetInCU: 0x1240E, offset: 0x1240E, size: 0x8, addend: 0x0, symName: __ZNSt3__115__tree_iteratorINS_12__value_typeINS_4pairIiiEEiEEPNS_11__tree_nodeIS4_PvEElEppB8ue170006Ev, symObjAddr: 0xFC60, symBinAddr: 0x1000115C0, symSize: 0xD8 }
...
