---
triple:          'arm64-apple-darwin'
binary-path:     '/Users/eric/Workspace/compprog/codeforces/contest/963virtual/B_Parity_and_Sum.bin'
relocations:
  - { offsetInCU: 0x3B, offset: 0x3B, size: 0x8, addend: 0x0, symName: _.str, symObjAddr: 0x15620, symBinAddr: 0x100019840, symSize: 0x0 }
  - { offsetInCU: 0x6B, offset: 0x6B, size: 0x8, addend: 0x0, symName: _.str.1, symObjAddr: 0x15640, symBinAddr: 0x100019860, symSize: 0x0 }
  - { offsetInCU: 0x7C, offset: 0x7C, size: 0x8, addend: 0x0, symName: _.str.2, symObjAddr: 0x15660, symBinAddr: 0x100019880, symSize: 0x0 }
  - { offsetInCU: 0x8D, offset: 0x8D, size: 0x8, addend: 0x0, symName: _.str.3, symObjAddr: 0x13300, symBinAddr: 0x1000174E0, symSize: 0x0 }
  - { offsetInCU: 0xAA, offset: 0xAA, size: 0x8, addend: 0x0, symName: _.str.4, symObjAddr: 0x15680, symBinAddr: 0x1000198A0, symSize: 0x0 }
  - { offsetInCU: 0xBB, offset: 0xBB, size: 0x8, addend: 0x0, symName: _.str.6, symObjAddr: 0x156A0, symBinAddr: 0x1000198C0, symSize: 0x0 }
  - { offsetInCU: 0xD8, offset: 0xD8, size: 0x8, addend: 0x0, symName: _.str.7, symObjAddr: 0x156C0, symBinAddr: 0x1000198E0, symSize: 0x0 }
  - { offsetInCU: 0xF5, offset: 0xF5, size: 0x8, addend: 0x0, symName: _.str.8, symObjAddr: 0x156E0, symBinAddr: 0x100019900, symSize: 0x0 }
  - { offsetInCU: 0x113, offset: 0x113, size: 0x8, addend: 0x0, symName: _.str.20, symObjAddr: 0x15700, symBinAddr: 0x100019920, symSize: 0x0 }
  - { offsetInCU: 0x131, offset: 0x131, size: 0x8, addend: 0x0, symName: _.str.32, symObjAddr: 0x15720, symBinAddr: 0x100019940, symSize: 0x0 }
  - { offsetInCU: 0x14E, offset: 0x14E, size: 0x8, addend: 0x0, symName: _.str.37, symObjAddr: 0x15740, symBinAddr: 0x100019960, symSize: 0x0 }
  - { offsetInCU: 0x15F, offset: 0x15F, size: 0x8, addend: 0x0, symName: _.str.38, symObjAddr: 0x15760, symBinAddr: 0x100019980, symSize: 0x0 }
  - { offsetInCU: 0x170, offset: 0x170, size: 0x8, addend: 0x0, symName: _.str.39, symObjAddr: 0x15780, symBinAddr: 0x1000199A0, symSize: 0x0 }
  - { offsetInCU: 0x343C, offset: 0x343C, size: 0x8, addend: 0x0, symName: __ZNSt3__124__put_character_sequenceB8ue170006IcNS_11char_traitsIcEEEERNS_13basic_ostreamIT_T0_EES7_PKS4_m, symObjAddr: 0x35AC, symBinAddr: 0x100007484, symSize: 0x910 }
  - { offsetInCU: 0x9960, offset: 0x9960, size: 0x8, addend: 0x0, symName: __ZNSt3__1lsB8ue170006IcNS_11char_traitsIcEENS_9allocatorIcEEEERNS_13basic_ostreamIT_T0_EES9_RKNS_12basic_stringIS6_S7_T1_EE, symObjAddr: 0xB8C, symBinAddr: 0x100004A64, symSize: 0x48 }
  - { offsetInCU: 0x9A1A, offset: 0x9A1A, size: 0x8, addend: 0x0, symName: __ZNSt3__1neB8ue170006ERKNS_14__bit_iteratorINS_6vectorIbNS_9allocatorIbEEEELb0ELm0EEES7_, symObjAddr: 0x1104, symBinAddr: 0x100004FDC, symSize: 0xC4 }
  - { offsetInCU: 0x9B53, offset: 0x9B53, size: 0x8, addend: 0x0, symName: __ZNSt3__116__tree_prev_iterB8ue170006IPNS_16__tree_node_baseIPvEEPNS_15__tree_end_nodeIS4_EEEET_T0_, symObjAddr: 0xD6F8, symBinAddr: 0x1000115D0, symSize: 0x3D0 }
  - { offsetInCU: 0x9BF9, offset: 0x9BF9, size: 0x8, addend: 0x0, symName: __ZNSt3__116__pad_and_outputB8ue170006IcNS_11char_traitsIcEEEENS_19ostreambuf_iteratorIT_T0_EES6_PKS4_S8_S8_RNS_8ios_baseES4_, symObjAddr: 0x3EBC, symBinAddr: 0x100007D94, symSize: 0x800 }
  - { offsetInCU: 0x9E58, offset: 0x9E58, size: 0x8, addend: 0x0, symName: __ZNSt3__120__throw_length_errorB8ue170006EPKc, symObjAddr: 0x4D18, symBinAddr: 0x100008BF0, symSize: 0x78 }
  - { offsetInCU: 0xA335, offset: 0xA335, size: 0x8, addend: 0x0, symName: __ZNSt3__19use_facetB8ue170006INS_5ctypeIcEEEERKT_RKNS_6localeE, symObjAddr: 0x5868, symBinAddr: 0x100009740, symSize: 0x100 }
  - { offsetInCU: 0xA390, offset: 0xA390, size: 0x8, addend: 0x0, symName: __ZNSt3__119__allocate_at_leastB8ue170006INS_9allocatorIxEEEENS_19__allocation_resultINS_16allocator_traitsIT_E7pointerEEERS5_m, symObjAddr: 0x68BC, symBinAddr: 0x10000A794, symSize: 0x44 }
  - { offsetInCU: 0xA543, offset: 0xA543, size: 0x8, addend: 0x0, symName: __ZNSt3__127__tree_balance_after_insertB8ue170006IPNS_16__tree_node_baseIPvEEEEvT_S5_, symObjAddr: 0xA234, symBinAddr: 0x10000E10C, symSize: 0x11B8 }
  - { offsetInCU: 0xA79A, offset: 0xA79A, size: 0x8, addend: 0x0, symName: __ZNSt3__119__tree_right_rotateB8ue170006IPNS_16__tree_node_baseIPvEEEEvT_, symObjAddr: 0xBB00, symBinAddr: 0x10000F9D8, symSize: 0x834 }
  - { offsetInCU: 0xA84D, offset: 0xA84D, size: 0x8, addend: 0x0, symName: __ZNSt3__118__tree_left_rotateB8ue170006IPNS_16__tree_node_baseIPvEEEEvT_, symObjAddr: 0xB4F8, symBinAddr: 0x10000F3D0, symSize: 0x608 }
  - { offsetInCU: 0xA953, offset: 0xA953, size: 0x8, addend: 0x0, symName: __ZNSt3__116__tree_next_iterB8ue170006IPNS_15__tree_end_nodeIPNS_16__tree_node_baseIPvEEEES5_EET_T0_, symObjAddr: 0xD250, symBinAddr: 0x100011128, symSize: 0x41C }
  - { offsetInCU: 0xAA1F, offset: 0xAA1F, size: 0x8, addend: 0x0, symName: __ZNSt3__113__tree_removeB8ue170006IPNS_16__tree_node_baseIPvEEEEvT_S5_, symObjAddr: 0xE354, symBinAddr: 0x10001222C, symSize: 0x3EC8 }
  - { offsetInCU: 0xAD7F, offset: 0xAD7F, size: 0x8, addend: 0x0, symName: __ZNSt3__111__tree_nextB8ue170006IPNS_16__tree_node_baseIPvEEEET_S5_, symObjAddr: 0x1221C, symBinAddr: 0x1000160F4, symSize: 0x3E0 }
  - { offsetInCU: 0xB179, offset: 0xB179, size: 0x8, addend: 0x0, symName: __ZSt28__throw_bad_array_new_lengthB8ue170006v, symObjAddr: 0x4F08, symBinAddr: 0x100008DE0, symSize: 0x5C }
  - { offsetInCU: 0xE34A, offset: 0xE34A, size: 0x8, addend: 0x0, symName: __ZN14__DEBUG_UTIL__5printEPKc, symObjAddr: 0x0, symBinAddr: 0x100003ED8, symSize: 0x30 }
  - { offsetInCU: 0xE3D6, offset: 0xE3D6, size: 0x8, addend: 0x0, symName: __ZN14__DEBUG_UTIL__5printEb, symObjAddr: 0x30, symBinAddr: 0x100003F08, symSize: 0x28 }
  - { offsetInCU: 0xE431, offset: 0xE431, size: 0x8, addend: 0x0, symName: __ZN14__DEBUG_UTIL__5printEc, symObjAddr: 0x58, symBinAddr: 0x100003F30, symSize: 0x21C }
  - { offsetInCU: 0xE508, offset: 0xE508, size: 0x8, addend: 0x0, symName: __ZN14__DEBUG_UTIL__5printEs, symObjAddr: 0x274, symBinAddr: 0x10000414C, symSize: 0xA8 }
  - { offsetInCU: 0xE532, offset: 0xE532, size: 0x8, addend: 0x0, symName: __ZN14__DEBUG_UTIL__5printEt, symObjAddr: 0x31C, symBinAddr: 0x1000041F4, symSize: 0xA8 }
  - { offsetInCU: 0xE55C, offset: 0xE55C, size: 0x8, addend: 0x0, symName: __ZN14__DEBUG_UTIL__5printEi, symObjAddr: 0x3C4, symBinAddr: 0x10000429C, symSize: 0xA8 }
  - { offsetInCU: 0xE586, offset: 0xE586, size: 0x8, addend: 0x0, symName: __ZN14__DEBUG_UTIL__5printEj, symObjAddr: 0x46C, symBinAddr: 0x100004344, symSize: 0xA8 }
  - { offsetInCU: 0xE5B0, offset: 0xE5B0, size: 0x8, addend: 0x0, symName: __ZN14__DEBUG_UTIL__5printEl, symObjAddr: 0x514, symBinAddr: 0x1000043EC, symSize: 0xA8 }
  - { offsetInCU: 0xE5DA, offset: 0xE5DA, size: 0x8, addend: 0x0, symName: __ZN14__DEBUG_UTIL__5printEm, symObjAddr: 0x5BC, symBinAddr: 0x100004494, symSize: 0xA8 }
  - { offsetInCU: 0xE604, offset: 0xE604, size: 0x8, addend: 0x0, symName: __ZN14__DEBUG_UTIL__5printEx, symObjAddr: 0x664, symBinAddr: 0x10000453C, symSize: 0xA8 }
  - { offsetInCU: 0xE622, offset: 0xE622, size: 0x8, addend: 0x0, symName: __ZN14__DEBUG_UTIL__5printEy, symObjAddr: 0x70C, symBinAddr: 0x1000045E4, symSize: 0xA8 }
  - { offsetInCU: 0xE64C, offset: 0xE64C, size: 0x8, addend: 0x0, symName: __ZN14__DEBUG_UTIL__5printEf, symObjAddr: 0x7B4, symBinAddr: 0x10000468C, symSize: 0xA0 }
  - { offsetInCU: 0xE676, offset: 0xE676, size: 0x8, addend: 0x0, symName: __ZN14__DEBUG_UTIL__5printEd, symObjAddr: 0x854, symBinAddr: 0x10000472C, symSize: 0xA0 }
  - { offsetInCU: 0xE6A0, offset: 0xE6A0, size: 0x8, addend: 0x0, symName: __ZN14__DEBUG_UTIL__5printEe, symObjAddr: 0x8F4, symBinAddr: 0x1000047CC, symSize: 0xA0 }
  - { offsetInCU: 0xE6CA, offset: 0xE6CA, size: 0x8, addend: 0x0, symName: __ZN14__DEBUG_UTIL__5printENSt3__112basic_stringIcNS0_11char_traitsIcEENS0_9allocatorIcEEEE, symObjAddr: 0x994, symBinAddr: 0x10000486C, symSize: 0x1F8 }
  - { offsetInCU: 0xE775, offset: 0xE775, size: 0x8, addend: 0x0, symName: __ZN14__DEBUG_UTIL__5printENSt3__16vectorIbNS0_9allocatorIbEEEE, symObjAddr: 0xBD4, symBinAddr: 0x100004AAC, symSize: 0x4E4 }
  - { offsetInCU: 0xE9E5, offset: 0xE9E5, size: 0x8, addend: 0x0, symName: __ZN14__DEBUG_UTIL__7printerEPKc, symObjAddr: 0x1518, symBinAddr: 0x1000053F0, symSize: 0x4 }
  - { offsetInCU: 0xEA0A, offset: 0xEA0A, size: 0x8, addend: 0x0, symName: __ZN14__DEBUG_UTIL__10printerArrEPKc, symObjAddr: 0x151C, symBinAddr: 0x1000053F4, symSize: 0x4 }
  - { offsetInCU: 0xEA2F, offset: 0xEA2F, size: 0x8, addend: 0x0, symName: __ZN14__DEBUG_UTIL__7printerIRxJRNSt3__18multisetIxNS2_4lessIxEENS2_9allocatorIxEEEEEEEvPKcOT_DpOT0_, symObjAddr: 0x2274, symBinAddr: 0x10000614C, symSize: 0x8C0 }
  - { offsetInCU: 0xEB50, offset: 0xEB50, size: 0x8, addend: 0x0, symName: __ZN14__DEBUG_UTIL__7printerIRNSt3__18multisetIxNS1_4lessIxEENS1_9allocatorIxEEEEJEEEvPKcOT_DpOT0_, symObjAddr: 0xC864, symBinAddr: 0x10001073C, symSize: 0x578 }
  - { offsetInCU: 0xEC25, offset: 0xEC25, size: 0x8, addend: 0x0, symName: __ZN14__DEBUG_UTIL__5printIRNSt3__18multisetIxNS1_4lessIxEENS1_9allocatorIxEEEEEEvOT_, symObjAddr: 0xCDDC, symBinAddr: 0x100010CB4, symSize: 0x334 }
  - { offsetInCU: 0xEE25, offset: 0xEE25, size: 0x8, addend: 0x0, symName: __ZNKSt3__112basic_stringIcNS_11char_traitsIcEENS_9allocatorIcEEE13__get_pointerB8ue170006Ev, symObjAddr: 0x5B60, symBinAddr: 0x100009A38, symSize: 0x5C }
  - { offsetInCU: 0xEE88, offset: 0xEE88, size: 0x8, addend: 0x0, symName: __ZNKSt3__112basic_stringIcNS_11char_traitsIcEENS_9allocatorIcEEE4sizeB8ue170006Ev, symObjAddr: 0x5B04, symBinAddr: 0x1000099DC, symSize: 0x5C }
  - { offsetInCU: 0xEFA9, offset: 0xEFA9, size: 0x8, addend: 0x0, symName: __ZNKSt3__114__bit_iteratorINS_6vectorIbNS_9allocatorIbEEEELb0ELm0EEdeB8ue170006Ev, symObjAddr: 0x11C8, symBinAddr: 0x1000050A0, symSize: 0xCC }
  - { offsetInCU: 0xEFD0, offset: 0xEFD0, size: 0x8, addend: 0x0, symName: __ZNKSt3__115__bit_referenceINS_6vectorIbNS_9allocatorIbEEEELb1EEcvbB8ue170006Ev, symObjAddr: 0x1294, symBinAddr: 0x10000516C, symSize: 0xE4 }
  - { offsetInCU: 0xEFF7, offset: 0xEFF7, size: 0x8, addend: 0x0, symName: __ZNSt3__114__bit_iteratorINS_6vectorIbNS_9allocatorIbEEEELb0ELm0EEppB8ue170006Ev, symObjAddr: 0x1378, symBinAddr: 0x100005250, symSize: 0x1A0 }
  - { offsetInCU: 0xF01E, offset: 0xF01E, size: 0x8, addend: 0x0, symName: __ZNSt3__16vectorIbNS_9allocatorIbEEE5beginB8ue170006Ev, symObjAddr: 0x10B8, symBinAddr: 0x100004F90, symSize: 0x4C }
  - { offsetInCU: 0xF053, offset: 0xF053, size: 0x8, addend: 0x0, symName: __ZNSt3__16vectorIbNS_9allocatorIbEEE11__make_iterB8ue170006Em, symObjAddr: 0x5DC4, symBinAddr: 0x100009C9C, symSize: 0x168 }
  - { offsetInCU: 0xF351, offset: 0xF351, size: 0x8, addend: 0x0, symName: __Z5solvev, symObjAddr: 0x1520, symBinAddr: 0x1000053F8, symSize: 0xCEC }
  - { offsetInCU: 0xF8E0, offset: 0xF8E0, size: 0x8, addend: 0x0, symName: __ZNSt3__16vectorIxNS_9allocatorIxEEEC2Em, symObjAddr: 0x5F2C, symBinAddr: 0x100009E04, symSize: 0x338 }
  - { offsetInCU: 0xFA38, offset: 0xFA38, size: 0x8, addend: 0x0, symName: __ZNSt3__16__treeIxNS_4lessIxEENS_9allocatorIxEEEC2ERKS2_, symObjAddr: 0x8080, symBinAddr: 0x10000BF58, symSize: 0x258 }
  - { offsetInCU: 0xFB03, offset: 0xFB03, size: 0x8, addend: 0x0, symName: __ZNSt3__18multisetIxNS_4lessIxEENS_9allocatorIxEEE6insertB8ue170006ERKx, symObjAddr: 0x220C, symBinAddr: 0x1000060E4, symSize: 0x68 }
  - { offsetInCU: 0xFB68, offset: 0xFB68, size: 0x8, addend: 0x0, symName: __ZNKSt3__117__compressed_pairImNS_4lessIxEEE5firstB8ue170006Ev, symObjAddr: 0xC798, symBinAddr: 0x100010670, symSize: 0xCC }
  - { offsetInCU: 0xFBAC, offset: 0xFBAC, size: 0x8, addend: 0x0, symName: __ZNSt3__16__treeIxNS_4lessIxEENS_9allocatorIxEEE5beginB8ue170006Ev, symObjAddr: 0xD66C, symBinAddr: 0x100011544, symSize: 0x8C }
  - { offsetInCU: 0xFBF2, offset: 0xFBF2, size: 0x8, addend: 0x0, symName: __ZNKSt3__121__tree_const_iteratorIxPNS_11__tree_nodeIxPvEElEdeB8ue170006Ev, symObjAddr: 0x2B34, symBinAddr: 0x100006A0C, symSize: 0xDC }
  - { offsetInCU: 0xFC30, offset: 0xFC30, size: 0x8, addend: 0x0, symName: __ZNSt3__18multisetIxNS_4lessIxEENS_9allocatorIxEEE3endB8ue170006Ev, symObjAddr: 0xD110, symBinAddr: 0x100010FE8, symSize: 0x68 }
  - { offsetInCU: 0xFC7C, offset: 0xFC7C, size: 0x8, addend: 0x0, symName: __ZNKSt3__116reverse_iteratorINS_21__tree_const_iteratorIxPNS_11__tree_nodeIxPvEElEEEdeB8ue170006Ev, symObjAddr: 0x2C10, symBinAddr: 0x100006AE8, symSize: 0x194 }
  - { offsetInCU: 0xFCCF, offset: 0xFCCF, size: 0x8, addend: 0x0, symName: __ZNSt3__16__treeIxNS_4lessIxEENS_9allocatorIxEEE11lower_boundB8ue170006IxEENS_15__tree_iteratorIxPNS_11__tree_nodeIxPvEElEERKT_, symObjAddr: 0xDAC8, symBinAddr: 0x1000119A0, symSize: 0x6C }
  - { offsetInCU: 0xFD57, offset: 0xFD57, size: 0x8, addend: 0x0, symName: __ZNSt3__121__tree_const_iteratorIxPNS_11__tree_nodeIxPvEElEmmB8ue170006Ev, symObjAddr: 0x2DA4, symBinAddr: 0x100006C7C, symSize: 0xDC }
  - { offsetInCU: 0xFD8B, offset: 0xFD8B, size: 0x8, addend: 0x0, symName: __ZNSt3__16__treeIxNS_4lessIxEENS_9allocatorIxEEE5eraseENS_21__tree_const_iteratorIxPNS_11__tree_nodeIxPvEElEE, symObjAddr: 0xDD58, symBinAddr: 0x100011C30, symSize: 0x1DC }
  - { offsetInCU: 0xFEF5, offset: 0xFEF5, size: 0x8, addend: 0x0, symName: __ZNSt3__16__treeIxNS_4lessIxEENS_9allocatorIxEEED1Ev, symObjAddr: 0x8648, symBinAddr: 0x10000C520, symSize: 0x64 }
  - { offsetInCU: 0xFF61, offset: 0xFF61, size: 0x8, addend: 0x0, symName: __ZNSt3__16vectorIxNS_9allocatorIxEEE16__destroy_vectorclB8ue170006Ev, symObjAddr: 0x7AE8, symBinAddr: 0x10000B9C0, symSize: 0x240 }
  - { offsetInCU: 0x1008F, offset: 0x1008F, size: 0x8, addend: 0x0, symName: __ZNSt3__18multisetIxNS_4lessIxEENS_9allocatorIxEEED1B8ue170006Ev, symObjAddr: 0x2E80, symBinAddr: 0x100006D58, symSize: 0x58 }
  - { offsetInCU: 0x100D6, offset: 0x100D6, size: 0x8, addend: 0x0, symName: __ZNSt3__16vectorIxNS_9allocatorIxEEED1B8ue170006Ev, symObjAddr: 0x2ED8, symBinAddr: 0x100006DB0, symSize: 0x1A0 }
  - { offsetInCU: 0x10163, offset: 0x10163, size: 0x8, addend: 0x0, symName: __ZNSt3__16__treeIxNS_4lessIxEENS_9allocatorIxEEE15__emplace_multiIJRKxEEENS_15__tree_iteratorIxPNS_11__tree_nodeIxPvEElEEDpOT_, symObjAddr: 0x8BE0, symBinAddr: 0x10000CAB8, symSize: 0x31C }
  - { offsetInCU: 0x1033F, offset: 0x1033F, size: 0x8, addend: 0x0, symName: _main, symObjAddr: 0x3078, symBinAddr: 0x100006F50, symSize: 0x394 }
  - { offsetInCU: 0x1039C, offset: 0x1039C, size: 0x8, addend: 0x0, symName: __ZNSt3__19basic_iosIcNS_11char_traitsIcEEE3tieB8ue170006EPNS_13basic_ostreamIcS2_EE, symObjAddr: 0x340C, symBinAddr: 0x1000072E4, symSize: 0x1A0 }
  - { offsetInCU: 0x10467, offset: 0x10467, size: 0x8, addend: 0x0, symName: __ZNSt3__119ostreambuf_iteratorIcNS_11char_traitsIcEEEC2B8ue170006ERNS_13basic_ostreamIcS2_EE, symObjAddr: 0x51B0, symBinAddr: 0x100009088, symSize: 0x298 }
  - { offsetInCU: 0x104C4, offset: 0x104C4, size: 0x8, addend: 0x0, symName: __ZNKSt3__19basic_iosIcNS_11char_traitsIcEEE4fillB8ue170006Ev, symObjAddr: 0x46BC, symBinAddr: 0x100008594, symSize: 0x248 }
  - { offsetInCU: 0x10507, offset: 0x10507, size: 0x8, addend: 0x0, symName: __ZNSt3__19basic_iosIcNS_11char_traitsIcEEE8setstateB8ue170006Ej, symObjAddr: 0x4904, symBinAddr: 0x1000087DC, symSize: 0xFC }
  - { offsetInCU: 0x10616, offset: 0x10616, size: 0x8, addend: 0x0, symName: __ZNSt3__117__compressed_pairINS_12basic_stringIcNS_11char_traitsIcEENS_9allocatorIcEEE5__repES5_EC1B8ue170006INS_18__default_init_tagESA_EEOT_OT0_, symObjAddr: 0x4BAC, symBinAddr: 0x100008A84, symSize: 0x98 }
  - { offsetInCU: 0x106B3, offset: 0x106B3, size: 0x8, addend: 0x0, symName: __ZNSt3__112basic_stringIcNS_11char_traitsIcEENS_9allocatorIcEEE13__get_pointerB8ue170006Ev, symObjAddr: 0x4F64, symBinAddr: 0x100008E3C, symSize: 0x5C }
  - { offsetInCU: 0x10716, offset: 0x10716, size: 0x8, addend: 0x0, symName: __ZNSt3__18ios_base5widthB8ue170006El, symObjAddr: 0x4A0C, symBinAddr: 0x1000088E4, symSize: 0x1A0 }
  - { offsetInCU: 0x1075F, offset: 0x1075F, size: 0x8, addend: 0x0, symName: __ZNKSt3__19basic_iosIcNS_11char_traitsIcEEE5widenB8ue170006Ec, symObjAddr: 0x5528, symBinAddr: 0x100009400, symSize: 0x340 }
  - { offsetInCU: 0x107E2, offset: 0x107E2, size: 0x8, addend: 0x0, symName: __ZNSt3__18ios_base8setstateB8ue170006Ej, symObjAddr: 0x5968, symBinAddr: 0x100009840, symSize: 0x19C }
  - { offsetInCU: 0x1087F, offset: 0x1087F, size: 0x8, addend: 0x0, symName: __ZNSt3__122__compressed_pair_elemINS_9allocatorIcEELi1ELb1EEC2B8ue170006ENS_18__default_init_tagE, symObjAddr: 0x4C44, symBinAddr: 0x100008B1C, symSize: 0x7C }
  - { offsetInCU: 0x1092E, offset: 0x1092E, size: 0x8, addend: 0x0, symName: __ZNSt3__112basic_stringIcNS_11char_traitsIcEENS_9allocatorIcEEE19__get_short_pointerB8ue170006Ev, symObjAddr: 0x4CC0, symBinAddr: 0x100008B98, symSize: 0x58 }
  - { offsetInCU: 0x10963, offset: 0x10963, size: 0x8, addend: 0x0, symName: __ZNSt3__117__compressed_pairINS_12basic_stringIcNS_11char_traitsIcEENS_9allocatorIcEEE5__repES5_E5firstB8ue170006Ev, symObjAddr: 0x4E3C, symBinAddr: 0x100008D14, symSize: 0xCC }
  - { offsetInCU: 0x109A7, offset: 0x109A7, size: 0x8, addend: 0x0, symName: __ZNSt12length_errorC1B8ue170006EPKc, symObjAddr: 0x4D90, symBinAddr: 0x100008C68, symSize: 0xAC }
  - { offsetInCU: 0x10A41, offset: 0x10A41, size: 0x8, addend: 0x0, symName: __ZNKSt3__112basic_stringIcNS_11char_traitsIcEENS_9allocatorIcEEE9__is_longB8ue170006Ev, symObjAddr: 0x4FC0, symBinAddr: 0x100008E98, symSize: 0x9C }
  - { offsetInCU: 0x10A75, offset: 0x10A75, size: 0x8, addend: 0x0, symName: __ZNSt3__112basic_stringIcNS_11char_traitsIcEENS_9allocatorIcEEE18__get_long_pointerB8ue170006Ev, symObjAddr: 0x505C, symBinAddr: 0x100008F34, symSize: 0x88 }
  - { offsetInCU: 0x10AA9, offset: 0x10AA9, size: 0x8, addend: 0x0, symName: __ZNKSt3__117__compressed_pairINS_12basic_stringIcNS_11char_traitsIcEENS_9allocatorIcEEE5__repES5_E5firstB8ue170006Ev, symObjAddr: 0x50E4, symBinAddr: 0x100008FBC, symSize: 0xCC }
  - { offsetInCU: 0x10B27, offset: 0x10B27, size: 0x8, addend: 0x0, symName: __ZNKSt3__18ios_base5rdbufB8ue170006Ev, symObjAddr: 0x5448, symBinAddr: 0x100009320, symSize: 0xE0 }
  - { offsetInCU: 0x10BB4, offset: 0x10BB4, size: 0x8, addend: 0x0, symName: __ZNKSt3__112basic_stringIcNS_11char_traitsIcEENS_9allocatorIcEEE15__get_long_sizeB8ue170006Ev, symObjAddr: 0x5C9C, symBinAddr: 0x100009B74, symSize: 0x8C }
  - { offsetInCU: 0x10BE8, offset: 0x10BE8, size: 0x8, addend: 0x0, symName: __ZNKSt3__112basic_stringIcNS_11char_traitsIcEENS_9allocatorIcEEE16__get_short_sizeB8ue170006Ev, symObjAddr: 0x5D28, symBinAddr: 0x100009C00, symSize: 0x9C }
  - { offsetInCU: 0x10C1C, offset: 0x10C1C, size: 0x8, addend: 0x0, symName: __ZNKSt3__112basic_stringIcNS_11char_traitsIcEENS_9allocatorIcEEE18__get_long_pointerB8ue170006Ev, symObjAddr: 0x5BBC, symBinAddr: 0x100009A94, symSize: 0x88 }
  - { offsetInCU: 0x10C50, offset: 0x10C50, size: 0x8, addend: 0x0, symName: __ZNKSt3__112basic_stringIcNS_11char_traitsIcEENS_9allocatorIcEEE19__get_short_pointerB8ue170006Ev, symObjAddr: 0x5C44, symBinAddr: 0x100009B1C, symSize: 0x58 }
  - { offsetInCU: 0x10D4D, offset: 0x10D4D, size: 0x8, addend: 0x0, symName: __ZNSt3__117__compressed_pairIPxNS_9allocatorIxEEEC2B8ue170006IDnNS_18__default_init_tagEEEOT_OT0_, symObjAddr: 0x674C, symBinAddr: 0x10000A624, symSize: 0xB0 }
  - { offsetInCU: 0x10DCC, offset: 0x10DCC, size: 0x8, addend: 0x0, symName: __ZNSt3__16vectorIxNS_9allocatorIxEEE11__vallocateB8ue170006Em, symObjAddr: 0x6264, symBinAddr: 0x10000A13C, symSize: 0x1A0 }
  - { offsetInCU: 0x10EB7, offset: 0x10EB7, size: 0x8, addend: 0x0, symName: __ZNSt3__16vectorIxNS_9allocatorIxEEE18__construct_at_endEm, symObjAddr: 0x6404, symBinAddr: 0x10000A2DC, symSize: 0x300 }
  - { offsetInCU: 0x10FF3, offset: 0x10FF3, size: 0x8, addend: 0x0, symName: __ZNSt3__128__exception_guard_exceptionsINS_6vectorIxNS_9allocatorIxEEE16__destroy_vectorEED2B8ue170006Ev, symObjAddr: 0x7A04, symBinAddr: 0x10000B8DC, symSize: 0xE4 }
  - { offsetInCU: 0x11032, offset: 0x11032, size: 0x8, addend: 0x0, symName: __ZNSt3__128__exception_guard_exceptionsINS_6vectorIxNS_9allocatorIxEEE16__destroy_vectorEED1B8ue170006Ev, symObjAddr: 0x6704, symBinAddr: 0x10000A5DC, symSize: 0x48 }
  - { offsetInCU: 0x11096, offset: 0x11096, size: 0x8, addend: 0x0, symName: __ZNKSt3__16vectorIxNS_9allocatorIxEEE7__allocB8ue170006Ev, symObjAddr: 0x6BF0, symBinAddr: 0x10000AAC8, symSize: 0x70 }
  - { offsetInCU: 0x110CB, offset: 0x110CB, size: 0x8, addend: 0x0, symName: __ZNSt3__16vectorIxNS_9allocatorIxEEE7__allocB8ue170006Ev, symObjAddr: 0x6900, symBinAddr: 0x10000A7D8, symSize: 0x70 }
  - { offsetInCU: 0x110FB, offset: 0x110FB, size: 0x8, addend: 0x0, symName: __ZNSt3__117__compressed_pairIPxNS_9allocatorIxEEE5firstB8ue170006Ev, symObjAddr: 0x6E08, symBinAddr: 0x10000ACE0, symSize: 0xCC }
  - { offsetInCU: 0x1113F, offset: 0x1113F, size: 0x8, addend: 0x0, symName: __ZNKSt3__16vectorIxNS_9allocatorIxEEE14__annotate_newB8ue170006Em, symObjAddr: 0x6970, symBinAddr: 0x10000A848, symSize: 0x280 }
  - { offsetInCU: 0x11235, offset: 0x11235, size: 0x8, addend: 0x0, symName: __ZNKSt3__16vectorIxNS_9allocatorIxEEE20__throw_length_errorB8ue170006Ev, symObjAddr: 0x6878, symBinAddr: 0x10000A750, symSize: 0x44 }
  - { offsetInCU: 0x1134B, offset: 0x1134B, size: 0x8, addend: 0x0, symName: __ZNSt3__16vectorIxNS_9allocatorIxEEE21_ConstructTransactionC2B8ue170006ERS3_m, symObjAddr: 0x709C, symBinAddr: 0x10000AF74, symSize: 0x194 }
  - { offsetInCU: 0x113A3, offset: 0x113A3, size: 0x8, addend: 0x0, symName: __ZNSt3__117__compressed_pairIPxNS_9allocatorIxEEE6secondB8ue170006Ev, symObjAddr: 0x6D34, symBinAddr: 0x10000AC0C, symSize: 0xD4 }
  - { offsetInCU: 0x113E6, offset: 0x113E6, size: 0x8, addend: 0x0, symName: __ZNSt3__16vectorIxNS_9allocatorIxEEE21_ConstructTransactionD2B8ue170006Ev, symObjAddr: 0x7594, symBinAddr: 0x10000B46C, symSize: 0x214 }
  - { offsetInCU: 0x1144D, offset: 0x1144D, size: 0x8, addend: 0x0, symName: __ZNSt3__122__compressed_pair_elemINS_9allocatorIxEELi1ELb1EEC2B8ue170006ENS_18__default_init_tagE, symObjAddr: 0x67FC, symBinAddr: 0x10000A6D4, symSize: 0x7C }
  - { offsetInCU: 0x11578, offset: 0x11578, size: 0x8, addend: 0x0, symName: __ZNKSt3__16vectorIxNS_9allocatorIxEEE8capacityB8ue170006Ev, symObjAddr: 0x6ED4, symBinAddr: 0x10000ADAC, symSize: 0x8C }
  - { offsetInCU: 0x115B3, offset: 0x115B3, size: 0x8, addend: 0x0, symName: __ZNKSt3__117__compressed_pairIPxNS_9allocatorIxEEE6secondB8ue170006Ev, symObjAddr: 0x6C60, symBinAddr: 0x10000AB38, symSize: 0xD4 }
  - { offsetInCU: 0x1163E, offset: 0x1163E, size: 0x8, addend: 0x0, symName: __ZNKSt3__16vectorIxNS_9allocatorIxEEE9__end_capB8ue170006Ev, symObjAddr: 0x6F60, symBinAddr: 0x10000AE38, symSize: 0x70 }
  - { offsetInCU: 0x11673, offset: 0x11673, size: 0x8, addend: 0x0, symName: __ZNKSt3__117__compressed_pairIPxNS_9allocatorIxEEE5firstB8ue170006Ev, symObjAddr: 0x6FD0, symBinAddr: 0x10000AEA8, symSize: 0xCC }
  - { offsetInCU: 0x116D3, offset: 0x116D3, size: 0x8, addend: 0x0, symName: __ZNKSt3__16vectorIxNS_9allocatorIxEEE19__annotate_increaseB8ue170006Em, symObjAddr: 0x7230, symBinAddr: 0x10000B108, symSize: 0x2D8 }
  - { offsetInCU: 0x117DD, offset: 0x117DD, size: 0x8, addend: 0x0, symName: __ZNKSt3__16vectorIxNS_9allocatorIxEEE4sizeB8ue170006Ev, symObjAddr: 0x7508, symBinAddr: 0x10000B3E0, symSize: 0x8C }
  - { offsetInCU: 0x11804, offset: 0x11804, size: 0x8, addend: 0x0, symName: __ZNKSt3__16vectorIxNS_9allocatorIxEEE17__annotate_shrinkB8ue170006Em, symObjAddr: 0x77A8, symBinAddr: 0x10000B680, symSize: 0x25C }
  - { offsetInCU: 0x11968, offset: 0x11968, size: 0x8, addend: 0x0, symName: __ZNSt3__16vectorIxNS_9allocatorIxEEE22__base_destruct_at_endB8ue170006EPx, symObjAddr: 0x7F98, symBinAddr: 0x10000BE70, symSize: 0xE8 }
  - { offsetInCU: 0x119C3, offset: 0x119C3, size: 0x8, addend: 0x0, symName: __ZNKSt3__16vectorIxNS_9allocatorIxEEE17__annotate_deleteB8ue170006Ev, symObjAddr: 0x7D28, symBinAddr: 0x10000BC00, symSize: 0x270 }
  - { offsetInCU: 0x11B40, offset: 0x11B40, size: 0x8, addend: 0x0, symName: __ZNSt3__117__compressed_pairINS_15__tree_end_nodeIPNS_16__tree_node_baseIPvEEEENS_9allocatorINS_11__tree_nodeIxS3_EEEEEC2B8ue170006ILb1EvEEv, symObjAddr: 0x8348, symBinAddr: 0x10000C220, symSize: 0xD0 }
  - { offsetInCU: 0x11BC7, offset: 0x11BC7, size: 0x8, addend: 0x0, symName: __ZNSt3__117__compressed_pairImNS_4lessIxEEEC2B8ue170006IiRKS2_EEOT_OT0_, symObjAddr: 0x8494, symBinAddr: 0x10000C36C, symSize: 0xE8 }
  - { offsetInCU: 0x11C41, offset: 0x11C41, size: 0x8, addend: 0x0, symName: __ZNSt3__16__treeIxNS_4lessIxEENS_9allocatorIxEEE10__end_nodeB8ue170006Ev, symObjAddr: 0x82D8, symBinAddr: 0x10000C1B0, symSize: 0x70 }
  - { offsetInCU: 0x11C76, offset: 0x11C76, size: 0x8, addend: 0x0, symName: __ZNSt3__117__compressed_pairINS_15__tree_end_nodeIPNS_16__tree_node_baseIPvEEEENS_9allocatorINS_11__tree_nodeIxS3_EEEEE5firstB8ue170006Ev, symObjAddr: 0x857C, symBinAddr: 0x10000C454, symSize: 0xCC }
  - { offsetInCU: 0x11D10, offset: 0x11D10, size: 0x8, addend: 0x0, symName: __ZNSt3__122__compressed_pair_elemINS_9allocatorINS_11__tree_nodeIxPvEEEELi1ELb1EEC2B8ue170006ENS_16__value_init_tagE, symObjAddr: 0x8418, symBinAddr: 0x10000C2F0, symSize: 0x7C }
  - { offsetInCU: 0x11E20, offset: 0x11E20, size: 0x8, addend: 0x0, symName: __ZNKSt3__16__treeIxNS_4lessIxEENS_9allocatorIxEEE6__rootB8ue170006Ev, symObjAddr: 0x887C, symBinAddr: 0x10000C754, symSize: 0xE4 }
  - { offsetInCU: 0x11E54, offset: 0x11E54, size: 0x8, addend: 0x0, symName: __ZNSt3__16__treeIxNS_4lessIxEENS_9allocatorIxEEE7destroyEPNS_11__tree_nodeIxPvEE, symObjAddr: 0x86AC, symBinAddr: 0x10000C584, symSize: 0x1D0 }
  - { offsetInCU: 0x11FE7, offset: 0x11FE7, size: 0x8, addend: 0x0, symName: __ZNSt3__16__treeIxNS_4lessIxEENS_9allocatorIxEEE12__node_allocB8ue170006Ev, symObjAddr: 0x8960, symBinAddr: 0x10000C838, symSize: 0x70 }
  - { offsetInCU: 0x1201C, offset: 0x1201C, size: 0x8, addend: 0x0, symName: __ZNKSt3__16__treeIxNS_4lessIxEENS_9allocatorIxEEE10__end_nodeB8ue170006Ev, symObjAddr: 0x8AA4, symBinAddr: 0x10000C97C, symSize: 0x70 }
  - { offsetInCU: 0x12051, offset: 0x12051, size: 0x8, addend: 0x0, symName: __ZNSt3__117__compressed_pairINS_15__tree_end_nodeIPNS_16__tree_node_baseIPvEEEENS_9allocatorINS_11__tree_nodeIxS3_EEEEE6secondB8ue170006Ev, symObjAddr: 0x89D0, symBinAddr: 0x10000C8A8, symSize: 0xD4 }
  - { offsetInCU: 0x120AA, offset: 0x120AA, size: 0x8, addend: 0x0, symName: __ZNKSt3__117__compressed_pairINS_15__tree_end_nodeIPNS_16__tree_node_baseIPvEEEENS_9allocatorINS_11__tree_nodeIxS3_EEEEE5firstB8ue170006Ev, symObjAddr: 0x8B14, symBinAddr: 0x10000C9EC, symSize: 0xCC }
  - { offsetInCU: 0x121C8, offset: 0x121C8, size: 0x8, addend: 0x0, symName: __ZNSt3__16__treeIxNS_4lessIxEENS_9allocatorIxEEE16__construct_nodeIJRKxEEENS_10unique_ptrINS_11__tree_nodeIxPvEENS_22__tree_node_destructorINS3_ISC_EEEEEEDpOT_, symObjAddr: 0x8EFC, symBinAddr: 0x10000CDD4, symSize: 0x338 }
  - { offsetInCU: 0x123B8, offset: 0x123B8, size: 0x8, addend: 0x0, symName: __ZNKSt3__117__compressed_pairIPNS_11__tree_nodeIxPvEENS_22__tree_node_destructorINS_9allocatorIS3_EEEEE5firstB8ue170006Ev, symObjAddr: 0xA168, symBinAddr: 0x10000E040, symSize: 0xCC }
  - { offsetInCU: 0x123FC, offset: 0x123FC, size: 0x8, addend: 0x0, symName: __ZNSt3__16__treeIxNS_4lessIxEENS_9allocatorIxEEE16__find_leaf_highERPNS_15__tree_end_nodeIPNS_16__tree_node_baseIPvEEEERKx, symObjAddr: 0x9234, symBinAddr: 0x10000D10C, symSize: 0x458 }
  - { offsetInCU: 0x124B1, offset: 0x124B1, size: 0x8, addend: 0x0, symName: __ZNSt3__16__treeIxNS_4lessIxEENS_9allocatorIxEEE16__insert_node_atEPNS_15__tree_end_nodeIPNS_16__tree_node_baseIPvEEEERSA_SA_, symObjAddr: 0x968C, symBinAddr: 0x10000D564, symSize: 0x4BC }
  - { offsetInCU: 0x12596, offset: 0x12596, size: 0x8, addend: 0x0, symName: __ZNSt3__110unique_ptrINS_11__tree_nodeIxPvEENS_22__tree_node_destructorINS_9allocatorIS3_EEEEE7releaseB8ue170006Ev, symObjAddr: 0x9B48, symBinAddr: 0x10000DA20, symSize: 0xC0 }
  - { offsetInCU: 0x125F5, offset: 0x125F5, size: 0x8, addend: 0x0, symName: __ZNSt3__110unique_ptrINS_11__tree_nodeIxPvEENS_22__tree_node_destructorINS_9allocatorIS3_EEEEE5resetB8ue170006EPS3_, symObjAddr: 0xC4CC, symBinAddr: 0x1000103A4, symSize: 0x104 }
  - { offsetInCU: 0x1268C, offset: 0x1268C, size: 0x8, addend: 0x0, symName: __ZNSt3__110unique_ptrINS_11__tree_nodeIxPvEENS_22__tree_node_destructorINS_9allocatorIS3_EEEEED1B8ue170006Ev, symObjAddr: 0x9C08, symBinAddr: 0x10000DAE0, symSize: 0x5C }
  - { offsetInCU: 0x12826, offset: 0x12826, size: 0x8, addend: 0x0, symName: __ZNSt3__110unique_ptrINS_11__tree_nodeIxPvEENS_22__tree_node_destructorINS_9allocatorIS3_EEEEEC1B8ue170006ILb1EvEEPS3_NS_16__dependent_typeINS_27__unique_ptr_deleter_sfinaeIS7_EEXT_EE20__good_rval_ref_typeE, symObjAddr: 0x9C64, symBinAddr: 0x10000DB3C, symSize: 0x20C }
  - { offsetInCU: 0x128DC, offset: 0x128DC, size: 0x8, addend: 0x0, symName: __ZNSt3__117__compressed_pairIPNS_11__tree_nodeIxPvEENS_22__tree_node_destructorINS_9allocatorIS3_EEEEE6secondB8ue170006Ev, symObjAddr: 0x9F74, symBinAddr: 0x10000DE4C, symSize: 0xB0 }
  - { offsetInCU: 0x12955, offset: 0x12955, size: 0x8, addend: 0x0, symName: __ZNSt3__16__treeIxNS_4lessIxEENS_9allocatorIxEEE10value_compB8ue170006Ev, symObjAddr: 0xA024, symBinAddr: 0x10000DEFC, symSize: 0x70 }
  - { offsetInCU: 0x1298A, offset: 0x1298A, size: 0x8, addend: 0x0, symName: __ZNSt3__16__treeIxNS_4lessIxEENS_9allocatorIxEEE4sizeB8ue170006Ev, symObjAddr: 0xB3EC, symBinAddr: 0x10000F2C4, symSize: 0x70 }
  - { offsetInCU: 0x129BF, offset: 0x129BF, size: 0x8, addend: 0x0, symName: __ZNSt3__117__compressed_pairIPNS_11__tree_nodeIxPvEENS_22__tree_node_destructorINS_9allocatorIS3_EEEEE5firstB8ue170006Ev, symObjAddr: 0xC400, symBinAddr: 0x1000102D8, symSize: 0xCC }
  - { offsetInCU: 0x12A80, offset: 0x12A80, size: 0x8, addend: 0x0, symName: __ZNSt3__117__compressed_pairIPNS_11__tree_nodeIxPvEENS_22__tree_node_destructorINS_9allocatorIS3_EEEEEC2B8ue170006IRS4_S8_EEOT_OT0_, symObjAddr: 0x9E70, symBinAddr: 0x10000DD48, symSize: 0x104 }
  - { offsetInCU: 0x12B8D, offset: 0x12B8D, size: 0x8, addend: 0x0, symName: __ZNSt3__117__compressed_pairImNS_4lessIxEEE6secondB8ue170006Ev, symObjAddr: 0xA094, symBinAddr: 0x10000DF6C, symSize: 0xD4 }
  - { offsetInCU: 0x12C1E, offset: 0x12C1E, size: 0x8, addend: 0x0, symName: __ZNSt3__117__compressed_pairImNS_4lessIxEEE5firstB8ue170006Ev, symObjAddr: 0xC334, symBinAddr: 0x10001020C, symSize: 0xCC }
  - { offsetInCU: 0x12C62, offset: 0x12C62, size: 0x8, addend: 0x0, symName: __ZNKSt3__116__tree_node_baseIPvE15__parent_unsafeB8ue170006Ev, symObjAddr: 0xB45C, symBinAddr: 0x10000F334, symSize: 0x9C }
  - { offsetInCU: 0x12CD2, offset: 0x12CD2, size: 0x8, addend: 0x0, symName: __ZNSt3__122__tree_node_destructorINS_9allocatorINS_11__tree_nodeIxPvEEEEEclB8ue170006EPS4_, symObjAddr: 0xC5D0, symBinAddr: 0x1000104A8, symSize: 0x1C8 }
  - { offsetInCU: 0x12DD6, offset: 0x12DD6, size: 0x8, addend: 0x0, symName: __ZNSt3__121__tree_const_iteratorIxPNS_11__tree_nodeIxPvEElEppB8ue170006Ev, symObjAddr: 0xD178, symBinAddr: 0x100011050, symSize: 0xD8 }
  - { offsetInCU: 0x12E20, offset: 0x12E20, size: 0x8, addend: 0x0, symName: __ZNSt3__16__treeIxNS_4lessIxEENS_9allocatorIxEEE13__lower_boundIxEENS_15__tree_iteratorIxPNS_11__tree_nodeIxPvEElEERKT_SB_PNS_15__tree_end_nodeIPNS_16__tree_node_baseIS9_EEEE, symObjAddr: 0xDB34, symBinAddr: 0x100011A0C, symSize: 0x224 }
  - { offsetInCU: 0x12EB6, offset: 0x12EB6, size: 0x8, addend: 0x0, symName: __ZNSt3__16__treeIxNS_4lessIxEENS_9allocatorIxEEE21__remove_node_pointerEPNS_11__tree_nodeIxPvEE, symObjAddr: 0xDF34, symBinAddr: 0x100011E0C, symSize: 0x348 }
  - { offsetInCU: 0x12FBB, offset: 0x12FBB, size: 0x8, addend: 0x0, symName: __ZNSt3__115__tree_iteratorIxPNS_11__tree_nodeIxPvEElEppB8ue170006Ev, symObjAddr: 0xE27C, symBinAddr: 0x100012154, symSize: 0xD8 }
...
