---
triple:          'arm64-apple-darwin'
binary-path:     C. Breach of Faith
relocations:
  - { offsetInCU: 0x3B, offset: 0x3B, size: 0x8, addend: 0x0, symName: _.str, symObjAddr: 0xDC00, symBinAddr: 0x10000FB20, symSize: 0x0 }
  - { offsetInCU: 0x6B, offset: 0x6B, size: 0x8, addend: 0x0, symName: _.str.1, symObjAddr: 0xDC20, symBinAddr: 0x10000FB40, symSize: 0x0 }
  - { offsetInCU: 0x7C, offset: 0x7C, size: 0x8, addend: 0x0, symName: _.str.2, symObjAddr: 0xDC40, symBinAddr: 0x10000FB60, symSize: 0x0 }
  - { offsetInCU: 0x8D, offset: 0x8D, size: 0x8, addend: 0x0, symName: _.str.3, symObjAddr: 0xDDC0, symBinAddr: 0x10000FCE0, symSize: 0x0 }
  - { offsetInCU: 0xAA, offset: 0xAA, size: 0x8, addend: 0x0, symName: _.str.4, symObjAddr: 0xDC60, symBinAddr: 0x10000FB80, symSize: 0x0 }
  - { offsetInCU: 0xBC, offset: 0xBC, size: 0x8, addend: 0x0, symName: _.str.14, symObjAddr: 0xDC80, symBinAddr: 0x10000FBA0, symSize: 0x0 }
  - { offsetInCU: 0xDA, offset: 0xDA, size: 0x8, addend: 0x0, symName: _.str.27, symObjAddr: 0xDCA0, symBinAddr: 0x10000FBC0, symSize: 0x0 }
  - { offsetInCU: 0x33B2, offset: 0x33B2, size: 0x8, addend: 0x0, symName: __ZNSt3__124__put_character_sequenceB8ue170006IcNS_11char_traitsIcEEEERNS_13basic_ostreamIT_T0_EES7_PKS4_m, symObjAddr: 0x38D0, symBinAddr: 0x1000054E0, symSize: 0x910 }
  - { offsetInCU: 0x8C8A, offset: 0x8C8A, size: 0x8, addend: 0x0, symName: __ZNSt3__1lsB8ue170006IcNS_11char_traitsIcEENS_9allocatorIcEEEERNS_13basic_ostreamIT_T0_EES9_RKNS_12basic_stringIS6_S7_T1_EE, symObjAddr: 0xB8C, symBinAddr: 0x10000279C, symSize: 0x48 }
  - { offsetInCU: 0x8D44, offset: 0x8D44, size: 0x8, addend: 0x0, symName: __ZNSt3__1neB8ue170006ERKNS_14__bit_iteratorINS_6vectorIbNS_9allocatorIbEEEELb0ELm0EEES7_, symObjAddr: 0x1104, symBinAddr: 0x100002D14, symSize: 0xC4 }
  - { offsetInCU: 0x9C8E, offset: 0x9C8E, size: 0x8, addend: 0x0, symName: __ZNSt3__116__pad_and_outputB8ue170006IcNS_11char_traitsIcEEEENS_19ostreambuf_iteratorIT_T0_EES6_PKS4_S8_S8_RNS_8ios_baseES4_, symObjAddr: 0x41E0, symBinAddr: 0x100005DF0, symSize: 0x800 }
  - { offsetInCU: 0x9EEE, offset: 0x9EEE, size: 0x8, addend: 0x0, symName: __ZNSt3__120__throw_length_errorB8ue170006EPKc, symObjAddr: 0x503C, symBinAddr: 0x100006C4C, symSize: 0x78 }
  - { offsetInCU: 0xA3CB, offset: 0xA3CB, size: 0x8, addend: 0x0, symName: __ZNSt3__19use_facetB8ue170006INS_5ctypeIcEEEERKT_RKNS_6localeE, symObjAddr: 0x5B8C, symBinAddr: 0x10000779C, symSize: 0x100 }
  - { offsetInCU: 0xA427, offset: 0xA427, size: 0x8, addend: 0x0, symName: __ZNSt3__119__allocate_at_leastB8ue170006INS_9allocatorIxEEEENS_19__allocation_resultINS_16allocator_traitsIT_E7pointerEEERS5_m, symObjAddr: 0x6BE0, symBinAddr: 0x1000087F0, symSize: 0x44 }
  - { offsetInCU: 0xA5DB, offset: 0xA5DB, size: 0x8, addend: 0x0, symName: __ZNSt3__127__tree_balance_after_insertB8ue170006IPNS_16__tree_node_baseIPvEEEEvT_S5_, symObjAddr: 0xA688, symBinAddr: 0x10000C298, symSize: 0x11B8 }
  - { offsetInCU: 0xA832, offset: 0xA832, size: 0x8, addend: 0x0, symName: __ZNSt3__119__tree_right_rotateB8ue170006IPNS_16__tree_node_baseIPvEEEEvT_, symObjAddr: 0xBEB8, symBinAddr: 0x10000DAC8, symSize: 0x834 }
  - { offsetInCU: 0xA8E5, offset: 0xA8E5, size: 0x8, addend: 0x0, symName: __ZNSt3__118__tree_left_rotateB8ue170006IPNS_16__tree_node_baseIPvEEEEvT_, symObjAddr: 0xB8B0, symBinAddr: 0x10000D4C0, symSize: 0x608 }
  - { offsetInCU: 0xAD03, offset: 0xAD03, size: 0x8, addend: 0x0, symName: __ZSt28__throw_bad_array_new_lengthB8ue170006v, symObjAddr: 0x522C, symBinAddr: 0x100006E3C, symSize: 0x5C }
  - { offsetInCU: 0xDDD1, offset: 0xDDD1, size: 0x8, addend: 0x0, symName: __ZN14__DEBUG_UTIL__5printEPKc, symObjAddr: 0x0, symBinAddr: 0x100001C10, symSize: 0x30 }
  - { offsetInCU: 0xDE60, offset: 0xDE60, size: 0x8, addend: 0x0, symName: __ZN14__DEBUG_UTIL__5printEb, symObjAddr: 0x30, symBinAddr: 0x100001C40, symSize: 0x28 }
  - { offsetInCU: 0xDEBD, offset: 0xDEBD, size: 0x8, addend: 0x0, symName: __ZN14__DEBUG_UTIL__5printEc, symObjAddr: 0x58, symBinAddr: 0x100001C68, symSize: 0x21C }
  - { offsetInCU: 0xDF97, offset: 0xDF97, size: 0x8, addend: 0x0, symName: __ZN14__DEBUG_UTIL__5printEs, symObjAddr: 0x274, symBinAddr: 0x100001E84, symSize: 0xA8 }
  - { offsetInCU: 0xDFC2, offset: 0xDFC2, size: 0x8, addend: 0x0, symName: __ZN14__DEBUG_UTIL__5printEt, symObjAddr: 0x31C, symBinAddr: 0x100001F2C, symSize: 0xA8 }
  - { offsetInCU: 0xDFED, offset: 0xDFED, size: 0x8, addend: 0x0, symName: __ZN14__DEBUG_UTIL__5printEi, symObjAddr: 0x3C4, symBinAddr: 0x100001FD4, symSize: 0xA8 }
  - { offsetInCU: 0xE018, offset: 0xE018, size: 0x8, addend: 0x0, symName: __ZN14__DEBUG_UTIL__5printEj, symObjAddr: 0x46C, symBinAddr: 0x10000207C, symSize: 0xA8 }
  - { offsetInCU: 0xE043, offset: 0xE043, size: 0x8, addend: 0x0, symName: __ZN14__DEBUG_UTIL__5printEl, symObjAddr: 0x514, symBinAddr: 0x100002124, symSize: 0xA8 }
  - { offsetInCU: 0xE06E, offset: 0xE06E, size: 0x8, addend: 0x0, symName: __ZN14__DEBUG_UTIL__5printEm, symObjAddr: 0x5BC, symBinAddr: 0x1000021CC, symSize: 0xA8 }
  - { offsetInCU: 0xE099, offset: 0xE099, size: 0x8, addend: 0x0, symName: __ZN14__DEBUG_UTIL__5printEx, symObjAddr: 0x664, symBinAddr: 0x100002274, symSize: 0xA8 }
  - { offsetInCU: 0xE0C4, offset: 0xE0C4, size: 0x8, addend: 0x0, symName: __ZN14__DEBUG_UTIL__5printEy, symObjAddr: 0x70C, symBinAddr: 0x10000231C, symSize: 0xA8 }
  - { offsetInCU: 0xE0EF, offset: 0xE0EF, size: 0x8, addend: 0x0, symName: __ZN14__DEBUG_UTIL__5printEf, symObjAddr: 0x7B4, symBinAddr: 0x1000023C4, symSize: 0xA0 }
  - { offsetInCU: 0xE11A, offset: 0xE11A, size: 0x8, addend: 0x0, symName: __ZN14__DEBUG_UTIL__5printEd, symObjAddr: 0x854, symBinAddr: 0x100002464, symSize: 0xA0 }
  - { offsetInCU: 0xE145, offset: 0xE145, size: 0x8, addend: 0x0, symName: __ZN14__DEBUG_UTIL__5printEe, symObjAddr: 0x8F4, symBinAddr: 0x100002504, symSize: 0xA0 }
  - { offsetInCU: 0xE170, offset: 0xE170, size: 0x8, addend: 0x0, symName: __ZN14__DEBUG_UTIL__5printENSt3__112basic_stringIcNS0_11char_traitsIcEENS0_9allocatorIcEEEE, symObjAddr: 0x994, symBinAddr: 0x1000025A4, symSize: 0x1F8 }
  - { offsetInCU: 0xE21D, offset: 0xE21D, size: 0x8, addend: 0x0, symName: __ZN14__DEBUG_UTIL__5printENSt3__16vectorIbNS0_9allocatorIbEEEE, symObjAddr: 0xBD4, symBinAddr: 0x1000027E4, symSize: 0x4E4 }
  - { offsetInCU: 0xE494, offset: 0xE494, size: 0x8, addend: 0x0, symName: __ZN14__DEBUG_UTIL__7printerEPKc, symObjAddr: 0x1518, symBinAddr: 0x100003128, symSize: 0x4 }
  - { offsetInCU: 0xE4B9, offset: 0xE4B9, size: 0x8, addend: 0x0, symName: __ZN14__DEBUG_UTIL__10printerArrEPKc, symObjAddr: 0x151C, symBinAddr: 0x10000312C, symSize: 0x4 }
  - { offsetInCU: 0xE514, offset: 0xE514, size: 0x8, addend: 0x0, symName: __ZNKSt3__112basic_stringIcNS_11char_traitsIcEENS_9allocatorIcEEE13__get_pointerB8ue170006Ev, symObjAddr: 0x5E84, symBinAddr: 0x100007A94, symSize: 0x5C }
  - { offsetInCU: 0xE577, offset: 0xE577, size: 0x8, addend: 0x0, symName: __ZNKSt3__112basic_stringIcNS_11char_traitsIcEENS_9allocatorIcEEE4sizeB8ue170006Ev, symObjAddr: 0x5E28, symBinAddr: 0x100007A38, symSize: 0x5C }
  - { offsetInCU: 0xE698, offset: 0xE698, size: 0x8, addend: 0x0, symName: __ZNKSt3__114__bit_iteratorINS_6vectorIbNS_9allocatorIbEEEELb0ELm0EEdeB8ue170006Ev, symObjAddr: 0x11C8, symBinAddr: 0x100002DD8, symSize: 0xCC }
  - { offsetInCU: 0xE6BF, offset: 0xE6BF, size: 0x8, addend: 0x0, symName: __ZNKSt3__115__bit_referenceINS_6vectorIbNS_9allocatorIbEEEELb1EEcvbB8ue170006Ev, symObjAddr: 0x1294, symBinAddr: 0x100002EA4, symSize: 0xE4 }
  - { offsetInCU: 0xE6E6, offset: 0xE6E6, size: 0x8, addend: 0x0, symName: __ZNSt3__114__bit_iteratorINS_6vectorIbNS_9allocatorIbEEEELb0ELm0EEppB8ue170006Ev, symObjAddr: 0x1378, symBinAddr: 0x100002F88, symSize: 0x1A0 }
  - { offsetInCU: 0xE70D, offset: 0xE70D, size: 0x8, addend: 0x0, symName: __ZNSt3__16vectorIbNS_9allocatorIbEEE5beginB8ue170006Ev, symObjAddr: 0x10B8, symBinAddr: 0x100002CC8, symSize: 0x4C }
  - { offsetInCU: 0xE742, offset: 0xE742, size: 0x8, addend: 0x0, symName: __ZNSt3__16vectorIbNS_9allocatorIbEEE11__make_iterB8ue170006Em, symObjAddr: 0x60E8, symBinAddr: 0x100007CF8, symSize: 0x168 }
  - { offsetInCU: 0xEAEA, offset: 0xEAEA, size: 0x8, addend: 0x0, symName: __Z5solvev, symObjAddr: 0x1520, symBinAddr: 0x100003130, symSize: 0x1A74 }
  - { offsetInCU: 0xF2F7, offset: 0xF2F7, size: 0x8, addend: 0x0, symName: __ZNSt3__16vectorIxNS_9allocatorIxEEEC2Em, symObjAddr: 0x6250, symBinAddr: 0x100007E60, symSize: 0x338 }
  - { offsetInCU: 0xF451, offset: 0xF451, size: 0x8, addend: 0x0, symName: __ZNSt3__16__treeIxNS_4lessIxEENS_9allocatorIxEEEC2ERKS2_, symObjAddr: 0x83A4, symBinAddr: 0x100009FB4, symSize: 0x258 }
  - { offsetInCU: 0xF51C, offset: 0xF51C, size: 0x8, addend: 0x0, symName: __ZNSt3__13setIxNS_4lessIxEENS_9allocatorIxEEE6insertB8ue170006ERKx, symObjAddr: 0x2F94, symBinAddr: 0x100004BA4, symSize: 0x210 }
  - { offsetInCU: 0xF5A7, offset: 0xF5A7, size: 0x8, addend: 0x0, symName: __ZNKSt3__16__treeIxNS_4lessIxEENS_9allocatorIxEEE14__count_uniqueIxEEmRKT_, symObjAddr: 0xCCBC, symBinAddr: 0x10000E8CC, symSize: 0x27C }
  - { offsetInCU: 0xF675, offset: 0xF675, size: 0x8, addend: 0x0, symName: __ZNSt3__16__treeIxNS_4lessIxEENS_9allocatorIxEEED1Ev, symObjAddr: 0x896C, symBinAddr: 0x10000A57C, symSize: 0x64 }
  - { offsetInCU: 0xF6E1, offset: 0xF6E1, size: 0x8, addend: 0x0, symName: __ZNSt3__16vectorIxNS_9allocatorIxEEE16__destroy_vectorclB8ue170006Ev, symObjAddr: 0x7E0C, symBinAddr: 0x100009A1C, symSize: 0x240 }
  - { offsetInCU: 0xF811, offset: 0xF811, size: 0x8, addend: 0x0, symName: __ZNSt3__13setIxNS_4lessIxEENS_9allocatorIxEEED1B8ue170006Ev, symObjAddr: 0x31A4, symBinAddr: 0x100004DB4, symSize: 0x58 }
  - { offsetInCU: 0xF858, offset: 0xF858, size: 0x8, addend: 0x0, symName: __ZNSt3__16vectorIxNS_9allocatorIxEEED1B8ue170006Ev, symObjAddr: 0x31FC, symBinAddr: 0x100004E0C, symSize: 0x1A0 }
  - { offsetInCU: 0xF8FE, offset: 0xF8FE, size: 0x8, addend: 0x0, symName: __ZNSt3__16__treeIxNS_4lessIxEENS_9allocatorIxEEE15__insert_uniqueB8ue170006ERKx, symObjAddr: 0x8F04, symBinAddr: 0x10000AB14, symSize: 0x50 }
  - { offsetInCU: 0xF943, offset: 0xF943, size: 0x8, addend: 0x0, symName: __ZNSt3__14pairINS_21__tree_const_iteratorIxPNS_11__tree_nodeIxPvEElEEbEC2B8ue170006INS_15__tree_iteratorIxS5_lEEbLS3_0EEEONS0_IT_T0_EE, symObjAddr: 0xCB50, symBinAddr: 0x10000E760, symSize: 0x16C }
  - { offsetInCU: 0xF9CD, offset: 0xF9CD, size: 0x8, addend: 0x0, symName: _main, symObjAddr: 0x339C, symBinAddr: 0x100004FAC, symSize: 0x394 }
  - { offsetInCU: 0xFA2B, offset: 0xFA2B, size: 0x8, addend: 0x0, symName: __ZNSt3__19basic_iosIcNS_11char_traitsIcEEE3tieB8ue170006EPNS_13basic_ostreamIcS2_EE, symObjAddr: 0x3730, symBinAddr: 0x100005340, symSize: 0x1A0 }
  - { offsetInCU: 0xFAF6, offset: 0xFAF6, size: 0x8, addend: 0x0, symName: __ZNSt3__119ostreambuf_iteratorIcNS_11char_traitsIcEEEC2B8ue170006ERNS_13basic_ostreamIcS2_EE, symObjAddr: 0x54D4, symBinAddr: 0x1000070E4, symSize: 0x298 }
  - { offsetInCU: 0xFB55, offset: 0xFB55, size: 0x8, addend: 0x0, symName: __ZNKSt3__19basic_iosIcNS_11char_traitsIcEEE4fillB8ue170006Ev, symObjAddr: 0x49E0, symBinAddr: 0x1000065F0, symSize: 0x248 }
  - { offsetInCU: 0xFB98, offset: 0xFB98, size: 0x8, addend: 0x0, symName: __ZNSt3__19basic_iosIcNS_11char_traitsIcEEE8setstateB8ue170006Ej, symObjAddr: 0x4C28, symBinAddr: 0x100006838, symSize: 0xFC }
  - { offsetInCU: 0xFCA7, offset: 0xFCA7, size: 0x8, addend: 0x0, symName: __ZNSt3__117__compressed_pairINS_12basic_stringIcNS_11char_traitsIcEENS_9allocatorIcEEE5__repES5_EC1B8ue170006INS_18__default_init_tagESA_EEOT_OT0_, symObjAddr: 0x4ED0, symBinAddr: 0x100006AE0, symSize: 0x98 }
  - { offsetInCU: 0xFD48, offset: 0xFD48, size: 0x8, addend: 0x0, symName: __ZNSt3__112basic_stringIcNS_11char_traitsIcEENS_9allocatorIcEEE13__get_pointerB8ue170006Ev, symObjAddr: 0x5288, symBinAddr: 0x100006E98, symSize: 0x5C }
  - { offsetInCU: 0xFDAB, offset: 0xFDAB, size: 0x8, addend: 0x0, symName: __ZNSt3__18ios_base5widthB8ue170006El, symObjAddr: 0x4D30, symBinAddr: 0x100006940, symSize: 0x1A0 }
  - { offsetInCU: 0xFDF4, offset: 0xFDF4, size: 0x8, addend: 0x0, symName: __ZNKSt3__19basic_iosIcNS_11char_traitsIcEEE5widenB8ue170006Ec, symObjAddr: 0x584C, symBinAddr: 0x10000745C, symSize: 0x340 }
  - { offsetInCU: 0xFE77, offset: 0xFE77, size: 0x8, addend: 0x0, symName: __ZNSt3__18ios_base8setstateB8ue170006Ej, symObjAddr: 0x5C8C, symBinAddr: 0x10000789C, symSize: 0x19C }
  - { offsetInCU: 0xFF14, offset: 0xFF14, size: 0x8, addend: 0x0, symName: __ZNSt3__122__compressed_pair_elemINS_9allocatorIcEELi1ELb1EEC2B8ue170006ENS_18__default_init_tagE, symObjAddr: 0x4F68, symBinAddr: 0x100006B78, symSize: 0x7C }
  - { offsetInCU: 0xFFC5, offset: 0xFFC5, size: 0x8, addend: 0x0, symName: __ZNSt3__112basic_stringIcNS_11char_traitsIcEENS_9allocatorIcEEE19__get_short_pointerB8ue170006Ev, symObjAddr: 0x4FE4, symBinAddr: 0x100006BF4, symSize: 0x58 }
  - { offsetInCU: 0xFFFA, offset: 0xFFFA, size: 0x8, addend: 0x0, symName: __ZNSt3__117__compressed_pairINS_12basic_stringIcNS_11char_traitsIcEENS_9allocatorIcEEE5__repES5_E5firstB8ue170006Ev, symObjAddr: 0x5160, symBinAddr: 0x100006D70, symSize: 0xCC }
  - { offsetInCU: 0x1003F, offset: 0x1003F, size: 0x8, addend: 0x0, symName: __ZNSt12length_errorC1B8ue170006EPKc, symObjAddr: 0x50B4, symBinAddr: 0x100006CC4, symSize: 0xAC }
  - { offsetInCU: 0x100DB, offset: 0x100DB, size: 0x8, addend: 0x0, symName: __ZNKSt3__112basic_stringIcNS_11char_traitsIcEENS_9allocatorIcEEE9__is_longB8ue170006Ev, symObjAddr: 0x52E4, symBinAddr: 0x100006EF4, symSize: 0x9C }
  - { offsetInCU: 0x1010F, offset: 0x1010F, size: 0x8, addend: 0x0, symName: __ZNSt3__112basic_stringIcNS_11char_traitsIcEENS_9allocatorIcEEE18__get_long_pointerB8ue170006Ev, symObjAddr: 0x5380, symBinAddr: 0x100006F90, symSize: 0x88 }
  - { offsetInCU: 0x10143, offset: 0x10143, size: 0x8, addend: 0x0, symName: __ZNKSt3__117__compressed_pairINS_12basic_stringIcNS_11char_traitsIcEENS_9allocatorIcEEE5__repES5_E5firstB8ue170006Ev, symObjAddr: 0x5408, symBinAddr: 0x100007018, symSize: 0xCC }
  - { offsetInCU: 0x101C2, offset: 0x101C2, size: 0x8, addend: 0x0, symName: __ZNKSt3__18ios_base5rdbufB8ue170006Ev, symObjAddr: 0x576C, symBinAddr: 0x10000737C, symSize: 0xE0 }
  - { offsetInCU: 0x1024F, offset: 0x1024F, size: 0x8, addend: 0x0, symName: __ZNKSt3__112basic_stringIcNS_11char_traitsIcEENS_9allocatorIcEEE15__get_long_sizeB8ue170006Ev, symObjAddr: 0x5FC0, symBinAddr: 0x100007BD0, symSize: 0x8C }
  - { offsetInCU: 0x10283, offset: 0x10283, size: 0x8, addend: 0x0, symName: __ZNKSt3__112basic_stringIcNS_11char_traitsIcEENS_9allocatorIcEEE16__get_short_sizeB8ue170006Ev, symObjAddr: 0x604C, symBinAddr: 0x100007C5C, symSize: 0x9C }
  - { offsetInCU: 0x102B7, offset: 0x102B7, size: 0x8, addend: 0x0, symName: __ZNKSt3__112basic_stringIcNS_11char_traitsIcEENS_9allocatorIcEEE18__get_long_pointerB8ue170006Ev, symObjAddr: 0x5EE0, symBinAddr: 0x100007AF0, symSize: 0x88 }
  - { offsetInCU: 0x102EB, offset: 0x102EB, size: 0x8, addend: 0x0, symName: __ZNKSt3__112basic_stringIcNS_11char_traitsIcEENS_9allocatorIcEEE19__get_short_pointerB8ue170006Ev, symObjAddr: 0x5F68, symBinAddr: 0x100007B78, symSize: 0x58 }
  - { offsetInCU: 0x103E8, offset: 0x103E8, size: 0x8, addend: 0x0, symName: __ZNSt3__117__compressed_pairIPxNS_9allocatorIxEEEC2B8ue170006IDnNS_18__default_init_tagEEEOT_OT0_, symObjAddr: 0x6A70, symBinAddr: 0x100008680, symSize: 0xB0 }
  - { offsetInCU: 0x1046A, offset: 0x1046A, size: 0x8, addend: 0x0, symName: __ZNSt3__16vectorIxNS_9allocatorIxEEE11__vallocateB8ue170006Em, symObjAddr: 0x6588, symBinAddr: 0x100008198, symSize: 0x1A0 }
  - { offsetInCU: 0x10555, offset: 0x10555, size: 0x8, addend: 0x0, symName: __ZNSt3__16vectorIxNS_9allocatorIxEEE18__construct_at_endEm, symObjAddr: 0x6728, symBinAddr: 0x100008338, symSize: 0x300 }
  - { offsetInCU: 0x10691, offset: 0x10691, size: 0x8, addend: 0x0, symName: __ZNSt3__128__exception_guard_exceptionsINS_6vectorIxNS_9allocatorIxEEE16__destroy_vectorEED2B8ue170006Ev, symObjAddr: 0x7D28, symBinAddr: 0x100009938, symSize: 0xE4 }
  - { offsetInCU: 0x106D0, offset: 0x106D0, size: 0x8, addend: 0x0, symName: __ZNSt3__128__exception_guard_exceptionsINS_6vectorIxNS_9allocatorIxEEE16__destroy_vectorEED1B8ue170006Ev, symObjAddr: 0x6A28, symBinAddr: 0x100008638, symSize: 0x48 }
  - { offsetInCU: 0x10734, offset: 0x10734, size: 0x8, addend: 0x0, symName: __ZNKSt3__16vectorIxNS_9allocatorIxEEE7__allocB8ue170006Ev, symObjAddr: 0x6F14, symBinAddr: 0x100008B24, symSize: 0x70 }
  - { offsetInCU: 0x10769, offset: 0x10769, size: 0x8, addend: 0x0, symName: __ZNSt3__16vectorIxNS_9allocatorIxEEE7__allocB8ue170006Ev, symObjAddr: 0x6C24, symBinAddr: 0x100008834, symSize: 0x70 }
  - { offsetInCU: 0x10799, offset: 0x10799, size: 0x8, addend: 0x0, symName: __ZNSt3__117__compressed_pairIPxNS_9allocatorIxEEE5firstB8ue170006Ev, symObjAddr: 0x712C, symBinAddr: 0x100008D3C, symSize: 0xCC }
  - { offsetInCU: 0x107DE, offset: 0x107DE, size: 0x8, addend: 0x0, symName: __ZNKSt3__16vectorIxNS_9allocatorIxEEE14__annotate_newB8ue170006Em, symObjAddr: 0x6C94, symBinAddr: 0x1000088A4, symSize: 0x280 }
  - { offsetInCU: 0x108D4, offset: 0x108D4, size: 0x8, addend: 0x0, symName: __ZNKSt3__16vectorIxNS_9allocatorIxEEE20__throw_length_errorB8ue170006Ev, symObjAddr: 0x6B9C, symBinAddr: 0x1000087AC, symSize: 0x44 }
  - { offsetInCU: 0x109EA, offset: 0x109EA, size: 0x8, addend: 0x0, symName: __ZNSt3__16vectorIxNS_9allocatorIxEEE21_ConstructTransactionC2B8ue170006ERS3_m, symObjAddr: 0x73C0, symBinAddr: 0x100008FD0, symSize: 0x194 }
  - { offsetInCU: 0x10A42, offset: 0x10A42, size: 0x8, addend: 0x0, symName: __ZNSt3__117__compressed_pairIPxNS_9allocatorIxEEE6secondB8ue170006Ev, symObjAddr: 0x7058, symBinAddr: 0x100008C68, symSize: 0xD4 }
  - { offsetInCU: 0x10A86, offset: 0x10A86, size: 0x8, addend: 0x0, symName: __ZNSt3__16vectorIxNS_9allocatorIxEEE21_ConstructTransactionD2B8ue170006Ev, symObjAddr: 0x78B8, symBinAddr: 0x1000094C8, symSize: 0x214 }
  - { offsetInCU: 0x10AED, offset: 0x10AED, size: 0x8, addend: 0x0, symName: __ZNSt3__122__compressed_pair_elemINS_9allocatorIxEELi1ELb1EEC2B8ue170006ENS_18__default_init_tagE, symObjAddr: 0x6B20, symBinAddr: 0x100008730, symSize: 0x7C }
  - { offsetInCU: 0x10C1A, offset: 0x10C1A, size: 0x8, addend: 0x0, symName: __ZNKSt3__16vectorIxNS_9allocatorIxEEE8capacityB8ue170006Ev, symObjAddr: 0x71F8, symBinAddr: 0x100008E08, symSize: 0x8C }
  - { offsetInCU: 0x10C55, offset: 0x10C55, size: 0x8, addend: 0x0, symName: __ZNKSt3__117__compressed_pairIPxNS_9allocatorIxEEE6secondB8ue170006Ev, symObjAddr: 0x6F84, symBinAddr: 0x100008B94, symSize: 0xD4 }
  - { offsetInCU: 0x10CE1, offset: 0x10CE1, size: 0x8, addend: 0x0, symName: __ZNKSt3__16vectorIxNS_9allocatorIxEEE9__end_capB8ue170006Ev, symObjAddr: 0x7284, symBinAddr: 0x100008E94, symSize: 0x70 }
  - { offsetInCU: 0x10D16, offset: 0x10D16, size: 0x8, addend: 0x0, symName: __ZNKSt3__117__compressed_pairIPxNS_9allocatorIxEEE5firstB8ue170006Ev, symObjAddr: 0x72F4, symBinAddr: 0x100008F04, symSize: 0xCC }
  - { offsetInCU: 0x10D77, offset: 0x10D77, size: 0x8, addend: 0x0, symName: __ZNKSt3__16vectorIxNS_9allocatorIxEEE19__annotate_increaseB8ue170006Em, symObjAddr: 0x7554, symBinAddr: 0x100009164, symSize: 0x2D8 }
  - { offsetInCU: 0x10E81, offset: 0x10E81, size: 0x8, addend: 0x0, symName: __ZNKSt3__16vectorIxNS_9allocatorIxEEE4sizeB8ue170006Ev, symObjAddr: 0x782C, symBinAddr: 0x10000943C, symSize: 0x8C }
  - { offsetInCU: 0x10EA8, offset: 0x10EA8, size: 0x8, addend: 0x0, symName: __ZNKSt3__16vectorIxNS_9allocatorIxEEE17__annotate_shrinkB8ue170006Em, symObjAddr: 0x7ACC, symBinAddr: 0x1000096DC, symSize: 0x25C }
  - { offsetInCU: 0x1100C, offset: 0x1100C, size: 0x8, addend: 0x0, symName: __ZNSt3__16vectorIxNS_9allocatorIxEEE22__base_destruct_at_endB8ue170006EPx, symObjAddr: 0x82BC, symBinAddr: 0x100009ECC, symSize: 0xE8 }
  - { offsetInCU: 0x11067, offset: 0x11067, size: 0x8, addend: 0x0, symName: __ZNKSt3__16vectorIxNS_9allocatorIxEEE17__annotate_deleteB8ue170006Ev, symObjAddr: 0x804C, symBinAddr: 0x100009C5C, symSize: 0x270 }
  - { offsetInCU: 0x111E4, offset: 0x111E4, size: 0x8, addend: 0x0, symName: __ZNSt3__117__compressed_pairINS_15__tree_end_nodeIPNS_16__tree_node_baseIPvEEEENS_9allocatorINS_11__tree_nodeIxS3_EEEEEC2B8ue170006ILb1EvEEv, symObjAddr: 0x866C, symBinAddr: 0x10000A27C, symSize: 0xD0 }
  - { offsetInCU: 0x1126D, offset: 0x1126D, size: 0x8, addend: 0x0, symName: __ZNSt3__117__compressed_pairImNS_4lessIxEEEC2B8ue170006IiRKS2_EEOT_OT0_, symObjAddr: 0x87B8, symBinAddr: 0x10000A3C8, symSize: 0xE8 }
  - { offsetInCU: 0x112EA, offset: 0x112EA, size: 0x8, addend: 0x0, symName: __ZNSt3__16__treeIxNS_4lessIxEENS_9allocatorIxEEE10__end_nodeB8ue170006Ev, symObjAddr: 0x85FC, symBinAddr: 0x10000A20C, symSize: 0x70 }
  - { offsetInCU: 0x1131F, offset: 0x1131F, size: 0x8, addend: 0x0, symName: __ZNSt3__117__compressed_pairINS_15__tree_end_nodeIPNS_16__tree_node_baseIPvEEEENS_9allocatorINS_11__tree_nodeIxS3_EEEEE5firstB8ue170006Ev, symObjAddr: 0x88A0, symBinAddr: 0x10000A4B0, symSize: 0xCC }
  - { offsetInCU: 0x113BA, offset: 0x113BA, size: 0x8, addend: 0x0, symName: __ZNSt3__122__compressed_pair_elemINS_9allocatorINS_11__tree_nodeIxPvEEEELi1ELb1EEC2B8ue170006ENS_16__value_init_tagE, symObjAddr: 0x873C, symBinAddr: 0x10000A34C, symSize: 0x7C }
  - { offsetInCU: 0x114CC, offset: 0x114CC, size: 0x8, addend: 0x0, symName: __ZNKSt3__16__treeIxNS_4lessIxEENS_9allocatorIxEEE6__rootB8ue170006Ev, symObjAddr: 0x8BA0, symBinAddr: 0x10000A7B0, symSize: 0xE4 }
  - { offsetInCU: 0x11500, offset: 0x11500, size: 0x8, addend: 0x0, symName: __ZNSt3__16__treeIxNS_4lessIxEENS_9allocatorIxEEE7destroyEPNS_11__tree_nodeIxPvEE, symObjAddr: 0x89D0, symBinAddr: 0x10000A5E0, symSize: 0x1D0 }
  - { offsetInCU: 0x11695, offset: 0x11695, size: 0x8, addend: 0x0, symName: __ZNSt3__16__treeIxNS_4lessIxEENS_9allocatorIxEEE12__node_allocB8ue170006Ev, symObjAddr: 0x8C84, symBinAddr: 0x10000A894, symSize: 0x70 }
  - { offsetInCU: 0x116CA, offset: 0x116CA, size: 0x8, addend: 0x0, symName: __ZNKSt3__16__treeIxNS_4lessIxEENS_9allocatorIxEEE10__end_nodeB8ue170006Ev, symObjAddr: 0x8DC8, symBinAddr: 0x10000A9D8, symSize: 0x70 }
  - { offsetInCU: 0x116FF, offset: 0x116FF, size: 0x8, addend: 0x0, symName: __ZNSt3__117__compressed_pairINS_15__tree_end_nodeIPNS_16__tree_node_baseIPvEEEENS_9allocatorINS_11__tree_nodeIxS3_EEEEE6secondB8ue170006Ev, symObjAddr: 0x8CF4, symBinAddr: 0x10000A904, symSize: 0xD4 }
  - { offsetInCU: 0x11759, offset: 0x11759, size: 0x8, addend: 0x0, symName: __ZNKSt3__117__compressed_pairINS_15__tree_end_nodeIPNS_16__tree_node_baseIPvEEEENS_9allocatorINS_11__tree_nodeIxS3_EEEEE5firstB8ue170006Ev, symObjAddr: 0x8E38, symBinAddr: 0x10000AA48, symSize: 0xCC }
  - { offsetInCU: 0x117BA, offset: 0x117BA, size: 0x8, addend: 0x0, symName: __ZNSt3__16__treeIxNS_4lessIxEENS_9allocatorIxEEE25__emplace_unique_key_argsIxJRKxEEENS_4pairINS_15__tree_iteratorIxPNS_11__tree_nodeIxPvEElEEbEERKT_DpOT0_, symObjAddr: 0x8F54, symBinAddr: 0x10000AB64, symSize: 0x2D0 }
  - { offsetInCU: 0x11A33, offset: 0x11A33, size: 0x8, addend: 0x0, symName: __ZNSt3__16__treeIxNS_4lessIxEENS_9allocatorIxEEE12__find_equalIxEERPNS_16__tree_node_baseIPvEERPNS_15__tree_end_nodeISA_EERKT_, symObjAddr: 0x9224, symBinAddr: 0x10000AE34, symSize: 0x5E0 }
  - { offsetInCU: 0x11B60, offset: 0x11B60, size: 0x8, addend: 0x0, symName: __ZNSt3__16__treeIxNS_4lessIxEENS_9allocatorIxEEE16__construct_nodeIJRKxEEENS_10unique_ptrINS_11__tree_nodeIxPvEENS_22__tree_node_destructorINS3_ISC_EEEEEEDpOT_, symObjAddr: 0x9804, symBinAddr: 0x10000B414, symSize: 0x338 }
  - { offsetInCU: 0x11D53, offset: 0x11D53, size: 0x8, addend: 0x0, symName: __ZNKSt3__117__compressed_pairIPNS_11__tree_nodeIxPvEENS_22__tree_node_destructorINS_9allocatorIS3_EEEEE5firstB8ue170006Ev, symObjAddr: 0xA50C, symBinAddr: 0x10000C11C, symSize: 0xCC }
  - { offsetInCU: 0x11D98, offset: 0x11D98, size: 0x8, addend: 0x0, symName: __ZNSt3__16__treeIxNS_4lessIxEENS_9allocatorIxEEE16__insert_node_atEPNS_15__tree_end_nodeIPNS_16__tree_node_baseIPvEEEERSA_SA_, symObjAddr: 0x9B3C, symBinAddr: 0x10000B74C, symSize: 0x4BC }
  - { offsetInCU: 0x11E7D, offset: 0x11E7D, size: 0x8, addend: 0x0, symName: __ZNSt3__110unique_ptrINS_11__tree_nodeIxPvEENS_22__tree_node_destructorINS_9allocatorIS3_EEEEE7releaseB8ue170006Ev, symObjAddr: 0x9FF8, symBinAddr: 0x10000BC08, symSize: 0xC0 }
  - { offsetInCU: 0x11EDC, offset: 0x11EDC, size: 0x8, addend: 0x0, symName: __ZNSt3__110unique_ptrINS_11__tree_nodeIxPvEENS_22__tree_node_destructorINS_9allocatorIS3_EEEEE5resetB8ue170006EPS3_, symObjAddr: 0xC884, symBinAddr: 0x10000E494, symSize: 0x104 }
  - { offsetInCU: 0x11FC3, offset: 0x11FC3, size: 0x8, addend: 0x0, symName: __ZNSt3__16__treeIxNS_4lessIxEENS_9allocatorIxEEE10value_compB8ue170006Ev, symObjAddr: 0xA0B8, symBinAddr: 0x10000BCC8, symSize: 0x70 }
  - { offsetInCU: 0x12156, offset: 0x12156, size: 0x8, addend: 0x0, symName: __ZNSt3__110unique_ptrINS_11__tree_nodeIxPvEENS_22__tree_node_destructorINS_9allocatorIS3_EEEEEC1B8ue170006ILb1EvEEPS3_NS_16__dependent_typeINS_27__unique_ptr_deleter_sfinaeIS7_EEXT_EE20__good_rval_ref_typeE, symObjAddr: 0xA1FC, symBinAddr: 0x10000BE0C, symSize: 0x20C }
  - { offsetInCU: 0x1220E, offset: 0x1220E, size: 0x8, addend: 0x0, symName: __ZNSt3__117__compressed_pairIPNS_11__tree_nodeIxPvEENS_22__tree_node_destructorINS_9allocatorIS3_EEEEE6secondB8ue170006Ev, symObjAddr: 0xA5D8, symBinAddr: 0x10000C1E8, symSize: 0xB0 }
  - { offsetInCU: 0x12254, offset: 0x12254, size: 0x8, addend: 0x0, symName: __ZNSt3__16__treeIxNS_4lessIxEENS_9allocatorIxEEE4sizeB8ue170006Ev, symObjAddr: 0xB840, symBinAddr: 0x10000D450, symSize: 0x70 }
  - { offsetInCU: 0x12289, offset: 0x12289, size: 0x8, addend: 0x0, symName: __ZNSt3__117__compressed_pairIPNS_11__tree_nodeIxPvEENS_22__tree_node_destructorINS_9allocatorIS3_EEEEE5firstB8ue170006Ev, symObjAddr: 0xC7B8, symBinAddr: 0x10000E3C8, symSize: 0xCC }
  - { offsetInCU: 0x122CE, offset: 0x122CE, size: 0x8, addend: 0x0, symName: __ZNSt3__117__compressed_pairImNS_4lessIxEEE6secondB8ue170006Ev, symObjAddr: 0xA128, symBinAddr: 0x10000BD38, symSize: 0xD4 }
  - { offsetInCU: 0x123A5, offset: 0x123A5, size: 0x8, addend: 0x0, symName: __ZNSt3__117__compressed_pairIPNS_11__tree_nodeIxPvEENS_22__tree_node_destructorINS_9allocatorIS3_EEEEEC2B8ue170006IRS4_S8_EEOT_OT0_, symObjAddr: 0xA408, symBinAddr: 0x10000C018, symSize: 0x104 }
  - { offsetInCU: 0x124EE, offset: 0x124EE, size: 0x8, addend: 0x0, symName: __ZNSt3__117__compressed_pairImNS_4lessIxEEE5firstB8ue170006Ev, symObjAddr: 0xC6EC, symBinAddr: 0x10000E2FC, symSize: 0xCC }
  - { offsetInCU: 0x12581, offset: 0x12581, size: 0x8, addend: 0x0, symName: __ZNSt3__122__tree_node_destructorINS_9allocatorINS_11__tree_nodeIxPvEEEEEclB8ue170006EPS4_, symObjAddr: 0xC988, symBinAddr: 0x10000E598, symSize: 0x1C8 }
  - { offsetInCU: 0x126B8, offset: 0x126B8, size: 0x8, addend: 0x0, symName: __ZNKSt3__16__treeIxNS_4lessIxEENS_9allocatorIxEEE10value_compB8ue170006Ev, symObjAddr: 0xCF38, symBinAddr: 0x10000EB48, symSize: 0x70 }
  - { offsetInCU: 0x126ED, offset: 0x126ED, size: 0x8, addend: 0x0, symName: __ZNKSt3__117__compressed_pairImNS_4lessIxEEE6secondB8ue170006Ev, symObjAddr: 0xCFA8, symBinAddr: 0x10000EBB8, symSize: 0xD4 }
...
