---
triple:          'arm64-apple-darwin'
binary-path:     '/Users/eric/Workspace/compprog/codeforces/contest/hello2025/D_Gifts_Order.bin'
relocations:
  - { offsetInCU: 0x3B, offset: 0x3B, size: 0x8, addend: 0x0, symName: _.str, symObjAddr: 0x17760, symBinAddr: 0x100019620, symSize: 0x0 }
  - { offsetInCU: 0x6B, offset: 0x6B, size: 0x8, addend: 0x0, symName: _.str.1, symObjAddr: 0x17780, symBinAddr: 0x100019640, symSize: 0x0 }
  - { offsetInCU: 0x7C, offset: 0x7C, size: 0x8, addend: 0x0, symName: _.str.2, symObjAddr: 0x177A0, symBinAddr: 0x100019660, symSize: 0x0 }
  - { offsetInCU: 0x8D, offset: 0x8D, size: 0x8, addend: 0x0, symName: _.str.3, symObjAddr: 0x14F40, symBinAddr: 0x100016DC0, symSize: 0x0 }
  - { offsetInCU: 0xAA, offset: 0xAA, size: 0x8, addend: 0x0, symName: _.str.4, symObjAddr: 0x177C0, symBinAddr: 0x100019680, symSize: 0x0 }
  - { offsetInCU: 0xBB, offset: 0xBB, size: 0x8, addend: 0x0, symName: _.str.6, symObjAddr: 0x177E0, symBinAddr: 0x1000196A0, symSize: 0x0 }
  - { offsetInCU: 0xD8, offset: 0xD8, size: 0x8, addend: 0x0, symName: _.str.7, symObjAddr: 0x17800, symBinAddr: 0x1000196C0, symSize: 0x0 }
  - { offsetInCU: 0xF5, offset: 0xF5, size: 0x8, addend: 0x0, symName: _.str.8, symObjAddr: 0x17820, symBinAddr: 0x1000196E0, symSize: 0x0 }
  - { offsetInCU: 0x113, offset: 0x113, size: 0x8, addend: 0x0, symName: _.str.22, symObjAddr: 0x17840, symBinAddr: 0x100019700, symSize: 0x0 }
  - { offsetInCU: 0x131, offset: 0x131, size: 0x8, addend: 0x0, symName: _.str.34, symObjAddr: 0x17860, symBinAddr: 0x100019720, symSize: 0x0 }
  - { offsetInCU: 0x14E, offset: 0x14E, size: 0x8, addend: 0x0, symName: _.str.38, symObjAddr: 0x17880, symBinAddr: 0x100019740, symSize: 0x0 }
  - { offsetInCU: 0x15F, offset: 0x15F, size: 0x8, addend: 0x0, symName: _.str.39, symObjAddr: 0x178A0, symBinAddr: 0x100019760, symSize: 0x0 }
  - { offsetInCU: 0x170, offset: 0x170, size: 0x8, addend: 0x0, symName: _.str.40, symObjAddr: 0x178C0, symBinAddr: 0x100019780, symSize: 0x0 }
  - { offsetInCU: 0x3B99, offset: 0x3B99, size: 0x8, addend: 0x0, symName: __ZNSt3__124__put_character_sequenceB8ue170006IcNS_11char_traitsIcEEEERNS_13basic_ostreamIT_T0_EES7_PKS4_m, symObjAddr: 0x46D8, symBinAddr: 0x100006230, symSize: 0x910 }
  - { offsetInCU: 0x9CE6, offset: 0x9CE6, size: 0x8, addend: 0x0, symName: __ZNSt3__1lsB8ue170006IcNS_11char_traitsIcEENS_9allocatorIcEEEERNS_13basic_ostreamIT_T0_EES9_RKNS_12basic_stringIS6_S7_T1_EE, symObjAddr: 0xB8C, symBinAddr: 0x1000026E4, symSize: 0x48 }
  - { offsetInCU: 0x9DA0, offset: 0x9DA0, size: 0x8, addend: 0x0, symName: __ZNSt3__1neB8ue170006ERKNS_14__bit_iteratorINS_6vectorIbNS_9allocatorIbEEEELb0ELm0EEES7_, symObjAddr: 0x1104, symBinAddr: 0x100002C5C, symSize: 0xC4 }
  - { offsetInCU: 0x9E5C, offset: 0x9E5C, size: 0x8, addend: 0x0, symName: __ZNSt3__116__tree_prev_iterB8ue170006IPNS_16__tree_node_baseIPvEEPNS_15__tree_end_nodeIS4_EEEET_T0_, symObjAddr: 0x4260, symBinAddr: 0x100005DB8, symSize: 0x3D0 }
  - { offsetInCU: 0x9F4C, offset: 0x9F4C, size: 0x8, addend: 0x0, symName: __ZNSt3__116__pad_and_outputB8ue170006IcNS_11char_traitsIcEEEENS_19ostreambuf_iteratorIT_T0_EES6_PKS4_S8_S8_RNS_8ios_baseES4_, symObjAddr: 0x4FE8, symBinAddr: 0x100006B40, symSize: 0x800 }
  - { offsetInCU: 0xA1AB, offset: 0xA1AB, size: 0x8, addend: 0x0, symName: __ZNSt3__120__throw_length_errorB8ue170006EPKc, symObjAddr: 0x5E38, symBinAddr: 0x100007990, symSize: 0x78 }
  - { offsetInCU: 0xA688, offset: 0xA688, size: 0x8, addend: 0x0, symName: __ZNSt3__19use_facetB8ue170006INS_5ctypeIcEEEERKT_RKNS_6localeE, symObjAddr: 0x6988, symBinAddr: 0x1000084E0, symSize: 0x100 }
  - { offsetInCU: 0xA6E3, offset: 0xA6E3, size: 0x8, addend: 0x0, symName: __ZNSt3__119__allocate_at_leastB8ue170006INS_9allocatorIxEEEENS_19__allocation_resultINS_16allocator_traitsIT_E7pointerEEERS5_m, symObjAddr: 0x79DC, symBinAddr: 0x100009534, symSize: 0x44 }
  - { offsetInCU: 0xA894, offset: 0xA894, size: 0x8, addend: 0x0, symName: __ZNSt3__127__tree_balance_after_insertB8ue170006IPNS_16__tree_node_baseIPvEEEEvT_S5_, symObjAddr: 0xB530, symBinAddr: 0x10000D088, symSize: 0x11B8 }
  - { offsetInCU: 0xAB14, offset: 0xAB14, size: 0x8, addend: 0x0, symName: __ZNSt3__119__tree_right_rotateB8ue170006IPNS_16__tree_node_baseIPvEEEEvT_, symObjAddr: 0xCD60, symBinAddr: 0x10000E8B8, symSize: 0x834 }
  - { offsetInCU: 0xABC7, offset: 0xABC7, size: 0x8, addend: 0x0, symName: __ZNSt3__118__tree_left_rotateB8ue170006IPNS_16__tree_node_baseIPvEEEEvT_, symObjAddr: 0xC758, symBinAddr: 0x10000E2B0, symSize: 0x608 }
  - { offsetInCU: 0xACCD, offset: 0xACCD, size: 0x8, addend: 0x0, symName: __ZNSt3__116__tree_next_iterB8ue170006IPNS_15__tree_end_nodeIPNS_16__tree_node_baseIPvEEEES5_EET_T0_, symObjAddr: 0xE6B8, symBinAddr: 0x100010210, symSize: 0x41C }
  - { offsetInCU: 0xADC8, offset: 0xADC8, size: 0x8, addend: 0x0, symName: __ZNSt3__113__tree_removeB8ue170006IPNS_16__tree_node_baseIPvEEEEvT_S5_, symObjAddr: 0xF6C8, symBinAddr: 0x100011220, symSize: 0x3EC8 }
  - { offsetInCU: 0xB127, offset: 0xB127, size: 0x8, addend: 0x0, symName: __ZNSt3__111__tree_nextB8ue170006IPNS_16__tree_node_baseIPvEEEET_S5_, symObjAddr: 0x13590, symBinAddr: 0x1000150E8, symSize: 0x3E0 }
  - { offsetInCU: 0xB5B3, offset: 0xB5B3, size: 0x8, addend: 0x0, symName: __ZSt28__throw_bad_array_new_lengthB8ue170006v, symObjAddr: 0x6028, symBinAddr: 0x100007B80, symSize: 0x5C }
  - { offsetInCU: 0xE7DB, offset: 0xE7DB, size: 0x8, addend: 0x0, symName: __ZN14__DEBUG_UTIL__5printEPKc, symObjAddr: 0x0, symBinAddr: 0x100001B58, symSize: 0x30 }
  - { offsetInCU: 0xE867, offset: 0xE867, size: 0x8, addend: 0x0, symName: __ZN14__DEBUG_UTIL__5printEb, symObjAddr: 0x30, symBinAddr: 0x100001B88, symSize: 0x28 }
  - { offsetInCU: 0xE8C2, offset: 0xE8C2, size: 0x8, addend: 0x0, symName: __ZN14__DEBUG_UTIL__5printEc, symObjAddr: 0x58, symBinAddr: 0x100001BB0, symSize: 0x21C }
  - { offsetInCU: 0xE999, offset: 0xE999, size: 0x8, addend: 0x0, symName: __ZN14__DEBUG_UTIL__5printEs, symObjAddr: 0x274, symBinAddr: 0x100001DCC, symSize: 0xA8 }
  - { offsetInCU: 0xE9C3, offset: 0xE9C3, size: 0x8, addend: 0x0, symName: __ZN14__DEBUG_UTIL__5printEt, symObjAddr: 0x31C, symBinAddr: 0x100001E74, symSize: 0xA8 }
  - { offsetInCU: 0xE9ED, offset: 0xE9ED, size: 0x8, addend: 0x0, symName: __ZN14__DEBUG_UTIL__5printEi, symObjAddr: 0x3C4, symBinAddr: 0x100001F1C, symSize: 0xA8 }
  - { offsetInCU: 0xEA0B, offset: 0xEA0B, size: 0x8, addend: 0x0, symName: __ZN14__DEBUG_UTIL__5printEj, symObjAddr: 0x46C, symBinAddr: 0x100001FC4, symSize: 0xA8 }
  - { offsetInCU: 0xEA35, offset: 0xEA35, size: 0x8, addend: 0x0, symName: __ZN14__DEBUG_UTIL__5printEl, symObjAddr: 0x514, symBinAddr: 0x10000206C, symSize: 0xA8 }
  - { offsetInCU: 0xEA5F, offset: 0xEA5F, size: 0x8, addend: 0x0, symName: __ZN14__DEBUG_UTIL__5printEm, symObjAddr: 0x5BC, symBinAddr: 0x100002114, symSize: 0xA8 }
  - { offsetInCU: 0xEA89, offset: 0xEA89, size: 0x8, addend: 0x0, symName: __ZN14__DEBUG_UTIL__5printEx, symObjAddr: 0x664, symBinAddr: 0x1000021BC, symSize: 0xA8 }
  - { offsetInCU: 0xEAA7, offset: 0xEAA7, size: 0x8, addend: 0x0, symName: __ZN14__DEBUG_UTIL__5printEy, symObjAddr: 0x70C, symBinAddr: 0x100002264, symSize: 0xA8 }
  - { offsetInCU: 0xEAD1, offset: 0xEAD1, size: 0x8, addend: 0x0, symName: __ZN14__DEBUG_UTIL__5printEf, symObjAddr: 0x7B4, symBinAddr: 0x10000230C, symSize: 0xA0 }
  - { offsetInCU: 0xEAFB, offset: 0xEAFB, size: 0x8, addend: 0x0, symName: __ZN14__DEBUG_UTIL__5printEd, symObjAddr: 0x854, symBinAddr: 0x1000023AC, symSize: 0xA0 }
  - { offsetInCU: 0xEB25, offset: 0xEB25, size: 0x8, addend: 0x0, symName: __ZN14__DEBUG_UTIL__5printEe, symObjAddr: 0x8F4, symBinAddr: 0x10000244C, symSize: 0xA0 }
  - { offsetInCU: 0xEB4F, offset: 0xEB4F, size: 0x8, addend: 0x0, symName: __ZN14__DEBUG_UTIL__5printENSt3__112basic_stringIcNS0_11char_traitsIcEENS0_9allocatorIcEEEE, symObjAddr: 0x994, symBinAddr: 0x1000024EC, symSize: 0x1F8 }
  - { offsetInCU: 0xEBFA, offset: 0xEBFA, size: 0x8, addend: 0x0, symName: __ZN14__DEBUG_UTIL__5printENSt3__16vectorIbNS0_9allocatorIbEEEE, symObjAddr: 0xBD4, symBinAddr: 0x10000272C, symSize: 0x4E4 }
  - { offsetInCU: 0xEE6A, offset: 0xEE6A, size: 0x8, addend: 0x0, symName: __ZN14__DEBUG_UTIL__7printerEPKc, symObjAddr: 0x1518, symBinAddr: 0x100003070, symSize: 0x4 }
  - { offsetInCU: 0xEE8F, offset: 0xEE8F, size: 0x8, addend: 0x0, symName: __ZN14__DEBUG_UTIL__10printerArrEPKc, symObjAddr: 0x151C, symBinAddr: 0x100003074, symSize: 0x4 }
  - { offsetInCU: 0xEEB4, offset: 0xEEB4, size: 0x8, addend: 0x0, symName: __ZN14__DEBUG_UTIL__7printerIRNSt3__18multisetINS1_4pairIxiEENS1_4lessIS4_EENS1_9allocatorIS4_EEEEJSA_EEEvPKcOT_DpOT0_, symObjAddr: 0x3104, symBinAddr: 0x100004C5C, symSize: 0x5A0 }
  - { offsetInCU: 0xEFB8, offset: 0xEFB8, size: 0x8, addend: 0x0, symName: __ZN14__DEBUG_UTIL__5printIRNSt3__18multisetINS1_4pairIxiEENS1_4lessIS4_EENS1_9allocatorIS4_EEEEEEvOT_, symObjAddr: 0xD9F8, symBinAddr: 0x10000F550, symSize: 0x2E0 }
  - { offsetInCU: 0xF173, offset: 0xF173, size: 0x8, addend: 0x0, symName: __ZN14__DEBUG_UTIL__7printerIRNSt3__18multisetINS1_4pairIxiEENS1_4lessIS4_EENS1_9allocatorIS4_EEEEJEEEvPKcOT_DpOT0_, symObjAddr: 0xDCD8, symBinAddr: 0x10000F830, symSize: 0x578 }
  - { offsetInCU: 0xF248, offset: 0xF248, size: 0x8, addend: 0x0, symName: __ZN14__DEBUG_UTIL__5printIxiEEvNSt3__14pairIT_T0_EE, symObjAddr: 0xE2B8, symBinAddr: 0x10000FE10, symSize: 0x328 }
  - { offsetInCU: 0xF3C3, offset: 0xF3C3, size: 0x8, addend: 0x0, symName: __ZNKSt3__112basic_stringIcNS_11char_traitsIcEENS_9allocatorIcEEE13__get_pointerB8ue170006Ev, symObjAddr: 0x6C80, symBinAddr: 0x1000087D8, symSize: 0x5C }
  - { offsetInCU: 0xF426, offset: 0xF426, size: 0x8, addend: 0x0, symName: __ZNKSt3__112basic_stringIcNS_11char_traitsIcEENS_9allocatorIcEEE4sizeB8ue170006Ev, symObjAddr: 0x6C24, symBinAddr: 0x10000877C, symSize: 0x5C }
  - { offsetInCU: 0xF547, offset: 0xF547, size: 0x8, addend: 0x0, symName: __ZNKSt3__114__bit_iteratorINS_6vectorIbNS_9allocatorIbEEEELb0ELm0EEdeB8ue170006Ev, symObjAddr: 0x11C8, symBinAddr: 0x100002D20, symSize: 0xCC }
  - { offsetInCU: 0xF56E, offset: 0xF56E, size: 0x8, addend: 0x0, symName: __ZNKSt3__115__bit_referenceINS_6vectorIbNS_9allocatorIbEEEELb1EEcvbB8ue170006Ev, symObjAddr: 0x1294, symBinAddr: 0x100002DEC, symSize: 0xE4 }
  - { offsetInCU: 0xF595, offset: 0xF595, size: 0x8, addend: 0x0, symName: __ZNSt3__114__bit_iteratorINS_6vectorIbNS_9allocatorIbEEEELb0ELm0EEppB8ue170006Ev, symObjAddr: 0x1378, symBinAddr: 0x100002ED0, symSize: 0x1A0 }
  - { offsetInCU: 0xF5BC, offset: 0xF5BC, size: 0x8, addend: 0x0, symName: __ZNSt3__16vectorIbNS_9allocatorIbEEE5beginB8ue170006Ev, symObjAddr: 0x10B8, symBinAddr: 0x100002C10, symSize: 0x4C }
  - { offsetInCU: 0xF5F1, offset: 0xF5F1, size: 0x8, addend: 0x0, symName: __ZNSt3__16vectorIbNS_9allocatorIbEEE11__make_iterB8ue170006Em, symObjAddr: 0x6EE4, symBinAddr: 0x100008A3C, symSize: 0x168 }
  - { offsetInCU: 0xF90A, offset: 0xF90A, size: 0x8, addend: 0x0, symName: __Z5solvev, symObjAddr: 0x1520, symBinAddr: 0x100003078, symSize: 0x1B80 }
  - { offsetInCU: 0x102EE, offset: 0x102EE, size: 0x8, addend: 0x0, symName: __ZNSt3__16vectorIxNS_9allocatorIxEEEC2Em, symObjAddr: 0x704C, symBinAddr: 0x100008BA4, symSize: 0x338 }
  - { offsetInCU: 0x10446, offset: 0x10446, size: 0x8, addend: 0x0, symName: __ZNSt3__16__treeINS_4pairIxiEENS_4lessIS2_EENS_9allocatorIS2_EEEC2ERKS4_, symObjAddr: 0x91A0, symBinAddr: 0x10000ACF8, symSize: 0x258 }
  - { offsetInCU: 0x10511, offset: 0x10511, size: 0x8, addend: 0x0, symName: __ZNSt3__18multisetINS_4pairIxiEENS_4lessIS2_EENS_9allocatorIS2_EEE7emplaceB8ue170006IJxRiEEENS_21__tree_const_iteratorIS2_PNS_11__tree_nodeIS2_PvEElEEDpOT_, symObjAddr: 0x30A0, symBinAddr: 0x100004BF8, symSize: 0x64 }
  - { offsetInCU: 0x10576, offset: 0x10576, size: 0x8, addend: 0x0, symName: __ZNSt3__18multisetINS_4pairIxiEENS_4lessIS2_EENS_9allocatorIS2_EEE3endB8ue170006Ev, symObjAddr: 0xE250, symBinAddr: 0x10000FDA8, symSize: 0x68 }
  - { offsetInCU: 0x105C2, offset: 0x105C2, size: 0x8, addend: 0x0, symName: __ZNKSt3__116reverse_iteratorINS_21__tree_const_iteratorINS_4pairIxiEEPNS_11__tree_nodeIS3_PvEElEEEdeB8ue170006Ev, symObjAddr: 0x3F14, symBinAddr: 0x100005A6C, symSize: 0x194 }
  - { offsetInCU: 0x10615, offset: 0x10615, size: 0x8, addend: 0x0, symName: __ZNSt3__16__treeINS_4pairIxiEENS_4lessIS2_EENS_9allocatorIS2_EEE5beginB8ue170006Ev, symObjAddr: 0xEAD4, symBinAddr: 0x10001062C, symSize: 0x8C }
  - { offsetInCU: 0x1065B, offset: 0x1065B, size: 0x8, addend: 0x0, symName: __ZNKSt3__121__tree_const_iteratorINS_4pairIxiEEPNS_11__tree_nodeIS2_PvEElEptB8ue170006Ev, symObjAddr: 0x36A4, symBinAddr: 0x1000051FC, symSize: 0xDC }
  - { offsetInCU: 0x10699, offset: 0x10699, size: 0x8, addend: 0x0, symName: __ZNSt3__16__treeINS_4pairIxiEENS_4lessIS2_EENS_9allocatorIS2_EEE4findIS2_EENS_15__tree_iteratorIS2_PNS_11__tree_nodeIS2_PvEElEERKT_, symObjAddr: 0xEB60, symBinAddr: 0x1000106B8, symSize: 0x294 }
  - { offsetInCU: 0x1083F, offset: 0x1083F, size: 0x8, addend: 0x0, symName: __ZNSt3__16__treeINS_4pairIxiEENS_4lessIS2_EENS_9allocatorIS2_EEE5eraseENS_21__tree_const_iteratorIS2_PNS_11__tree_nodeIS2_PvEElEE, symObjAddr: 0xF0CC, symBinAddr: 0x100010C24, symSize: 0x1DC }
  - { offsetInCU: 0x109A7, offset: 0x109A7, size: 0x8, addend: 0x0, symName: __ZNSt3__18multisetINS_4pairIxiEENS_4lessIS2_EENS_9allocatorIS2_EEE6insertB8ue170006EOS2_, symObjAddr: 0x3780, symBinAddr: 0x1000052D8, symSize: 0x68 }
  - { offsetInCU: 0x10A0C, offset: 0x10A0C, size: 0x8, addend: 0x0, symName: __ZNSt3__16__treeINS_4pairIxiEENS_4lessIS2_EENS_9allocatorIS2_EEED1Ev, symObjAddr: 0x9768, symBinAddr: 0x10000B2C0, symSize: 0x64 }
  - { offsetInCU: 0x10A78, offset: 0x10A78, size: 0x8, addend: 0x0, symName: __ZNSt3__16vectorIxNS_9allocatorIxEEE16__destroy_vectorclB8ue170006Ev, symObjAddr: 0x8C08, symBinAddr: 0x10000A760, symSize: 0x240 }
  - { offsetInCU: 0x10BA6, offset: 0x10BA6, size: 0x8, addend: 0x0, symName: __ZNSt3__18multisetINS_4pairIxiEENS_4lessIS2_EENS_9allocatorIS2_EEED1B8ue170006Ev, symObjAddr: 0x37E8, symBinAddr: 0x100005340, symSize: 0x58 }
  - { offsetInCU: 0x10BED, offset: 0x10BED, size: 0x8, addend: 0x0, symName: __ZNSt3__16vectorIxNS_9allocatorIxEEED1B8ue170006Ev, symObjAddr: 0x3840, symBinAddr: 0x100005398, symSize: 0x1A0 }
  - { offsetInCU: 0x10C4F, offset: 0x10C4F, size: 0x8, addend: 0x0, symName: __ZNSt3__16__treeINS_4pairIxiEENS_4lessIS2_EENS_9allocatorIS2_EEE15__emplace_multiIJxRiEEENS_15__tree_iteratorIS2_PNS_11__tree_nodeIS2_PvEElEEDpOT_, symObjAddr: 0x9D00, symBinAddr: 0x10000B858, symSize: 0x324 }
  - { offsetInCU: 0x10E64, offset: 0x10E64, size: 0x8, addend: 0x0, symName: __ZNSt3__16__treeINS_4pairIxiEENS_4lessIS2_EENS_9allocatorIS2_EEE15__emplace_multiIJS2_EEENS_15__tree_iteratorIS2_PNS_11__tree_nodeIS2_PvEElEEDpOT_, symObjAddr: 0x13970, symBinAddr: 0x1000154C8, symSize: 0x31C }
  - { offsetInCU: 0x11024, offset: 0x11024, size: 0x8, addend: 0x0, symName: _main, symObjAddr: 0x39E0, symBinAddr: 0x100005538, symSize: 0x394 }
  - { offsetInCU: 0x11081, offset: 0x11081, size: 0x8, addend: 0x0, symName: __ZNSt3__19basic_iosIcNS_11char_traitsIcEEE3tieB8ue170006EPNS_13basic_ostreamIcS2_EE, symObjAddr: 0x3D74, symBinAddr: 0x1000058CC, symSize: 0x1A0 }
  - { offsetInCU: 0x110CA, offset: 0x110CA, size: 0x8, addend: 0x0, symName: __ZNSt3__121__tree_const_iteratorINS_4pairIxiEEPNS_11__tree_nodeIS2_PvEElEmmB8ue170006Ev, symObjAddr: 0x40A8, symBinAddr: 0x100005C00, symSize: 0xDC }
  - { offsetInCU: 0x110FE, offset: 0x110FE, size: 0x8, addend: 0x0, symName: __ZNKSt3__121__tree_const_iteratorINS_4pairIxiEEPNS_11__tree_nodeIS2_PvEElEdeB8ue170006Ev, symObjAddr: 0x4184, symBinAddr: 0x100005CDC, symSize: 0xDC }
  - { offsetInCU: 0x11158, offset: 0x11158, size: 0x8, addend: 0x0, symName: __ZNKSt3__116__tree_node_baseIPvE15__parent_unsafeB8ue170006Ev, symObjAddr: 0x4630, symBinAddr: 0x100006188, symSize: 0x9C }
  - { offsetInCU: 0x111FC, offset: 0x111FC, size: 0x8, addend: 0x0, symName: __ZNSt3__119ostreambuf_iteratorIcNS_11char_traitsIcEEEC2B8ue170006ERNS_13basic_ostreamIcS2_EE, symObjAddr: 0x62D0, symBinAddr: 0x100007E28, symSize: 0x298 }
  - { offsetInCU: 0x11259, offset: 0x11259, size: 0x8, addend: 0x0, symName: __ZNKSt3__19basic_iosIcNS_11char_traitsIcEEE4fillB8ue170006Ev, symObjAddr: 0x57E8, symBinAddr: 0x100007340, symSize: 0x248 }
  - { offsetInCU: 0x1129C, offset: 0x1129C, size: 0x8, addend: 0x0, symName: __ZNSt3__19basic_iosIcNS_11char_traitsIcEEE8setstateB8ue170006Ej, symObjAddr: 0x5A30, symBinAddr: 0x100007588, symSize: 0xFC }
  - { offsetInCU: 0x113AB, offset: 0x113AB, size: 0x8, addend: 0x0, symName: __ZNSt3__117__compressed_pairINS_12basic_stringIcNS_11char_traitsIcEENS_9allocatorIcEEE5__repES5_EC1B8ue170006INS_18__default_init_tagESA_EEOT_OT0_, symObjAddr: 0x5CCC, symBinAddr: 0x100007824, symSize: 0x98 }
  - { offsetInCU: 0x11448, offset: 0x11448, size: 0x8, addend: 0x0, symName: __ZNSt3__112basic_stringIcNS_11char_traitsIcEENS_9allocatorIcEEE13__get_pointerB8ue170006Ev, symObjAddr: 0x6084, symBinAddr: 0x100007BDC, symSize: 0x5C }
  - { offsetInCU: 0x114AB, offset: 0x114AB, size: 0x8, addend: 0x0, symName: __ZNSt3__18ios_base5widthB8ue170006El, symObjAddr: 0x5B2C, symBinAddr: 0x100007684, symSize: 0x1A0 }
  - { offsetInCU: 0x114F4, offset: 0x114F4, size: 0x8, addend: 0x0, symName: __ZNKSt3__19basic_iosIcNS_11char_traitsIcEEE5widenB8ue170006Ec, symObjAddr: 0x6648, symBinAddr: 0x1000081A0, symSize: 0x340 }
  - { offsetInCU: 0x11577, offset: 0x11577, size: 0x8, addend: 0x0, symName: __ZNSt3__18ios_base8setstateB8ue170006Ej, symObjAddr: 0x6A88, symBinAddr: 0x1000085E0, symSize: 0x19C }
  - { offsetInCU: 0x11614, offset: 0x11614, size: 0x8, addend: 0x0, symName: __ZNSt3__122__compressed_pair_elemINS_9allocatorIcEELi1ELb1EEC2B8ue170006ENS_18__default_init_tagE, symObjAddr: 0x5D64, symBinAddr: 0x1000078BC, symSize: 0x7C }
  - { offsetInCU: 0x116C3, offset: 0x116C3, size: 0x8, addend: 0x0, symName: __ZNSt3__112basic_stringIcNS_11char_traitsIcEENS_9allocatorIcEEE19__get_short_pointerB8ue170006Ev, symObjAddr: 0x5DE0, symBinAddr: 0x100007938, symSize: 0x58 }
  - { offsetInCU: 0x116F8, offset: 0x116F8, size: 0x8, addend: 0x0, symName: __ZNSt3__117__compressed_pairINS_12basic_stringIcNS_11char_traitsIcEENS_9allocatorIcEEE5__repES5_E5firstB8ue170006Ev, symObjAddr: 0x5F5C, symBinAddr: 0x100007AB4, symSize: 0xCC }
  - { offsetInCU: 0x1173C, offset: 0x1173C, size: 0x8, addend: 0x0, symName: __ZNSt12length_errorC1B8ue170006EPKc, symObjAddr: 0x5EB0, symBinAddr: 0x100007A08, symSize: 0xAC }
  - { offsetInCU: 0x117D6, offset: 0x117D6, size: 0x8, addend: 0x0, symName: __ZNKSt3__112basic_stringIcNS_11char_traitsIcEENS_9allocatorIcEEE9__is_longB8ue170006Ev, symObjAddr: 0x60E0, symBinAddr: 0x100007C38, symSize: 0x9C }
  - { offsetInCU: 0x1180A, offset: 0x1180A, size: 0x8, addend: 0x0, symName: __ZNSt3__112basic_stringIcNS_11char_traitsIcEENS_9allocatorIcEEE18__get_long_pointerB8ue170006Ev, symObjAddr: 0x617C, symBinAddr: 0x100007CD4, symSize: 0x88 }
  - { offsetInCU: 0x1183E, offset: 0x1183E, size: 0x8, addend: 0x0, symName: __ZNKSt3__117__compressed_pairINS_12basic_stringIcNS_11char_traitsIcEENS_9allocatorIcEEE5__repES5_E5firstB8ue170006Ev, symObjAddr: 0x6204, symBinAddr: 0x100007D5C, symSize: 0xCC }
  - { offsetInCU: 0x118BC, offset: 0x118BC, size: 0x8, addend: 0x0, symName: __ZNKSt3__18ios_base5rdbufB8ue170006Ev, symObjAddr: 0x6568, symBinAddr: 0x1000080C0, symSize: 0xE0 }
  - { offsetInCU: 0x11949, offset: 0x11949, size: 0x8, addend: 0x0, symName: __ZNKSt3__112basic_stringIcNS_11char_traitsIcEENS_9allocatorIcEEE15__get_long_sizeB8ue170006Ev, symObjAddr: 0x6DBC, symBinAddr: 0x100008914, symSize: 0x8C }
  - { offsetInCU: 0x1197D, offset: 0x1197D, size: 0x8, addend: 0x0, symName: __ZNKSt3__112basic_stringIcNS_11char_traitsIcEENS_9allocatorIcEEE16__get_short_sizeB8ue170006Ev, symObjAddr: 0x6E48, symBinAddr: 0x1000089A0, symSize: 0x9C }
  - { offsetInCU: 0x119B1, offset: 0x119B1, size: 0x8, addend: 0x0, symName: __ZNKSt3__112basic_stringIcNS_11char_traitsIcEENS_9allocatorIcEEE18__get_long_pointerB8ue170006Ev, symObjAddr: 0x6CDC, symBinAddr: 0x100008834, symSize: 0x88 }
  - { offsetInCU: 0x119E5, offset: 0x119E5, size: 0x8, addend: 0x0, symName: __ZNKSt3__112basic_stringIcNS_11char_traitsIcEENS_9allocatorIcEEE19__get_short_pointerB8ue170006Ev, symObjAddr: 0x6D64, symBinAddr: 0x1000088BC, symSize: 0x58 }
  - { offsetInCU: 0x11AE2, offset: 0x11AE2, size: 0x8, addend: 0x0, symName: __ZNSt3__117__compressed_pairIPxNS_9allocatorIxEEEC2B8ue170006IDnNS_18__default_init_tagEEEOT_OT0_, symObjAddr: 0x786C, symBinAddr: 0x1000093C4, symSize: 0xB0 }
  - { offsetInCU: 0x11B61, offset: 0x11B61, size: 0x8, addend: 0x0, symName: __ZNSt3__16vectorIxNS_9allocatorIxEEE11__vallocateB8ue170006Em, symObjAddr: 0x7384, symBinAddr: 0x100008EDC, symSize: 0x1A0 }
  - { offsetInCU: 0x11C4C, offset: 0x11C4C, size: 0x8, addend: 0x0, symName: __ZNSt3__16vectorIxNS_9allocatorIxEEE18__construct_at_endEm, symObjAddr: 0x7524, symBinAddr: 0x10000907C, symSize: 0x300 }
  - { offsetInCU: 0x11D88, offset: 0x11D88, size: 0x8, addend: 0x0, symName: __ZNSt3__128__exception_guard_exceptionsINS_6vectorIxNS_9allocatorIxEEE16__destroy_vectorEED2B8ue170006Ev, symObjAddr: 0x8B24, symBinAddr: 0x10000A67C, symSize: 0xE4 }
  - { offsetInCU: 0x11DC7, offset: 0x11DC7, size: 0x8, addend: 0x0, symName: __ZNSt3__128__exception_guard_exceptionsINS_6vectorIxNS_9allocatorIxEEE16__destroy_vectorEED1B8ue170006Ev, symObjAddr: 0x7824, symBinAddr: 0x10000937C, symSize: 0x48 }
  - { offsetInCU: 0x11E2B, offset: 0x11E2B, size: 0x8, addend: 0x0, symName: __ZNKSt3__16vectorIxNS_9allocatorIxEEE7__allocB8ue170006Ev, symObjAddr: 0x7D10, symBinAddr: 0x100009868, symSize: 0x70 }
  - { offsetInCU: 0x11E60, offset: 0x11E60, size: 0x8, addend: 0x0, symName: __ZNSt3__16vectorIxNS_9allocatorIxEEE7__allocB8ue170006Ev, symObjAddr: 0x7A20, symBinAddr: 0x100009578, symSize: 0x70 }
  - { offsetInCU: 0x11E90, offset: 0x11E90, size: 0x8, addend: 0x0, symName: __ZNSt3__117__compressed_pairIPxNS_9allocatorIxEEE5firstB8ue170006Ev, symObjAddr: 0x7F28, symBinAddr: 0x100009A80, symSize: 0xCC }
  - { offsetInCU: 0x11ED4, offset: 0x11ED4, size: 0x8, addend: 0x0, symName: __ZNKSt3__16vectorIxNS_9allocatorIxEEE14__annotate_newB8ue170006Em, symObjAddr: 0x7A90, symBinAddr: 0x1000095E8, symSize: 0x280 }
  - { offsetInCU: 0x11FCA, offset: 0x11FCA, size: 0x8, addend: 0x0, symName: __ZNKSt3__16vectorIxNS_9allocatorIxEEE20__throw_length_errorB8ue170006Ev, symObjAddr: 0x7998, symBinAddr: 0x1000094F0, symSize: 0x44 }
  - { offsetInCU: 0x120E6, offset: 0x120E6, size: 0x8, addend: 0x0, symName: __ZNSt3__16vectorIxNS_9allocatorIxEEE21_ConstructTransactionC2B8ue170006ERS3_m, symObjAddr: 0x81BC, symBinAddr: 0x100009D14, symSize: 0x194 }
  - { offsetInCU: 0x1213E, offset: 0x1213E, size: 0x8, addend: 0x0, symName: __ZNSt3__117__compressed_pairIPxNS_9allocatorIxEEE6secondB8ue170006Ev, symObjAddr: 0x7E54, symBinAddr: 0x1000099AC, symSize: 0xD4 }
  - { offsetInCU: 0x12181, offset: 0x12181, size: 0x8, addend: 0x0, symName: __ZNSt3__16vectorIxNS_9allocatorIxEEE21_ConstructTransactionD2B8ue170006Ev, symObjAddr: 0x86B4, symBinAddr: 0x10000A20C, symSize: 0x214 }
  - { offsetInCU: 0x121E8, offset: 0x121E8, size: 0x8, addend: 0x0, symName: __ZNSt3__122__compressed_pair_elemINS_9allocatorIxEELi1ELb1EEC2B8ue170006ENS_18__default_init_tagE, symObjAddr: 0x791C, symBinAddr: 0x100009474, symSize: 0x7C }
  - { offsetInCU: 0x12313, offset: 0x12313, size: 0x8, addend: 0x0, symName: __ZNKSt3__16vectorIxNS_9allocatorIxEEE8capacityB8ue170006Ev, symObjAddr: 0x7FF4, symBinAddr: 0x100009B4C, symSize: 0x8C }
  - { offsetInCU: 0x1234E, offset: 0x1234E, size: 0x8, addend: 0x0, symName: __ZNKSt3__117__compressed_pairIPxNS_9allocatorIxEEE6secondB8ue170006Ev, symObjAddr: 0x7D80, symBinAddr: 0x1000098D8, symSize: 0xD4 }
  - { offsetInCU: 0x123D9, offset: 0x123D9, size: 0x8, addend: 0x0, symName: __ZNKSt3__16vectorIxNS_9allocatorIxEEE9__end_capB8ue170006Ev, symObjAddr: 0x8080, symBinAddr: 0x100009BD8, symSize: 0x70 }
  - { offsetInCU: 0x1240E, offset: 0x1240E, size: 0x8, addend: 0x0, symName: __ZNKSt3__117__compressed_pairIPxNS_9allocatorIxEEE5firstB8ue170006Ev, symObjAddr: 0x80F0, symBinAddr: 0x100009C48, symSize: 0xCC }
  - { offsetInCU: 0x1246E, offset: 0x1246E, size: 0x8, addend: 0x0, symName: __ZNKSt3__16vectorIxNS_9allocatorIxEEE19__annotate_increaseB8ue170006Em, symObjAddr: 0x8350, symBinAddr: 0x100009EA8, symSize: 0x2D8 }
  - { offsetInCU: 0x12578, offset: 0x12578, size: 0x8, addend: 0x0, symName: __ZNKSt3__16vectorIxNS_9allocatorIxEEE4sizeB8ue170006Ev, symObjAddr: 0x8628, symBinAddr: 0x10000A180, symSize: 0x8C }
  - { offsetInCU: 0x1259F, offset: 0x1259F, size: 0x8, addend: 0x0, symName: __ZNKSt3__16vectorIxNS_9allocatorIxEEE17__annotate_shrinkB8ue170006Em, symObjAddr: 0x88C8, symBinAddr: 0x10000A420, symSize: 0x25C }
  - { offsetInCU: 0x12703, offset: 0x12703, size: 0x8, addend: 0x0, symName: __ZNSt3__16vectorIxNS_9allocatorIxEEE22__base_destruct_at_endB8ue170006EPx, symObjAddr: 0x90B8, symBinAddr: 0x10000AC10, symSize: 0xE8 }
  - { offsetInCU: 0x1275E, offset: 0x1275E, size: 0x8, addend: 0x0, symName: __ZNKSt3__16vectorIxNS_9allocatorIxEEE17__annotate_deleteB8ue170006Ev, symObjAddr: 0x8E48, symBinAddr: 0x10000A9A0, symSize: 0x270 }
  - { offsetInCU: 0x128DB, offset: 0x128DB, size: 0x8, addend: 0x0, symName: __ZNSt3__117__compressed_pairINS_15__tree_end_nodeIPNS_16__tree_node_baseIPvEEEENS_9allocatorINS_11__tree_nodeINS_4pairIxiEES3_EEEEEC2B8ue170006ILb1EvEEv, symObjAddr: 0x9468, symBinAddr: 0x10000AFC0, symSize: 0xD0 }
  - { offsetInCU: 0x12962, offset: 0x12962, size: 0x8, addend: 0x0, symName: __ZNSt3__117__compressed_pairImNS_4lessINS_4pairIxiEEEEEC2B8ue170006IiRKS4_EEOT_OT0_, symObjAddr: 0x95B4, symBinAddr: 0x10000B10C, symSize: 0xE8 }
  - { offsetInCU: 0x129DC, offset: 0x129DC, size: 0x8, addend: 0x0, symName: __ZNSt3__16__treeINS_4pairIxiEENS_4lessIS2_EENS_9allocatorIS2_EEE10__end_nodeB8ue170006Ev, symObjAddr: 0x93F8, symBinAddr: 0x10000AF50, symSize: 0x70 }
  - { offsetInCU: 0x12A11, offset: 0x12A11, size: 0x8, addend: 0x0, symName: __ZNSt3__117__compressed_pairINS_15__tree_end_nodeIPNS_16__tree_node_baseIPvEEEENS_9allocatorINS_11__tree_nodeINS_4pairIxiEES3_EEEEE5firstB8ue170006Ev, symObjAddr: 0x969C, symBinAddr: 0x10000B1F4, symSize: 0xCC }
  - { offsetInCU: 0x12AAB, offset: 0x12AAB, size: 0x8, addend: 0x0, symName: __ZNSt3__122__compressed_pair_elemINS_9allocatorINS_11__tree_nodeINS_4pairIxiEEPvEEEELi1ELb1EEC2B8ue170006ENS_16__value_init_tagE, symObjAddr: 0x9538, symBinAddr: 0x10000B090, symSize: 0x7C }
  - { offsetInCU: 0x12BBB, offset: 0x12BBB, size: 0x8, addend: 0x0, symName: __ZNKSt3__16__treeINS_4pairIxiEENS_4lessIS2_EENS_9allocatorIS2_EEE6__rootB8ue170006Ev, symObjAddr: 0x999C, symBinAddr: 0x10000B4F4, symSize: 0xE4 }
  - { offsetInCU: 0x12BEF, offset: 0x12BEF, size: 0x8, addend: 0x0, symName: __ZNSt3__16__treeINS_4pairIxiEENS_4lessIS2_EENS_9allocatorIS2_EEE7destroyEPNS_11__tree_nodeIS2_PvEE, symObjAddr: 0x97CC, symBinAddr: 0x10000B324, symSize: 0x1D0 }
  - { offsetInCU: 0x12D81, offset: 0x12D81, size: 0x8, addend: 0x0, symName: __ZNSt3__16__treeINS_4pairIxiEENS_4lessIS2_EENS_9allocatorIS2_EEE12__node_allocB8ue170006Ev, symObjAddr: 0x9A80, symBinAddr: 0x10000B5D8, symSize: 0x70 }
  - { offsetInCU: 0x12DB6, offset: 0x12DB6, size: 0x8, addend: 0x0, symName: __ZNKSt3__16__treeINS_4pairIxiEENS_4lessIS2_EENS_9allocatorIS2_EEE10__end_nodeB8ue170006Ev, symObjAddr: 0x9BC4, symBinAddr: 0x10000B71C, symSize: 0x70 }
  - { offsetInCU: 0x12DEB, offset: 0x12DEB, size: 0x8, addend: 0x0, symName: __ZNSt3__117__compressed_pairINS_15__tree_end_nodeIPNS_16__tree_node_baseIPvEEEENS_9allocatorINS_11__tree_nodeINS_4pairIxiEES3_EEEEE6secondB8ue170006Ev, symObjAddr: 0x9AF0, symBinAddr: 0x10000B648, symSize: 0xD4 }
  - { offsetInCU: 0x12E44, offset: 0x12E44, size: 0x8, addend: 0x0, symName: __ZNKSt3__117__compressed_pairINS_15__tree_end_nodeIPNS_16__tree_node_baseIPvEEEENS_9allocatorINS_11__tree_nodeINS_4pairIxiEES3_EEEEE5firstB8ue170006Ev, symObjAddr: 0x9C34, symBinAddr: 0x10000B78C, symSize: 0xCC }
  - { offsetInCU: 0x12F62, offset: 0x12F62, size: 0x8, addend: 0x0, symName: __ZNSt3__16__treeINS_4pairIxiEENS_4lessIS2_EENS_9allocatorIS2_EEE16__construct_nodeIJxRiEEENS_10unique_ptrINS_11__tree_nodeIS2_PvEENS_22__tree_node_destructorINS5_ISD_EEEEEEDpOT_, symObjAddr: 0xA024, symBinAddr: 0x10000BB7C, symSize: 0x310 }
  - { offsetInCU: 0x13174, offset: 0x13174, size: 0x8, addend: 0x0, symName: __ZNKSt3__117__compressed_pairIPNS_11__tree_nodeINS_4pairIxiEEPvEENS_22__tree_node_destructorINS_9allocatorIS5_EEEEE5firstB8ue170006Ev, symObjAddr: 0xB464, symBinAddr: 0x10000CFBC, symSize: 0xCC }
  - { offsetInCU: 0x131B8, offset: 0x131B8, size: 0x8, addend: 0x0, symName: __ZNSt3__16__treeINS_4pairIxiEENS_4lessIS2_EENS_9allocatorIS2_EEE16__find_leaf_highERPNS_15__tree_end_nodeIPNS_16__tree_node_baseIPvEEEERKS2_, symObjAddr: 0xA334, symBinAddr: 0x10000BE8C, symSize: 0x414 }
  - { offsetInCU: 0x1326D, offset: 0x1326D, size: 0x8, addend: 0x0, symName: __ZNSt3__16__treeINS_4pairIxiEENS_4lessIS2_EENS_9allocatorIS2_EEE16__insert_node_atEPNS_15__tree_end_nodeIPNS_16__tree_node_baseIPvEEEERSC_SC_, symObjAddr: 0xA748, symBinAddr: 0x10000C2A0, symSize: 0x4BC }
  - { offsetInCU: 0x13352, offset: 0x13352, size: 0x8, addend: 0x0, symName: __ZNSt3__110unique_ptrINS_11__tree_nodeINS_4pairIxiEEPvEENS_22__tree_node_destructorINS_9allocatorIS5_EEEEE7releaseB8ue170006Ev, symObjAddr: 0xAC04, symBinAddr: 0x10000C75C, symSize: 0xC0 }
  - { offsetInCU: 0x133B1, offset: 0x133B1, size: 0x8, addend: 0x0, symName: __ZNSt3__110unique_ptrINS_11__tree_nodeINS_4pairIxiEEPvEENS_22__tree_node_destructorINS_9allocatorIS5_EEEEE5resetB8ue170006EPS5_, symObjAddr: 0xD72C, symBinAddr: 0x10000F284, symSize: 0x104 }
  - { offsetInCU: 0x13448, offset: 0x13448, size: 0x8, addend: 0x0, symName: __ZNSt3__110unique_ptrINS_11__tree_nodeINS_4pairIxiEEPvEENS_22__tree_node_destructorINS_9allocatorIS5_EEEEED1B8ue170006Ev, symObjAddr: 0xACC4, symBinAddr: 0x10000C81C, symSize: 0x5C }
  - { offsetInCU: 0x135B3, offset: 0x135B3, size: 0x8, addend: 0x0, symName: __ZNSt3__110unique_ptrINS_11__tree_nodeINS_4pairIxiEEPvEENS_22__tree_node_destructorINS_9allocatorIS5_EEEEEC1B8ue170006ILb1EvEEPS5_NS_16__dependent_typeINS_27__unique_ptr_deleter_sfinaeIS9_EEXT_EE20__good_rval_ref_typeE, symObjAddr: 0xAD20, symBinAddr: 0x10000C878, symSize: 0x20C }
  - { offsetInCU: 0x13669, offset: 0x13669, size: 0x8, addend: 0x0, symName: __ZNSt3__19allocatorINS_11__tree_nodeINS_4pairIxiEEPvEEE9constructB8ue170006IS3_JxRiEEEvPT_DpOT0_, symObjAddr: 0xB030, symBinAddr: 0x10000CB88, symSize: 0x138 }
  - { offsetInCU: 0x13726, offset: 0x13726, size: 0x8, addend: 0x0, symName: __ZNSt3__117__compressed_pairIPNS_11__tree_nodeINS_4pairIxiEEPvEENS_22__tree_node_destructorINS_9allocatorIS5_EEEEE6secondB8ue170006Ev, symObjAddr: 0xB168, symBinAddr: 0x10000CCC0, symSize: 0xB0 }
  - { offsetInCU: 0x1376B, offset: 0x1376B, size: 0x8, addend: 0x0, symName: __ZNSt3__16__treeINS_4pairIxiEENS_4lessIS2_EENS_9allocatorIS2_EEE10value_compB8ue170006Ev, symObjAddr: 0xB218, symBinAddr: 0x10000CD70, symSize: 0x70 }
  - { offsetInCU: 0x137A0, offset: 0x137A0, size: 0x8, addend: 0x0, symName: __ZNKSt3__14lessINS_4pairIxiEEEclB8ue170006ERKS2_S5_, symObjAddr: 0xB288, symBinAddr: 0x10000CDE0, symSize: 0x108 }
  - { offsetInCU: 0x13807, offset: 0x13807, size: 0x8, addend: 0x0, symName: __ZNSt3__16__treeINS_4pairIxiEENS_4lessIS2_EENS_9allocatorIS2_EEE4sizeB8ue170006Ev, symObjAddr: 0xC6E8, symBinAddr: 0x10000E240, symSize: 0x70 }
  - { offsetInCU: 0x1383C, offset: 0x1383C, size: 0x8, addend: 0x0, symName: __ZNSt3__117__compressed_pairIPNS_11__tree_nodeINS_4pairIxiEEPvEENS_22__tree_node_destructorINS_9allocatorIS5_EEEEE5firstB8ue170006Ev, symObjAddr: 0xD660, symBinAddr: 0x10000F1B8, symSize: 0xCC }
  - { offsetInCU: 0x138FD, offset: 0x138FD, size: 0x8, addend: 0x0, symName: __ZNSt3__117__compressed_pairIPNS_11__tree_nodeINS_4pairIxiEEPvEENS_22__tree_node_destructorINS_9allocatorIS5_EEEEEC2B8ue170006IRS6_SA_EEOT_OT0_, symObjAddr: 0xAF2C, symBinAddr: 0x10000CA84, symSize: 0x104 }
  - { offsetInCU: 0x13A0A, offset: 0x13A0A, size: 0x8, addend: 0x0, symName: __ZNSt3__117__compressed_pairImNS_4lessINS_4pairIxiEEEEE6secondB8ue170006Ev, symObjAddr: 0xB390, symBinAddr: 0x10000CEE8, symSize: 0xD4 }
  - { offsetInCU: 0x13A7F, offset: 0x13A7F, size: 0x8, addend: 0x0, symName: __ZNSt3__117__compressed_pairImNS_4lessINS_4pairIxiEEEEE5firstB8ue170006Ev, symObjAddr: 0xD594, symBinAddr: 0x10000F0EC, symSize: 0xCC }
  - { offsetInCU: 0x13B11, offset: 0x13B11, size: 0x8, addend: 0x0, symName: __ZNSt3__122__tree_node_destructorINS_9allocatorINS_11__tree_nodeINS_4pairIxiEEPvEEEEEclB8ue170006EPS6_, symObjAddr: 0xD830, symBinAddr: 0x10000F388, symSize: 0x1C8 }
  - { offsetInCU: 0x13BF9, offset: 0x13BF9, size: 0x8, addend: 0x0, symName: __ZNSt3__121__tree_const_iteratorINS_4pairIxiEEPNS_11__tree_nodeIS2_PvEElEppB8ue170006Ev, symObjAddr: 0xE5E0, symBinAddr: 0x100010138, symSize: 0xD8 }
  - { offsetInCU: 0x13C49, offset: 0x13C49, size: 0x8, addend: 0x0, symName: __ZNSt3__16__treeINS_4pairIxiEENS_4lessIS2_EENS_9allocatorIS2_EEE13__lower_boundIS2_EENS_15__tree_iteratorIS2_PNS_11__tree_nodeIS2_PvEElEERKT_SD_PNS_15__tree_end_nodeIPNS_16__tree_node_baseISB_EEEE, symObjAddr: 0xEDF4, symBinAddr: 0x10001094C, symSize: 0x1FC }
  - { offsetInCU: 0x13CDF, offset: 0x13CDF, size: 0x8, addend: 0x0, symName: __ZNKSt3__115__tree_iteratorINS_4pairIxiEEPNS_11__tree_nodeIS2_PvEElEdeB8ue170006Ev, symObjAddr: 0xEFF0, symBinAddr: 0x100010B48, symSize: 0xDC }
  - { offsetInCU: 0x13D39, offset: 0x13D39, size: 0x8, addend: 0x0, symName: __ZNSt3__16__treeINS_4pairIxiEENS_4lessIS2_EENS_9allocatorIS2_EEE21__remove_node_pointerEPNS_11__tree_nodeIS2_PvEE, symObjAddr: 0xF2A8, symBinAddr: 0x100010E00, symSize: 0x348 }
  - { offsetInCU: 0x13E3E, offset: 0x13E3E, size: 0x8, addend: 0x0, symName: __ZNSt3__115__tree_iteratorINS_4pairIxiEEPNS_11__tree_nodeIS2_PvEElEppB8ue170006Ev, symObjAddr: 0xF5F0, symBinAddr: 0x100011148, symSize: 0xD8 }
  - { offsetInCU: 0x13E72, offset: 0x13E72, size: 0x8, addend: 0x0, symName: __ZNSt3__16__treeINS_4pairIxiEENS_4lessIS2_EENS_9allocatorIS2_EEE16__construct_nodeIJS2_EEENS_10unique_ptrINS_11__tree_nodeIS2_PvEENS_22__tree_node_destructorINS5_ISC_EEEEEEDpOT_, symObjAddr: 0x13C8C, symBinAddr: 0x1000157E4, symSize: 0x310 }
...
