---
triple:          'arm64-apple-darwin'
binary-path:     F. Hackers and Neural Networks
relocations:
  - { offsetInCU: 0x3B, offset: 0x3B, size: 0x8, addend: 0x0, symName: _.str, symObjAddr: 0xC980, symBinAddr: 0x10000E4A0, symSize: 0x0 }
  - { offsetInCU: 0x6B, offset: 0x6B, size: 0x8, addend: 0x0, symName: _.str.1, symObjAddr: 0xC9A0, symBinAddr: 0x10000E4C0, symSize: 0x0 }
  - { offsetInCU: 0x7C, offset: 0x7C, size: 0x8, addend: 0x0, symName: _.str.2, symObjAddr: 0xC9C0, symBinAddr: 0x10000E4E0, symSize: 0x0 }
  - { offsetInCU: 0x8D, offset: 0x8D, size: 0x8, addend: 0x0, symName: _.str.3, symObjAddr: 0xBD40, symBinAddr: 0x10000D840, symSize: 0x0 }
  - { offsetInCU: 0xAA, offset: 0xAA, size: 0x8, addend: 0x0, symName: _.str.4, symObjAddr: 0xC9E0, symBinAddr: 0x10000E500, symSize: 0x0 }
  - { offsetInCU: 0xBB, offset: 0xBB, size: 0x8, addend: 0x0, symName: _.str.6, symObjAddr: 0xCA00, symBinAddr: 0x10000E520, symSize: 0x0 }
  - { offsetInCU: 0xD9, offset: 0xD9, size: 0x8, addend: 0x0, symName: _.str.17, symObjAddr: 0xCA20, symBinAddr: 0x10000E540, symSize: 0x0 }
  - { offsetInCU: 0xF7, offset: 0xF7, size: 0x8, addend: 0x0, symName: _.str.28, symObjAddr: 0xCA40, symBinAddr: 0x10000E560, symSize: 0x0 }
  - { offsetInCU: 0x43CB, offset: 0x43CB, size: 0x8, addend: 0x0, symName: __ZNSt3__124__put_character_sequenceB8ue170006IcNS_11char_traitsIcEEEERNS_13basic_ostreamIT_T0_EES7_PKS4_m, symObjAddr: 0x4008, symBinAddr: 0x1000057EC, symSize: 0x8C4 }
  - { offsetInCU: 0x7A6A, offset: 0x7A6A, size: 0x8, addend: 0x0, symName: __ZNSt3__113__fill_n_trueB8ue170006INS_6vectorIbNS_9allocatorIbEEEEEEvNS_14__bit_iteratorIT_Lb0EXLi0EEEENS6_9size_typeE, symObjAddr: 0xA128, symBinAddr: 0x10000B90C, symSize: 0x2F4 }
  - { offsetInCU: 0x7B63, offset: 0x7B63, size: 0x8, addend: 0x0, symName: __ZNSt3__114__fill_n_falseB8ue170006INS_6vectorIbNS_9allocatorIbEEEEEEvNS_14__bit_iteratorIT_Lb0EXLi0EEEENS6_9size_typeE, symObjAddr: 0xA41C, symBinAddr: 0x10000BC00, symSize: 0x2F8 }
  - { offsetInCU: 0x7C5C, offset: 0x7C5C, size: 0x8, addend: 0x0, symName: __ZNSt3__117__count_bool_trueB8ue170006INS_6vectorIbNS_9allocatorIbEEEELb0EEENS_14__bit_iteratorIT_XT0_EXLi0EEE15difference_typeES7_NS6_9size_typeE, symObjAddr: 0xA7C0, symBinAddr: 0x10000BFA4, symSize: 0x32C }
  - { offsetInCU: 0x7D64, offset: 0x7D64, size: 0x8, addend: 0x0, symName: __ZNSt3__118__count_bool_falseB8ue170006INS_6vectorIbNS_9allocatorIbEEEELb0EEENS_14__bit_iteratorIT_XT0_EXLi0EEE15difference_typeES7_NS6_9size_typeE, symObjAddr: 0xABF4, symBinAddr: 0x10000C3D8, symSize: 0x334 }
  - { offsetInCU: 0x8BAF, offset: 0x8BAF, size: 0x8, addend: 0x0, symName: __ZNSt3__1lsB8ue170006IcNS_11char_traitsIcEENS_9allocatorIcEEEERNS_13basic_ostreamIT_T0_EES9_RKNS_12basic_stringIS6_S7_T1_EE, symObjAddr: 0xB7C, symBinAddr: 0x100002360, symSize: 0x90 }
  - { offsetInCU: 0x8D39, offset: 0x8D39, size: 0x8, addend: 0x0, symName: __ZNSt3__1rsB8ue170006IcNS_11char_traitsIcEENS_9allocatorIcEEEERNS_13basic_istreamIT_T0_EES9_RNS_12basic_stringIS6_S7_T1_EE, symObjAddr: 0x2240, symBinAddr: 0x100003A24, symSize: 0xF18 }
  - { offsetInCU: 0x8FFD, offset: 0x8FFD, size: 0x8, addend: 0x0, symName: __ZNSt3__1eqB8ue170006INS_9allocatorIcEEEEbRKNS_12basic_stringIcNS_11char_traitsIcEET_EES9_, symObjAddr: 0x32C4, symBinAddr: 0x100004AA8, symSize: 0x228 }
  - { offsetInCU: 0x91DE, offset: 0x91DE, size: 0x8, addend: 0x0, symName: __ZNSt3__15countB8ue170006INS_6vectorIbNS_9allocatorIbEEEELb0EbEENS_14__bit_iteratorIT_XT0_EXLi0EEE15difference_typeES7_S7_RKT1_, symObjAddr: 0x34EC, symBinAddr: 0x100004CD0, symSize: 0x34C }
  - { offsetInCU: 0x9C76, offset: 0x9C76, size: 0x8, addend: 0x0, symName: __ZNSt3__1miB8ue170006ERKNS_14__bit_iteratorINS_6vectorIbNS_9allocatorIbEEEELb0ELm0EEES7_, symObjAddr: 0xAAEC, symBinAddr: 0x10000C2D0, symSize: 0x108 }
  - { offsetInCU: 0x9CB5, offset: 0x9CB5, size: 0x8, addend: 0x0, symName: __ZNSt3__116__pad_and_outputB8ue170006IcNS_11char_traitsIcEEEENS_19ostreambuf_iteratorIT_T0_EES6_PKS4_S8_S8_RNS_8ios_baseES4_, symObjAddr: 0x48CC, symBinAddr: 0x1000060B0, symSize: 0x848 }
  - { offsetInCU: 0xA181, offset: 0xA181, size: 0x8, addend: 0x0, symName: __ZNSt3__120__throw_length_errorB8ue170006EPKc, symObjAddr: 0x55A4, symBinAddr: 0x100006D88, symSize: 0x74 }
  - { offsetInCU: 0xA4DF, offset: 0xA4DF, size: 0x8, addend: 0x0, symName: __ZNSt3__135__uninitialized_allocator_copy_implB8ue170006INS_9allocatorINS_12basic_stringIcNS_11char_traitsIcEENS1_IcEEEEEEPS6_S8_S8_EET2_RT_T0_T1_S9_, symObjAddr: 0x8BF0, symBinAddr: 0x10000A3D4, symSize: 0x3F8 }
  - { offsetInCU: 0xA69C, offset: 0xA69C, size: 0x8, addend: 0x0, symName: __ZNSt3__119__allocator_destroyB8ue170006INS_9allocatorINS_12basic_stringIcNS_11char_traitsIcEENS1_IcEEEEEENS_16reverse_iteratorIPS6_EESA_EEvRT_T0_T1_, symObjAddr: 0x919C, symBinAddr: 0x10000A980, symSize: 0x224 }
  - { offsetInCU: 0xDD12, offset: 0xDD12, size: 0x8, addend: 0x0, symName: __ZN14__DEBUG_UTIL__5printEPKc, symObjAddr: 0x0, symBinAddr: 0x1000017E4, symSize: 0x30 }
  - { offsetInCU: 0xDDB2, offset: 0xDDB2, size: 0x8, addend: 0x0, symName: __ZN14__DEBUG_UTIL__5printEb, symObjAddr: 0x30, symBinAddr: 0x100001814, symSize: 0x28 }
  - { offsetInCU: 0xDE16, offset: 0xDE16, size: 0x8, addend: 0x0, symName: __ZN14__DEBUG_UTIL__5printEc, symObjAddr: 0x58, symBinAddr: 0x10000183C, symSize: 0x21C }
  - { offsetInCU: 0xDEED, offset: 0xDEED, size: 0x8, addend: 0x0, symName: __ZN14__DEBUG_UTIL__5printEs, symObjAddr: 0x274, symBinAddr: 0x100001A58, symSize: 0xA8 }
  - { offsetInCU: 0xDF18, offset: 0xDF18, size: 0x8, addend: 0x0, symName: __ZN14__DEBUG_UTIL__5printEt, symObjAddr: 0x31C, symBinAddr: 0x100001B00, symSize: 0xA8 }
  - { offsetInCU: 0xDF43, offset: 0xDF43, size: 0x8, addend: 0x0, symName: __ZN14__DEBUG_UTIL__5printEi, symObjAddr: 0x3C4, symBinAddr: 0x100001BA8, symSize: 0xA8 }
  - { offsetInCU: 0xDF6E, offset: 0xDF6E, size: 0x8, addend: 0x0, symName: __ZN14__DEBUG_UTIL__5printEj, symObjAddr: 0x46C, symBinAddr: 0x100001C50, symSize: 0xA8 }
  - { offsetInCU: 0xDF99, offset: 0xDF99, size: 0x8, addend: 0x0, symName: __ZN14__DEBUG_UTIL__5printEl, symObjAddr: 0x514, symBinAddr: 0x100001CF8, symSize: 0xA8 }
  - { offsetInCU: 0xDFC4, offset: 0xDFC4, size: 0x8, addend: 0x0, symName: __ZN14__DEBUG_UTIL__5printEm, symObjAddr: 0x5BC, symBinAddr: 0x100001DA0, symSize: 0xA8 }
  - { offsetInCU: 0xDFEF, offset: 0xDFEF, size: 0x8, addend: 0x0, symName: __ZN14__DEBUG_UTIL__5printEx, symObjAddr: 0x664, symBinAddr: 0x100001E48, symSize: 0xA8 }
  - { offsetInCU: 0xE01A, offset: 0xE01A, size: 0x8, addend: 0x0, symName: __ZN14__DEBUG_UTIL__5printEy, symObjAddr: 0x70C, symBinAddr: 0x100001EF0, symSize: 0xA8 }
  - { offsetInCU: 0xE045, offset: 0xE045, size: 0x8, addend: 0x0, symName: __ZN14__DEBUG_UTIL__5printEf, symObjAddr: 0x7B4, symBinAddr: 0x100001F98, symSize: 0xA0 }
  - { offsetInCU: 0xE070, offset: 0xE070, size: 0x8, addend: 0x0, symName: __ZN14__DEBUG_UTIL__5printEd, symObjAddr: 0x854, symBinAddr: 0x100002038, symSize: 0xA0 }
  - { offsetInCU: 0xE09B, offset: 0xE09B, size: 0x8, addend: 0x0, symName: __ZN14__DEBUG_UTIL__5printEe, symObjAddr: 0x8F4, symBinAddr: 0x1000020D8, symSize: 0xA0 }
  - { offsetInCU: 0xE0C6, offset: 0xE0C6, size: 0x8, addend: 0x0, symName: __ZN14__DEBUG_UTIL__5printENSt3__112basic_stringIcNS0_11char_traitsIcEENS0_9allocatorIcEEEE, symObjAddr: 0x994, symBinAddr: 0x100002178, symSize: 0x1E8 }
  - { offsetInCU: 0xE171, offset: 0xE171, size: 0x8, addend: 0x0, symName: __ZN14__DEBUG_UTIL__5printENSt3__16vectorIbNS0_9allocatorIbEEEE, symObjAddr: 0xC0C, symBinAddr: 0x1000023F0, symSize: 0x424 }
  - { offsetInCU: 0xE3D7, offset: 0xE3D7, size: 0x8, addend: 0x0, symName: __ZN14__DEBUG_UTIL__7printerEPKc, symObjAddr: 0x115C, symBinAddr: 0x100002940, symSize: 0x4 }
  - { offsetInCU: 0xE3FC, offset: 0xE3FC, size: 0x8, addend: 0x0, symName: __ZN14__DEBUG_UTIL__10printerArrEPKc, symObjAddr: 0x1160, symBinAddr: 0x100002944, symSize: 0x4 }
  - { offsetInCU: 0xE5B1, offset: 0xE5B1, size: 0x8, addend: 0x0, symName: __ZNSt3__114__bit_iteratorINS_6vectorIbNS_9allocatorIbEEEELb0ELm0EEppB8ue170006Ev, symObjAddr: 0x1030, symBinAddr: 0x100002814, symSize: 0x12C }
  - { offsetInCU: 0xE8A2, offset: 0xE8A2, size: 0x8, addend: 0x0, symName: __Z5solvev, symObjAddr: 0x1164, symBinAddr: 0x100002948, symSize: 0x10DC }
  - { offsetInCU: 0xF06F, offset: 0xF06F, size: 0x8, addend: 0x0, symName: __ZNSt3__16vectorINS_12basic_stringIcNS_11char_traitsIcEENS_9allocatorIcEEEENS4_IS6_EEEC2Em, symObjAddr: 0x5E84, symBinAddr: 0x100007668, symSize: 0x260 }
  - { offsetInCU: 0xF1A0, offset: 0xF1A0, size: 0x8, addend: 0x0, symName: __ZNSt3__16vectorINS0_INS_12basic_stringIcNS_11char_traitsIcEENS_9allocatorIcEEEENS4_IS6_EEEENS4_IS8_EEEC2EmRKS8_, symObjAddr: 0x7B1C, symBinAddr: 0x100009300, symSize: 0x268 }
  - { offsetInCU: 0xF2E3, offset: 0xF2E3, size: 0x8, addend: 0x0, symName: __ZNSt3__16vectorINS_12basic_stringIcNS_11char_traitsIcEENS_9allocatorIcEEEENS4_IS6_EEE16__destroy_vectorclB8ue170006Ev, symObjAddr: 0x6C44, symBinAddr: 0x100008428, symSize: 0x15C }
  - { offsetInCU: 0xF406, offset: 0xF406, size: 0x8, addend: 0x0, symName: __ZNSt3__16vectorIbNS_9allocatorIbEEEC2Em, symObjAddr: 0x9BBC, symBinAddr: 0x10000B3A0, symSize: 0xC4 }
  - { offsetInCU: 0xF4BF, offset: 0xF4BF, size: 0x8, addend: 0x0, symName: __ZNSt3__16vectorIbNS_9allocatorIbEEE16__destroy_vectorclB8ue170006Ev, symObjAddr: 0xA714, symBinAddr: 0x10000BEF8, symSize: 0xAC }
  - { offsetInCU: 0xF58A, offset: 0xF58A, size: 0x8, addend: 0x0, symName: __ZNSt3__16vectorINS0_INS_12basic_stringIcNS_11char_traitsIcEENS_9allocatorIcEEEENS4_IS6_EEEENS4_IS8_EEE16__destroy_vectorclB8ue170006Ev, symObjAddr: 0x96FC, symBinAddr: 0x10000AEE0, symSize: 0x15C }
  - { offsetInCU: 0xF6AD, offset: 0xF6AD, size: 0x8, addend: 0x0, symName: __ZNSt3__16vectorIbNS_9allocatorIbEEED1B8ue170006Ev, symObjAddr: 0x3838, symBinAddr: 0x10000501C, symSize: 0x16C }
  - { offsetInCU: 0xF733, offset: 0xF733, size: 0x8, addend: 0x0, symName: __ZNSt3__16vectorINS_12basic_stringIcNS_11char_traitsIcEENS_9allocatorIcEEEENS4_IS6_EEED1B8ue170006Ev, symObjAddr: 0x3158, symBinAddr: 0x10000493C, symSize: 0x16C }
  - { offsetInCU: 0xF7B9, offset: 0xF7B9, size: 0x8, addend: 0x0, symName: __ZNSt3__16vectorINS0_INS_12basic_stringIcNS_11char_traitsIcEENS_9allocatorIcEEEENS4_IS6_EEEENS4_IS8_EEED1B8ue170006Ev, symObjAddr: 0x39A4, symBinAddr: 0x100005188, symSize: 0x16C }
  - { offsetInCU: 0xF9EC, offset: 0xF9EC, size: 0x8, addend: 0x0, symName: __ZNKSt3__18ios_base5rdbufB8ue170006Ev, symObjAddr: 0x58A4, symBinAddr: 0x100007088, symSize: 0xCC }
  - { offsetInCU: 0xFA13, offset: 0xFA13, size: 0x8, addend: 0x0, symName: __ZNSt3__115basic_streambufIcNS_11char_traitsIcEEE5sgetcB8ue170006Ev, symObjAddr: 0x7020, symBinAddr: 0x100008804, symSize: 0x2EC }
  - { offsetInCU: 0xFA46, offset: 0xFA46, size: 0x8, addend: 0x0, symName: __ZNKSt3__15ctypeIcE2isB8ue170006Ejc, symObjAddr: 0x730C, symBinAddr: 0x100008AF0, symSize: 0x178 }
  - { offsetInCU: 0xFA8D, offset: 0xFA8D, size: 0x8, addend: 0x0, symName: __ZNSt3__115basic_streambufIcNS_11char_traitsIcEEE6sbumpcB8ue170006Ev, symObjAddr: 0x7484, symBinAddr: 0x100008C68, symSize: 0x32C }
  - { offsetInCU: 0xFAC0, offset: 0xFAC0, size: 0x8, addend: 0x0, symName: __ZNSt3__18ios_base5widthB8ue170006El, symObjAddr: 0x541C, symBinAddr: 0x100006C00, symSize: 0x188 }
  - { offsetInCU: 0xFB09, offset: 0xFB09, size: 0x8, addend: 0x0, symName: __ZNSt3__19basic_iosIcNS_11char_traitsIcEEE8setstateB8ue170006Ej, symObjAddr: 0x5358, symBinAddr: 0x100006B3C, symSize: 0xB8 }
  - { offsetInCU: 0xFB4D, offset: 0xFB4D, size: 0x8, addend: 0x0, symName: __ZNSt3__18ios_base18__setstate_nothrowB8ue170006Ej, symObjAddr: 0x77B0, symBinAddr: 0x100008F94, symSize: 0x220 }
  - { offsetInCU: 0xFB84, offset: 0xFB84, size: 0x8, addend: 0x0, symName: __ZNKSt3__19basic_iosIcNS_11char_traitsIcEEE10exceptionsB8ue170006Ev, symObjAddr: 0x79D0, symBinAddr: 0x1000091B4, symSize: 0x14C }
  - { offsetInCU: 0xFC4D, offset: 0xFC4D, size: 0x8, addend: 0x0, symName: _main, symObjAddr: 0x3B10, symBinAddr: 0x1000052F4, symSize: 0x370 }
  - { offsetInCU: 0xFC98, offset: 0xFC98, size: 0x8, addend: 0x0, symName: __ZNSt3__19basic_iosIcNS_11char_traitsIcEEE3tieB8ue170006EPNS_13basic_ostreamIcS2_EE, symObjAddr: 0x3E80, symBinAddr: 0x100005664, symSize: 0x188 }
  - { offsetInCU: 0xFD59, offset: 0xFD59, size: 0x8, addend: 0x0, symName: __ZNSt3__119ostreambuf_iteratorIcNS_11char_traitsIcEEEC2B8ue170006ERNS_13basic_ostreamIcS2_EE, symObjAddr: 0x5690, symBinAddr: 0x100006E74, symSize: 0x214 }
  - { offsetInCU: 0xFDB7, offset: 0xFDB7, size: 0x8, addend: 0x0, symName: __ZNKSt3__19basic_iosIcNS_11char_traitsIcEEE4fillB8ue170006Ev, symObjAddr: 0x5114, symBinAddr: 0x1000068F8, symSize: 0x244 }
  - { offsetInCU: 0xFF4C, offset: 0xFF4C, size: 0x8, addend: 0x0, symName: __ZNKSt3__19basic_iosIcNS_11char_traitsIcEEE5widenB8ue170006Ec, symObjAddr: 0x5970, symBinAddr: 0x100007154, symSize: 0x394 }
  - { offsetInCU: 0xFFCA, offset: 0xFFCA, size: 0x8, addend: 0x0, symName: __ZNSt3__18ios_base8setstateB8ue170006Ej, symObjAddr: 0x5D04, symBinAddr: 0x1000074E8, symSize: 0x180 }
  - { offsetInCU: 0x10003, offset: 0x10003, size: 0x8, addend: 0x0, symName: __ZNSt12length_errorC1B8ue170006EPKc, symObjAddr: 0x5618, symBinAddr: 0x100006DFC, symSize: 0x78 }
  - { offsetInCU: 0x101BC, offset: 0x101BC, size: 0x8, addend: 0x0, symName: __ZNSt3__16vectorINS_12basic_stringIcNS_11char_traitsIcEENS_9allocatorIcEEEENS4_IS6_EEE11__vallocateB8ue170006Em, symObjAddr: 0x60E4, symBinAddr: 0x1000078C8, symSize: 0x14C }
  - { offsetInCU: 0x102E5, offset: 0x102E5, size: 0x8, addend: 0x0, symName: __ZNSt3__16vectorINS_12basic_stringIcNS_11char_traitsIcEENS_9allocatorIcEEEENS4_IS6_EEE18__construct_at_endEm, symObjAddr: 0x6230, symBinAddr: 0x100007A14, symSize: 0x270 }
  - { offsetInCU: 0x10460, offset: 0x10460, size: 0x8, addend: 0x0, symName: __ZNSt3__128__exception_guard_exceptionsINS_6vectorINS_12basic_stringIcNS_11char_traitsIcEENS_9allocatorIcEEEENS5_IS7_EEE16__destroy_vectorEED1B8ue170006Ev, symObjAddr: 0x64A0, symBinAddr: 0x100007C84, symSize: 0x90 }
  - { offsetInCU: 0x10509, offset: 0x10509, size: 0x8, addend: 0x0, symName: __ZNKSt3__16vectorINS_12basic_stringIcNS_11char_traitsIcEENS_9allocatorIcEEEENS4_IS6_EEE14__annotate_newB8ue170006Em, symObjAddr: 0x6570, symBinAddr: 0x100007D54, symSize: 0x13C }
  - { offsetInCU: 0x1059F, offset: 0x1059F, size: 0x8, addend: 0x0, symName: __ZNKSt3__16vectorINS_12basic_stringIcNS_11char_traitsIcEENS_9allocatorIcEEEENS4_IS6_EEE20__throw_length_errorB8ue170006Ev, symObjAddr: 0x6530, symBinAddr: 0x100007D14, symSize: 0x40 }
  - { offsetInCU: 0x106FD, offset: 0x106FD, size: 0x8, addend: 0x0, symName: __ZNSt3__16vectorINS_12basic_stringIcNS_11char_traitsIcEENS_9allocatorIcEEEENS4_IS6_EEE21_ConstructTransactionC2B8ue170006ERS8_m, symObjAddr: 0x66DC, symBinAddr: 0x100007EC0, symSize: 0x124 }
  - { offsetInCU: 0x10755, offset: 0x10755, size: 0x8, addend: 0x0, symName: __ZNSt3__16vectorINS_12basic_stringIcNS_11char_traitsIcEENS_9allocatorIcEEEENS4_IS6_EEE21_ConstructTransactionD2B8ue170006Ev, symObjAddr: 0x6990, symBinAddr: 0x100008174, symSize: 0x128 }
  - { offsetInCU: 0x1082F, offset: 0x1082F, size: 0x8, addend: 0x0, symName: __ZNSt3__16vectorINS_12basic_stringIcNS_11char_traitsIcEENS_9allocatorIcEEEENS4_IS6_EEE21_ConstructTransactionD1B8ue170006Ev, symObjAddr: 0x66AC, symBinAddr: 0x100007E90, symSize: 0x30 }
  - { offsetInCU: 0x1085E, offset: 0x1085E, size: 0x8, addend: 0x0, symName: __ZNKSt3__16vectorINS_12basic_stringIcNS_11char_traitsIcEENS_9allocatorIcEEEENS4_IS6_EEE19__annotate_increaseB8ue170006Em, symObjAddr: 0x6800, symBinAddr: 0x100007FE4, symSize: 0x190 }
  - { offsetInCU: 0x10933, offset: 0x10933, size: 0x8, addend: 0x0, symName: __ZNKSt3__16vectorINS_12basic_stringIcNS_11char_traitsIcEENS_9allocatorIcEEEENS4_IS6_EEE17__annotate_shrinkB8ue170006Em, symObjAddr: 0x6AB8, symBinAddr: 0x10000829C, symSize: 0x18C }
  - { offsetInCU: 0x10A68, offset: 0x10A68, size: 0x8, addend: 0x0, symName: __ZNSt3__16vectorINS_12basic_stringIcNS_11char_traitsIcEENS_9allocatorIcEEEENS4_IS6_EEE22__base_destruct_at_endB8ue170006EPS6_, symObjAddr: 0x6ED4, symBinAddr: 0x1000086B8, symSize: 0x14C }
  - { offsetInCU: 0x10BE6, offset: 0x10BE6, size: 0x8, addend: 0x0, symName: __ZNKSt3__16vectorINS_12basic_stringIcNS_11char_traitsIcEENS_9allocatorIcEEEENS4_IS6_EEE17__annotate_deleteB8ue170006Ev, symObjAddr: 0x6DA0, symBinAddr: 0x100008584, symSize: 0x134 }
  - { offsetInCU: 0x10E00, offset: 0x10E00, size: 0x8, addend: 0x0, symName: __ZNSt3__16vectorINS0_INS_12basic_stringIcNS_11char_traitsIcEENS_9allocatorIcEEEENS4_IS6_EEEENS4_IS8_EEE11__vallocateB8ue170006Em, symObjAddr: 0x7D84, symBinAddr: 0x100009568, symSize: 0x14C }
  - { offsetInCU: 0x10F29, offset: 0x10F29, size: 0x8, addend: 0x0, symName: __ZNSt3__16vectorINS0_INS_12basic_stringIcNS_11char_traitsIcEENS_9allocatorIcEEEENS4_IS6_EEEENS4_IS8_EEE18__construct_at_endEmRKS8_, symObjAddr: 0x7ED0, symBinAddr: 0x1000096B4, symSize: 0x2DC }
  - { offsetInCU: 0x110C2, offset: 0x110C2, size: 0x8, addend: 0x0, symName: __ZNSt3__128__exception_guard_exceptionsINS_6vectorINS1_INS_12basic_stringIcNS_11char_traitsIcEENS_9allocatorIcEEEENS5_IS7_EEEENS5_IS9_EEE16__destroy_vectorEED1B8ue170006Ev, symObjAddr: 0x81AC, symBinAddr: 0x100009990, symSize: 0x90 }
  - { offsetInCU: 0x11170, offset: 0x11170, size: 0x8, addend: 0x0, symName: __ZNKSt3__16vectorINS0_INS_12basic_stringIcNS_11char_traitsIcEENS_9allocatorIcEEEENS4_IS6_EEEENS4_IS8_EEE14__annotate_newB8ue170006Em, symObjAddr: 0x827C, symBinAddr: 0x100009A60, symSize: 0x13C }
  - { offsetInCU: 0x11206, offset: 0x11206, size: 0x8, addend: 0x0, symName: __ZNKSt3__16vectorINS0_INS_12basic_stringIcNS_11char_traitsIcEENS_9allocatorIcEEEENS4_IS6_EEEENS4_IS8_EEE20__throw_length_errorB8ue170006Ev, symObjAddr: 0x823C, symBinAddr: 0x100009A20, symSize: 0x40 }
  - { offsetInCU: 0x11365, offset: 0x11365, size: 0x8, addend: 0x0, symName: __ZNSt3__16vectorINS0_INS_12basic_stringIcNS_11char_traitsIcEENS_9allocatorIcEEEENS4_IS6_EEEENS4_IS8_EEE21_ConstructTransactionC2B8ue170006ERSA_m, symObjAddr: 0x83E8, symBinAddr: 0x100009BCC, symSize: 0x124 }
  - { offsetInCU: 0x113BD, offset: 0x113BD, size: 0x8, addend: 0x0, symName: __ZNSt3__16vectorINS_12basic_stringIcNS_11char_traitsIcEENS_9allocatorIcEEEENS4_IS6_EEEC2ERKS8_, symObjAddr: 0x869C, symBinAddr: 0x100009E80, symSize: 0x2B0 }
  - { offsetInCU: 0x11520, offset: 0x11520, size: 0x8, addend: 0x0, symName: __ZNSt3__16vectorINS0_INS_12basic_stringIcNS_11char_traitsIcEENS_9allocatorIcEEEENS4_IS6_EEEENS4_IS8_EEE21_ConstructTransactionD2B8ue170006Ev, symObjAddr: 0x9448, symBinAddr: 0x10000AC2C, symSize: 0x128 }
  - { offsetInCU: 0x11558, offset: 0x11558, size: 0x8, addend: 0x0, symName: __ZNSt3__16vectorINS0_INS_12basic_stringIcNS_11char_traitsIcEENS_9allocatorIcEEEENS4_IS6_EEEENS4_IS8_EEE21_ConstructTransactionD1B8ue170006Ev, symObjAddr: 0x83B8, symBinAddr: 0x100009B9C, symSize: 0x30 }
  - { offsetInCU: 0x11629, offset: 0x11629, size: 0x8, addend: 0x0, symName: __ZNKSt3__16vectorINS0_INS_12basic_stringIcNS_11char_traitsIcEENS_9allocatorIcEEEENS4_IS6_EEEENS4_IS8_EEE19__annotate_increaseB8ue170006Em, symObjAddr: 0x850C, symBinAddr: 0x100009CF0, symSize: 0x190 }
  - { offsetInCU: 0x117E0, offset: 0x117E0, size: 0x8, addend: 0x0, symName: __ZNSt3__16vectorINS_12basic_stringIcNS_11char_traitsIcEENS_9allocatorIcEEEENS4_IS6_EEE18__construct_at_endIPS6_SA_EEvT_T0_m, symObjAddr: 0x894C, symBinAddr: 0x10000A130, symSize: 0x2A4 }
  - { offsetInCU: 0x11AFF, offset: 0x11AFF, size: 0x8, addend: 0x0, symName: __ZNSt3__128__exception_guard_exceptionsINS_29_AllocatorDestroyRangeReverseINS_9allocatorINS_12basic_stringIcNS_11char_traitsIcEENS2_IcEEEEEEPS7_EEED2B8ue170006Ev, symObjAddr: 0x9018, symBinAddr: 0x10000A7FC, symSize: 0xA0 }
  - { offsetInCU: 0x11B3E, offset: 0x11B3E, size: 0x8, addend: 0x0, symName: __ZNSt3__128__exception_guard_exceptionsINS_29_AllocatorDestroyRangeReverseINS_9allocatorINS_12basic_stringIcNS_11char_traitsIcEENS2_IcEEEEEEPS7_EEED1B8ue170006Ev, symObjAddr: 0x8FE8, symBinAddr: 0x10000A7CC, symSize: 0x30 }
  - { offsetInCU: 0x11B6D, offset: 0x11B6D, size: 0x8, addend: 0x0, symName: __ZNKSt3__129_AllocatorDestroyRangeReverseINS_9allocatorINS_12basic_stringIcNS_11char_traitsIcEENS1_IcEEEEEEPS6_EclB8ue170006Ev, symObjAddr: 0x90B8, symBinAddr: 0x10000A89C, symSize: 0xE4 }
  - { offsetInCU: 0x11BF0, offset: 0x11BF0, size: 0x8, addend: 0x0, symName: __ZNKSt3__116reverse_iteratorIPNS_12basic_stringIcNS_11char_traitsIcEENS_9allocatorIcEEEEEdeB8ue170006Ev, symObjAddr: 0x93C0, symBinAddr: 0x10000ABA4, symSize: 0x88 }
  - { offsetInCU: 0x11C27, offset: 0x11C27, size: 0x8, addend: 0x0, symName: __ZNKSt3__16vectorINS0_INS_12basic_stringIcNS_11char_traitsIcEENS_9allocatorIcEEEENS4_IS6_EEEENS4_IS8_EEE17__annotate_shrinkB8ue170006Em, symObjAddr: 0x9570, symBinAddr: 0x10000AD54, symSize: 0x18C }
  - { offsetInCU: 0x11D5C, offset: 0x11D5C, size: 0x8, addend: 0x0, symName: __ZNSt3__16vectorINS0_INS_12basic_stringIcNS_11char_traitsIcEENS_9allocatorIcEEEENS4_IS6_EEEENS4_IS8_EEE22__base_destruct_at_endB8ue170006EPS8_, symObjAddr: 0x998C, symBinAddr: 0x10000B170, symSize: 0x230 }
  - { offsetInCU: 0x11E5C, offset: 0x11E5C, size: 0x8, addend: 0x0, symName: __ZNKSt3__16vectorINS0_INS_12basic_stringIcNS_11char_traitsIcEENS_9allocatorIcEEEENS4_IS6_EEEENS4_IS8_EEE17__annotate_deleteB8ue170006Ev, symObjAddr: 0x9858, symBinAddr: 0x10000B03C, symSize: 0x134 }
  - { offsetInCU: 0x12015, offset: 0x12015, size: 0x8, addend: 0x0, symName: __ZNSt3__16vectorIbNS_9allocatorIbEEE11__vallocateB8ue170006Em, symObjAddr: 0x9C80, symBinAddr: 0x10000B464, symSize: 0xEC }
  - { offsetInCU: 0x12141, offset: 0x12141, size: 0x8, addend: 0x0, symName: __ZNSt3__16vectorIbNS_9allocatorIbEEE18__construct_at_endB8ue170006Emb, symObjAddr: 0x9D6C, symBinAddr: 0x10000B550, symSize: 0x37C }
  - { offsetInCU: 0x122DB, offset: 0x122DB, size: 0x8, addend: 0x0, symName: __ZNKSt3__16vectorIbNS_9allocatorIbEEE20__throw_length_errorB8ue170006Ev, symObjAddr: 0xA0E8, symBinAddr: 0x10000B8CC, symSize: 0x40 }
...
