---
triple:          'arm64-apple-darwin'
binary-path:     '/Users/eric/Workspace/compprog/codeforces/contest/1002/D_Graph_and_Graph.bin'
relocations:
  - { offsetInCU: 0x3B, offset: 0x3B, size: 0x8, addend: 0x0, symName: _.str, symObjAddr: 0x35320, symBinAddr: 0x100038A20, symSize: 0x0 }
  - { offsetInCU: 0x6B, offset: 0x6B, size: 0x8, addend: 0x0, symName: _.str.1, symObjAddr: 0x35340, symBinAddr: 0x100038A40, symSize: 0x0 }
  - { offsetInCU: 0x7C, offset: 0x7C, size: 0x8, addend: 0x0, symName: _.str.2, symObjAddr: 0x35360, symBinAddr: 0x100038A60, symSize: 0x0 }
  - { offsetInCU: 0x8D, offset: 0x8D, size: 0x8, addend: 0x0, symName: _.str.3, symObjAddr: 0x2B2C0, symBinAddr: 0x10002E980, symSize: 0x0 }
  - { offsetInCU: 0xAA, offset: 0xAA, size: 0x8, addend: 0x0, symName: _.str.4, symObjAddr: 0x35380, symBinAddr: 0x100038A80, symSize: 0x0 }
  - { offsetInCU: 0xBB, offset: 0xBB, size: 0x8, addend: 0x0, symName: _.str.6, symObjAddr: 0x353A0, symBinAddr: 0x100038AA0, symSize: 0x0 }
  - { offsetInCU: 0xCC, offset: 0xCC, size: 0x8, addend: 0x0, symName: _.str.7, symObjAddr: 0x353C0, symBinAddr: 0x100038AC0, symSize: 0x0 }
  - { offsetInCU: 0xE9, offset: 0xE9, size: 0x8, addend: 0x0, symName: _.str.8, symObjAddr: 0x353E0, symBinAddr: 0x100038AE0, symSize: 0x0 }
  - { offsetInCU: 0x106, offset: 0x106, size: 0x8, addend: 0x0, symName: _.str.9, symObjAddr: 0x35400, symBinAddr: 0x100038B00, symSize: 0x0 }
  - { offsetInCU: 0x123, offset: 0x123, size: 0x8, addend: 0x0, symName: _.str.10, symObjAddr: 0x35420, symBinAddr: 0x100038B20, symSize: 0x0 }
  - { offsetInCU: 0x134, offset: 0x134, size: 0x8, addend: 0x0, symName: _.str.11, symObjAddr: 0x35440, symBinAddr: 0x100038B40, symSize: 0x0 }
  - { offsetInCU: 0x146, offset: 0x146, size: 0x8, addend: 0x0, symName: _.str.25, symObjAddr: 0x35460, symBinAddr: 0x100038B60, symSize: 0x0 }
  - { offsetInCU: 0x164, offset: 0x164, size: 0x8, addend: 0x0, symName: _.str.36, symObjAddr: 0x35480, symBinAddr: 0x100038B80, symSize: 0x0 }
  - { offsetInCU: 0x18F, offset: 0x18F, size: 0x8, addend: 0x0, symName: __ZNSt3__119piecewise_constructE, symObjAddr: 0x2E2D8, symBinAddr: 0x100031998, symSize: 0x0 }
  - { offsetInCU: 0x73E5, offset: 0x73E5, size: 0x8, addend: 0x0, symName: __ZNSt3__124__put_character_sequenceB8ue170006IcNS_11char_traitsIcEEEERNS_13basic_ostreamIT_T0_EES7_PKS4_m, symObjAddr: 0x7474, symBinAddr: 0x10000A7F0, symSize: 0x910 }
  - { offsetInCU: 0x150DF, offset: 0x150DF, size: 0x8, addend: 0x0, symName: __ZNSt3__117__floyd_sift_downB8ue170006INS_17_ClassicAlgPolicyERNS_7greaterINS_4pairIx4vertEEEENS_11__wrap_iterIPS5_EEEET1_SB_OT0_NS_15iterator_traitsISB_E15difference_typeE, symObjAddr: 0x1DCF8, symBinAddr: 0x100021074, symSize: 0x494 }
  - { offsetInCU: 0x15F86, offset: 0x15F86, size: 0x8, addend: 0x0, symName: __ZNSt3__1lsB8ue170006IcNS_11char_traitsIcEENS_9allocatorIcEEEERNS_13basic_ostreamIT_T0_EES9_RKNS_12basic_stringIS6_S7_T1_EE, symObjAddr: 0xB8C, symBinAddr: 0x100003F08, symSize: 0x48 }
  - { offsetInCU: 0x16040, offset: 0x16040, size: 0x8, addend: 0x0, symName: __ZNSt3__1neB8ue170006ERKNS_14__bit_iteratorINS_6vectorIbNS_9allocatorIbEEEELb0ELm0EEES7_, symObjAddr: 0x1104, symBinAddr: 0x100004480, symSize: 0xC4 }
  - { offsetInCU: 0x16634, offset: 0x16634, size: 0x8, addend: 0x0, symName: __ZNSt3__1eqB8ue170006IPNS_4pairI4vertxEEEEbRKNS_11__wrap_iterIT_EES9_, symObjAddr: 0x21394, symBinAddr: 0x100024710, symSize: 0x58 }
  - { offsetInCU: 0x16728, offset: 0x16728, size: 0x8, addend: 0x0, symName: __ZNSt3__116__pad_and_outputB8ue170006IcNS_11char_traitsIcEEEENS_19ostreambuf_iteratorIT_T0_EES6_PKS4_S8_S8_RNS_8ios_baseES4_, symObjAddr: 0x7D84, symBinAddr: 0x10000B100, symSize: 0x800 }
  - { offsetInCU: 0x1698E, offset: 0x1698E, size: 0x8, addend: 0x0, symName: __ZNSt3__120__throw_length_errorB8ue170006EPKc, symObjAddr: 0x8BD4, symBinAddr: 0x10000BF50, symSize: 0x78 }
  - { offsetInCU: 0x16E6B, offset: 0x16E6B, size: 0x8, addend: 0x0, symName: __ZNSt3__19use_facetB8ue170006INS_5ctypeIcEEEERKT_RKNS_6localeE, symObjAddr: 0x9724, symBinAddr: 0x10000CAA0, symSize: 0x100 }
  - { offsetInCU: 0x16EC7, offset: 0x16EC7, size: 0x8, addend: 0x0, symName: __ZNSt3__119__allocate_at_leastB8ue170006INS_9allocatorINS_4pairIiiEEEEEENS_19__allocation_resultINS_16allocator_traitsIT_E7pointerEEERS7_m, symObjAddr: 0xA7F0, symBinAddr: 0x10000DB6C, symSize: 0x44 }
  - { offsetInCU: 0x16FEA, offset: 0x16FEA, size: 0x8, addend: 0x0, symName: __ZNSt3__127__tree_balance_after_insertB8ue170006IPNS_16__tree_node_baseIPvEEEEvT_S5_, symObjAddr: 0xF6C4, symBinAddr: 0x100012A40, symSize: 0x11B8 }
  - { offsetInCU: 0x17282, offset: 0x17282, size: 0x8, addend: 0x0, symName: __ZNSt3__119__tree_right_rotateB8ue170006IPNS_16__tree_node_baseIPvEEEEvT_, symObjAddr: 0x10EF4, symBinAddr: 0x100014270, symSize: 0x834 }
  - { offsetInCU: 0x17336, offset: 0x17336, size: 0x8, addend: 0x0, symName: __ZNSt3__118__tree_left_rotateB8ue170006IPNS_16__tree_node_baseIPvEEEEvT_, symObjAddr: 0x108EC, symBinAddr: 0x100013C68, symSize: 0x608 }
  - { offsetInCU: 0x1744E, offset: 0x1744E, size: 0x8, addend: 0x0, symName: __ZNSt3__142__uninitialized_allocator_move_if_noexceptB8ue170006INS_9allocatorINS_4pairI4vertxEEEENS_16reverse_iteratorIPS4_EES8_S8_EET2_RT_T0_T1_S9_, symObjAddr: 0x1391C, symBinAddr: 0x100016C98, symSize: 0x424 }
  - { offsetInCU: 0x1766A, offset: 0x1766A, size: 0x8, addend: 0x0, symName: __ZNSt3__119__allocate_at_leastB8ue170006INS_9allocatorINS_4pairI4vertxEEEEEENS_19__allocation_resultINS_16allocator_traitsIT_E7pointerEEERS8_m, symObjAddr: 0x135A0, symBinAddr: 0x10001691C, symSize: 0x44 }
  - { offsetInCU: 0x177BA, offset: 0x177BA, size: 0x8, addend: 0x0, symName: __ZNSt3__119__allocator_destroyB8ue170006INS_9allocatorINS_4pairI4vertxEEEENS_16reverse_iteratorINS6_IPS4_EEEES9_EEvRT_T0_T1_, symObjAddr: 0x144A8, symBinAddr: 0x100017824, symSize: 0x140 }
  - { offsetInCU: 0x17957, offset: 0x17957, size: 0x8, addend: 0x0, symName: __ZNSt3__112__to_addressB8ue170006INS_16reverse_iteratorINS1_IPNS_4pairI4vertxEEEEEEvEEu7__decayIDTclsr19__to_address_helperIT_EE6__callclsr3stdE7declvalIRKS8_EEEEESA_, symObjAddr: 0x145E8, symBinAddr: 0x100017964, symSize: 0x2C }
  - { offsetInCU: 0x17A4B, offset: 0x17A4B, size: 0x8, addend: 0x0, symName: __ZNSt3__1miB8ue170006IPNS_4pairIx4vertEES4_EEDTmicldtfp_4baseEcldtfp0_4baseEERKNS_11__wrap_iterIT_EERKNS6_IT0_EE, symObjAddr: 0x1D144, symBinAddr: 0x1000204C0, symSize: 0x58 }
  - { offsetInCU: 0x17AB4, offset: 0x17AB4, size: 0x8, addend: 0x0, symName: __ZNSt3__19__sift_upB8ue170006INS_17_ClassicAlgPolicyERNS_7greaterINS_4pairIx4vertEEEENS_11__wrap_iterIPS5_EEEEvT1_SB_OT0_NS_15iterator_traitsISB_E15difference_typeE, symObjAddr: 0x1D19C, symBinAddr: 0x100020518, symSize: 0x374 }
  - { offsetInCU: 0x17D62, offset: 0x17D62, size: 0x8, addend: 0x0, symName: __ZNSt3__110__pop_heapB8ue170006INS_17_ClassicAlgPolicyENS_7greaterINS_4pairIx4vertEEEENS_11__wrap_iterIPS5_EEEEvT1_SA_RT0_NS_15iterator_traitsISA_E15difference_typeE, symObjAddr: 0x1D850, symBinAddr: 0x100020BCC, symSize: 0x4A8 }
  - { offsetInCU: 0x1801F, offset: 0x1801F, size: 0x8, addend: 0x0, symName: __ZNSt3__142__uninitialized_allocator_move_if_noexceptB8ue170006INS_9allocatorINS_4pairIx4vertEEEENS_16reverse_iteratorIPS4_EES8_S8_EET2_RT_T0_T1_S9_, symObjAddr: 0x1BC54, symBinAddr: 0x10001EFD0, symSize: 0x424 }
  - { offsetInCU: 0x1823B, offset: 0x1823B, size: 0x8, addend: 0x0, symName: __ZNSt3__119__allocate_at_leastB8ue170006INS_9allocatorINS_4pairIx4vertEEEEEENS_19__allocation_resultINS_16allocator_traitsIT_E7pointerEEERS8_m, symObjAddr: 0x1B668, symBinAddr: 0x10001E9E4, symSize: 0x44 }
  - { offsetInCU: 0x1838B, offset: 0x1838B, size: 0x8, addend: 0x0, symName: __ZNSt3__119__allocator_destroyB8ue170006INS_9allocatorINS_4pairIx4vertEEEENS_16reverse_iteratorINS6_IPS4_EEEES9_EEvRT_T0_T1_, symObjAddr: 0x1C7E0, symBinAddr: 0x10001FB5C, symSize: 0x140 }
  - { offsetInCU: 0x18528, offset: 0x18528, size: 0x8, addend: 0x0, symName: __ZNSt3__112__to_addressB8ue170006INS_16reverse_iteratorINS1_IPNS_4pairIx4vertEEEEEEvEEu7__decayIDTclsr19__to_address_helperIT_EE6__callclsr3stdE7declvalIRKS8_EEEEESA_, symObjAddr: 0x1C920, symBinAddr: 0x10001FC9C, symSize: 0x2C }
  - { offsetInCU: 0x1861F, offset: 0x1861F, size: 0x8, addend: 0x0, symName: __ZNSt3__1ltB8ue170006Ix4vertxS1_EEbRKNS_4pairIT_T0_EERKNS2_IT1_T2_EE, symObjAddr: 0x1D744, symBinAddr: 0x100020AC0, symSize: 0x7C }
  - { offsetInCU: 0x18690, offset: 0x18690, size: 0x8, addend: 0x0, symName: __ZNSt3__1eqB8ue170006IPNS_4pairIx4vertEEEEbRKNS_11__wrap_iterIT_EES9_, symObjAddr: 0x1E18C, symBinAddr: 0x100021508, symSize: 0x58 }
  - { offsetInCU: 0x1872B, offset: 0x1872B, size: 0x8, addend: 0x0, symName: __ZNSt3__1neB8ue170006ERKNS_20__map_const_iteratorINS_21__tree_const_iteratorINS_12__value_typeI4vertxEEPNS_11__tree_nodeIS4_PvEElEEEESC_, symObjAddr: 0x246EC, symBinAddr: 0x100027A68, symSize: 0x58 }
  - { offsetInCU: 0x188C1, offset: 0x188C1, size: 0x8, addend: 0x0, symName: __ZNSt3__116__tree_prev_iterB8ue170006IPNS_16__tree_node_baseIPvEEPNS_15__tree_end_nodeIS4_EEEET_T0_, symObjAddr: 0x258BC, symBinAddr: 0x100028C38, symSize: 0x3D0 }
  - { offsetInCU: 0x1898D, offset: 0x1898D, size: 0x8, addend: 0x0, symName: __ZNSt3__116__tree_next_iterB8ue170006IPNS_15__tree_end_nodeIPNS_16__tree_node_baseIPvEEEES5_EET_T0_, symObjAddr: 0x25D64, symBinAddr: 0x1000290E0, symSize: 0x41C }
  - { offsetInCU: 0x18A34, offset: 0x18A34, size: 0x8, addend: 0x0, symName: __ZNSt3__1neB8ue170006ERKNS_20__map_const_iteratorINS_21__tree_const_iteratorINS_12__value_typeI4vertS3_EEPNS_11__tree_nodeIS4_PvEElEEEESC_, symObjAddr: 0x26BA4, symBinAddr: 0x100029F20, symSize: 0x58 }
  - { offsetInCU: 0x18BCA, offset: 0x18BCA, size: 0x8, addend: 0x0, symName: __ZNSt3__1neB8ue170006ERKNS_14__map_iteratorINS_15__tree_iteratorINS_12__value_typeI4vertxEEPNS_11__tree_nodeIS4_PvEElEEEESC_, symObjAddr: 0x2876C, symBinAddr: 0x10002BAE8, symSize: 0x58 }
  - { offsetInCU: 0x19228, offset: 0x19228, size: 0x8, addend: 0x0, symName: __ZSt28__throw_bad_array_new_lengthB8ue170006v, symObjAddr: 0x8DC4, symBinAddr: 0x10000C140, symSize: 0x5C }
  - { offsetInCU: 0x19255, offset: 0x19255, size: 0x8, addend: 0x0, symName: _.str.54, symObjAddr: 0x354A0, symBinAddr: 0x100038BA0, symSize: 0x0 }
  - { offsetInCU: 0x19266, offset: 0x19266, size: 0x8, addend: 0x0, symName: _.str.55, symObjAddr: 0x354C0, symBinAddr: 0x100038BC0, symSize: 0x0 }
  - { offsetInCU: 0x1A743, offset: 0x1A743, size: 0x8, addend: 0x0, symName: __ZNSt3__16vectorINS_4pairI4vertxEENS_9allocatorIS3_EEE26__swap_out_circular_bufferERNS_14__split_bufferIS3_RS5_EE, symObjAddr: 0x12D8C, symBinAddr: 0x100016108, symSize: 0x2E8 }
  - { offsetInCU: 0x1B232, offset: 0x1B232, size: 0x8, addend: 0x0, symName: __ZNSt3__16vectorINS_4pairIx4vertEENS_9allocatorIS3_EEE26__swap_out_circular_bufferERNS_14__split_bufferIS3_RS5_EE, symObjAddr: 0x1AE54, symBinAddr: 0x10001E1D0, symSize: 0x2E8 }
  - { offsetInCU: 0x1D9F9, offset: 0x1D9F9, size: 0x8, addend: 0x0, symName: __ZN14__DEBUG_UTIL__5printEPKc, symObjAddr: 0x0, symBinAddr: 0x10000337C, symSize: 0x30 }
  - { offsetInCU: 0x1DA86, offset: 0x1DA86, size: 0x8, addend: 0x0, symName: __ZN14__DEBUG_UTIL__5printEb, symObjAddr: 0x30, symBinAddr: 0x1000033AC, symSize: 0x28 }
  - { offsetInCU: 0x1DAE2, offset: 0x1DAE2, size: 0x8, addend: 0x0, symName: __ZN14__DEBUG_UTIL__5printEc, symObjAddr: 0x58, symBinAddr: 0x1000033D4, symSize: 0x21C }
  - { offsetInCU: 0x1DBB9, offset: 0x1DBB9, size: 0x8, addend: 0x0, symName: __ZN14__DEBUG_UTIL__5printEs, symObjAddr: 0x274, symBinAddr: 0x1000035F0, symSize: 0xA8 }
  - { offsetInCU: 0x1DBE4, offset: 0x1DBE4, size: 0x8, addend: 0x0, symName: __ZN14__DEBUG_UTIL__5printEt, symObjAddr: 0x31C, symBinAddr: 0x100003698, symSize: 0xA8 }
  - { offsetInCU: 0x1DC0F, offset: 0x1DC0F, size: 0x8, addend: 0x0, symName: __ZN14__DEBUG_UTIL__5printEi, symObjAddr: 0x3C4, symBinAddr: 0x100003740, symSize: 0xA8 }
  - { offsetInCU: 0x1DC3A, offset: 0x1DC3A, size: 0x8, addend: 0x0, symName: __ZN14__DEBUG_UTIL__5printEj, symObjAddr: 0x46C, symBinAddr: 0x1000037E8, symSize: 0xA8 }
  - { offsetInCU: 0x1DC65, offset: 0x1DC65, size: 0x8, addend: 0x0, symName: __ZN14__DEBUG_UTIL__5printEl, symObjAddr: 0x514, symBinAddr: 0x100003890, symSize: 0xA8 }
  - { offsetInCU: 0x1DC90, offset: 0x1DC90, size: 0x8, addend: 0x0, symName: __ZN14__DEBUG_UTIL__5printEm, symObjAddr: 0x5BC, symBinAddr: 0x100003938, symSize: 0xA8 }
  - { offsetInCU: 0x1DCBB, offset: 0x1DCBB, size: 0x8, addend: 0x0, symName: __ZN14__DEBUG_UTIL__5printEx, symObjAddr: 0x664, symBinAddr: 0x1000039E0, symSize: 0xA8 }
  - { offsetInCU: 0x1DCD9, offset: 0x1DCD9, size: 0x8, addend: 0x0, symName: __ZN14__DEBUG_UTIL__5printEy, symObjAddr: 0x70C, symBinAddr: 0x100003A88, symSize: 0xA8 }
  - { offsetInCU: 0x1DD04, offset: 0x1DD04, size: 0x8, addend: 0x0, symName: __ZN14__DEBUG_UTIL__5printEf, symObjAddr: 0x7B4, symBinAddr: 0x100003B30, symSize: 0xA0 }
  - { offsetInCU: 0x1DD2F, offset: 0x1DD2F, size: 0x8, addend: 0x0, symName: __ZN14__DEBUG_UTIL__5printEd, symObjAddr: 0x854, symBinAddr: 0x100003BD0, symSize: 0xA0 }
  - { offsetInCU: 0x1DD5A, offset: 0x1DD5A, size: 0x8, addend: 0x0, symName: __ZN14__DEBUG_UTIL__5printEe, symObjAddr: 0x8F4, symBinAddr: 0x100003C70, symSize: 0xA0 }
  - { offsetInCU: 0x1DD85, offset: 0x1DD85, size: 0x8, addend: 0x0, symName: __ZN14__DEBUG_UTIL__5printENSt3__112basic_stringIcNS0_11char_traitsIcEENS0_9allocatorIcEEEE, symObjAddr: 0x994, symBinAddr: 0x100003D10, symSize: 0x1F8 }
  - { offsetInCU: 0x1DE30, offset: 0x1DE30, size: 0x8, addend: 0x0, symName: __ZN14__DEBUG_UTIL__5printENSt3__16vectorIbNS0_9allocatorIbEEEE, symObjAddr: 0xBD4, symBinAddr: 0x100003F50, symSize: 0x4E4 }
  - { offsetInCU: 0x1E0A0, offset: 0x1E0A0, size: 0x8, addend: 0x0, symName: __ZN14__DEBUG_UTIL__7printerEPKc, symObjAddr: 0x1518, symBinAddr: 0x100004894, symSize: 0x4 }
  - { offsetInCU: 0x1E0C5, offset: 0x1E0C5, size: 0x8, addend: 0x0, symName: __ZN14__DEBUG_UTIL__10printerArrEPKc, symObjAddr: 0x151C, symBinAddr: 0x100004898, symSize: 0x4 }
  - { offsetInCU: 0x1E0EA, offset: 0x1E0EA, size: 0x8, addend: 0x0, symName: __ZN14__DEBUG_UTIL__7printerIRNSt3__13mapI4vertxNS1_4lessIS3_EENS1_9allocatorINS1_4pairIKS3_xEEEEEEJEEEvPKcOT_DpOT0_, symObjAddr: 0x5220, symBinAddr: 0x10000859C, symSize: 0x578 }
  - { offsetInCU: 0x1E1C1, offset: 0x1E1C1, size: 0x8, addend: 0x0, symName: __ZN14__DEBUG_UTIL__7printerIRxJEEEvPKcOT_DpOT0_, symObjAddr: 0x59FC, symBinAddr: 0x100008D78, symSize: 0x69C }
  - { offsetInCU: 0x1E29A, offset: 0x1E29A, size: 0x8, addend: 0x0, symName: __ZN14__DEBUG_UTIL__5printIRNSt3__13mapI4vertxNS1_4lessIS3_EENS1_9allocatorINS1_4pairIKS3_xEEEEEEEEvOT_, symObjAddr: 0x28428, symBinAddr: 0x10002B7A4, symSize: 0x2DC }
  - { offsetInCU: 0x1E477, offset: 0x1E477, size: 0x8, addend: 0x0, symName: __ZN14__DEBUG_UTIL__5printIK4vertxEEvNSt3__14pairIT_T0_EE, symObjAddr: 0x28870, symBinAddr: 0x10002BBEC, symSize: 0x2BC }
  - { offsetInCU: 0x1E5C6, offset: 0x1E5C6, size: 0x8, addend: 0x0, symName: __ZNKSt3__112basic_stringIcNS_11char_traitsIcEENS_9allocatorIcEEE13__get_pointerB8ue170006Ev, symObjAddr: 0x9A1C, symBinAddr: 0x10000CD98, symSize: 0x5C }
  - { offsetInCU: 0x1E629, offset: 0x1E629, size: 0x8, addend: 0x0, symName: __ZNKSt3__112basic_stringIcNS_11char_traitsIcEENS_9allocatorIcEEE4sizeB8ue170006Ev, symObjAddr: 0x99C0, symBinAddr: 0x10000CD3C, symSize: 0x5C }
  - { offsetInCU: 0x1E74A, offset: 0x1E74A, size: 0x8, addend: 0x0, symName: __ZNKSt3__114__bit_iteratorINS_6vectorIbNS_9allocatorIbEEEELb0ELm0EEdeB8ue170006Ev, symObjAddr: 0x11C8, symBinAddr: 0x100004544, symSize: 0xCC }
  - { offsetInCU: 0x1E771, offset: 0x1E771, size: 0x8, addend: 0x0, symName: __ZNKSt3__115__bit_referenceINS_6vectorIbNS_9allocatorIbEEEELb1EEcvbB8ue170006Ev, symObjAddr: 0x1294, symBinAddr: 0x100004610, symSize: 0xE4 }
  - { offsetInCU: 0x1E798, offset: 0x1E798, size: 0x8, addend: 0x0, symName: __ZNSt3__114__bit_iteratorINS_6vectorIbNS_9allocatorIbEEEELb0ELm0EEppB8ue170006Ev, symObjAddr: 0x1378, symBinAddr: 0x1000046F4, symSize: 0x1A0 }
  - { offsetInCU: 0x1E7BF, offset: 0x1E7BF, size: 0x8, addend: 0x0, symName: __ZNSt3__16vectorIbNS_9allocatorIbEEE5beginB8ue170006Ev, symObjAddr: 0x10B8, symBinAddr: 0x100004434, symSize: 0x4C }
  - { offsetInCU: 0x1E7F4, offset: 0x1E7F4, size: 0x8, addend: 0x0, symName: __ZNSt3__16vectorIbNS_9allocatorIbEEE11__make_iterB8ue170006Em, symObjAddr: 0x9C80, symBinAddr: 0x10000CFFC, symSize: 0x168 }
  - { offsetInCU: 0x1E871, offset: 0x1E871, size: 0x8, addend: 0x0, symName: __Z5print4vert, symObjAddr: 0x1520, symBinAddr: 0x10000489C, symSize: 0x28C }
  - { offsetInCU: 0x1EC7D, offset: 0x1EC7D, size: 0x8, addend: 0x0, symName: __Z5solvev, symObjAddr: 0x17AC, symBinAddr: 0x100004B28, symSize: 0x2DD4 }
  - { offsetInCU: 0x1FA16, offset: 0x1FA16, size: 0x8, addend: 0x0, symName: __ZNSt3__16vectorINS_4pairIiiEENS_9allocatorIS2_EEEC2Em, symObjAddr: 0x9DE8, symBinAddr: 0x10000D164, symSize: 0x338 }
  - { offsetInCU: 0x1FB6E, offset: 0x1FB6E, size: 0x8, addend: 0x0, symName: __ZNSt3__16__treeINS_12__value_typeI4vertNS_6vectorINS_4pairIS2_xEENS_9allocatorIS5_EEEEEENS_19__map_value_compareIS2_S9_NS_4lessIS2_EELb1EEENS6_IS9_EEEC2ERKSD_, symObjAddr: 0xBFB4, symBinAddr: 0x10000F330, symSize: 0x258 }
  - { offsetInCU: 0x1FC39, offset: 0x1FC39, size: 0x8, addend: 0x0, symName: __ZNSt3__13mapI4vertNS_6vectorINS_4pairIS1_xEENS_9allocatorIS4_EEEENS_4lessIS1_EENS5_INS3_IKS1_S7_EEEEEixEOS1_, symObjAddr: 0x4580, symBinAddr: 0x1000078FC, symSize: 0x264 }
  - { offsetInCU: 0x1FCC6, offset: 0x1FCC6, size: 0x8, addend: 0x0, symName: __ZNSt3__16vectorINS_4pairI4vertxEENS_9allocatorIS3_EEE12emplace_backIJS2_iEEERS3_DpOT_, symObjAddr: 0x47E4, symBinAddr: 0x100007B60, symSize: 0xC0 }
  - { offsetInCU: 0x1FD60, offset: 0x1FD60, size: 0x8, addend: 0x0, symName: __Z8dijkstraI4vertxENSt3__14pairINS1_3mapIT_T0_NS1_4lessIS4_EENS1_9allocatorINS2_IKS4_S5_EEEEEENS3_IS4_S4_S7_NS8_INS2_IS9_S4_EEEEEEEERNS3_IS4_NS1_6vectorINS2_IS4_S5_EENS8_ISI_EEEES7_NS8_INS2_IS9_SK_EEEEEES4_, symObjAddr: 0x48A4, symBinAddr: 0x100007C20, symSize: 0x97C }
  - { offsetInCU: 0x20525, offset: 0x20525, size: 0x8, addend: 0x0, symName: __ZNKSt3__16__treeINS_12__value_typeI4vertxEENS_19__map_value_compareIS2_S3_NS_4lessIS2_EELb1EEENS_9allocatorIS3_EEE14__count_uniqueIS2_EEmRKT_, symObjAddr: 0x28C74, symBinAddr: 0x10002BFF0, symSize: 0x228 }
  - { offsetInCU: 0x205F4, offset: 0x205F4, size: 0x8, addend: 0x0, symName: __ZNSt3__13mapI4vertxNS_4lessIS1_EENS_9allocatorINS_4pairIKS1_xEEEEEixEOS1_, symObjAddr: 0x5798, symBinAddr: 0x100008B14, symSize: 0x264 }
  - { offsetInCU: 0x2067B, offset: 0x2067B, size: 0x8, addend: 0x0, symName: __ZNSt3__16__treeINS_12__value_typeI4vertS2_EENS_19__map_value_compareIS2_S3_NS_4lessIS2_EELb1EEENS_9allocatorIS3_EEED1Ev, symObjAddr: 0x6938, symBinAddr: 0x100009CB4, symSize: 0x64 }
  - { offsetInCU: 0x206E7, offset: 0x206E7, size: 0x8, addend: 0x0, symName: __ZNSt3__16__treeINS_12__value_typeI4vertxEENS_19__map_value_compareIS2_S3_NS_4lessIS2_EELb1EEENS_9allocatorIS3_EEED1Ev, symObjAddr: 0x6EDC, symBinAddr: 0x10000A258, symSize: 0x64 }
  - { offsetInCU: 0x20753, offset: 0x20753, size: 0x8, addend: 0x0, symName: __ZNSt3__16__treeINS_12__value_typeI4vertNS_6vectorINS_4pairIS2_xEENS_9allocatorIS5_EEEEEENS_19__map_value_compareIS2_S9_NS_4lessIS2_EELb1EEENS6_IS9_EEED1Ev, symObjAddr: 0xC57C, symBinAddr: 0x10000F8F8, symSize: 0x64 }
  - { offsetInCU: 0x207BF, offset: 0x207BF, size: 0x8, addend: 0x0, symName: __ZNSt3__16vectorINS_4pairIiiEENS_9allocatorIS2_EEE16__destroy_vectorclB8ue170006Ev, symObjAddr: 0xBA1C, symBinAddr: 0x10000ED98, symSize: 0x240 }
  - { offsetInCU: 0x208EE, offset: 0x208EE, size: 0x8, addend: 0x0, symName: __ZNSt3__14pairINS_3mapI4vertxNS_4lessIS2_EENS_9allocatorINS0_IKS2_xEEEEEENS1_IS2_S2_S4_NS5_INS0_IS6_S2_EEEEEEED1Ev, symObjAddr: 0x6098, symBinAddr: 0x100009414, symSize: 0xC4 }
  - { offsetInCU: 0x209A1, offset: 0x209A1, size: 0x8, addend: 0x0, symName: __ZNSt3__13mapI4vertNS_6vectorINS_4pairIS1_xEENS_9allocatorIS4_EEEENS_4lessIS1_EENS5_INS3_IKS1_S7_EEEEED1B8ue170006Ev, symObjAddr: 0x615C, symBinAddr: 0x1000094D8, symSize: 0x58 }
  - { offsetInCU: 0x209E8, offset: 0x209E8, size: 0x8, addend: 0x0, symName: __ZNSt3__16vectorINS_4pairIiiEENS_9allocatorIS2_EEED1B8ue170006Ev, symObjAddr: 0x61B4, symBinAddr: 0x100009530, symSize: 0x1A0 }
  - { offsetInCU: 0x20A78, offset: 0x20A78, size: 0x8, addend: 0x0, symName: __ZNSt3__16__treeINS_12__value_typeI4vertNS_6vectorINS_4pairIS2_xEENS_9allocatorIS5_EEEEEENS_19__map_value_compareIS2_S9_NS_4lessIS2_EELb1EEENS6_IS9_EEE25__emplace_unique_key_argsIS2_JRKNS_21piecewise_construct_tENS_5tupleIJOS2_EEENSK_IJEEEEEENS4_INS_15__tree_iteratorIS9_PNS_11__tree_nodeIS9_PvEElEEbEERKT_DpOT0_, symObjAddr: 0xD630, symBinAddr: 0x1000109AC, symSize: 0x2D8 }
  - { offsetInCU: 0x20C6F, offset: 0x20C6F, size: 0x8, addend: 0x0, symName: __ZNKSt3__115__tree_iteratorINS_12__value_typeI4vertNS_6vectorINS_4pairIS2_xEENS_9allocatorIS5_EEEEEEPNS_11__tree_nodeIS9_PvEElEptB8ue170006Ev, symObjAddr: 0xD908, symBinAddr: 0x100010C84, symSize: 0xDC }
  - { offsetInCU: 0x20CAD, offset: 0x20CAD, size: 0x8, addend: 0x0, symName: __ZNSt3__16vectorINS_4pairI4vertxEENS_9allocatorIS3_EEE9__end_capB8ue170006Ev, symObjAddr: 0x11B50, symBinAddr: 0x100014ECC, symSize: 0x70 }
  - { offsetInCU: 0x20CDD, offset: 0x20CDD, size: 0x8, addend: 0x0, symName: __ZNSt3__16vectorINS_4pairI4vertxEENS_9allocatorIS3_EEE22__construct_one_at_endB8ue170006IJS2_iEEEvDpOT_, symObjAddr: 0x11BC0, symBinAddr: 0x100014F3C, symSize: 0x298 }
  - { offsetInCU: 0x20E4D, offset: 0x20E4D, size: 0x8, addend: 0x0, symName: __ZNSt3__16vectorINS_4pairI4vertxEENS_9allocatorIS3_EEE24__emplace_back_slow_pathIJS2_iEEEvDpOT_, symObjAddr: 0x11E58, symBinAddr: 0x1000151D4, symSize: 0x2D0 }
  - { offsetInCU: 0x21017, offset: 0x21017, size: 0x8, addend: 0x0, symName: __ZNSt3__16vectorINS_4pairI4vertxEENS_9allocatorIS3_EEE4backB8ue170006Ev, symObjAddr: 0x12128, symBinAddr: 0x1000154A4, symSize: 0xC0 }
  - { offsetInCU: 0x21453, offset: 0x21453, size: 0x8, addend: 0x0, symName: __ZNSt3__16__treeINS_12__value_typeI4vertxEENS_19__map_value_compareIS2_S3_NS_4lessIS2_EELb1EEENS_9allocatorIS3_EEEC2ERKS7_, symObjAddr: 0x163EC, symBinAddr: 0x100019768, symSize: 0x258 }
  - { offsetInCU: 0x2151E, offset: 0x2151E, size: 0x8, addend: 0x0, symName: __ZNSt3__16__treeINS_12__value_typeI4vertS2_EENS_19__map_value_compareIS2_S3_NS_4lessIS2_EELb1EEENS_9allocatorIS3_EEEC2ERKS7_, symObjAddr: 0x169B4, symBinAddr: 0x100019D30, symSize: 0x258 }
  - { offsetInCU: 0x215E9, offset: 0x215E9, size: 0x8, addend: 0x0, symName: __ZNSt3__16__treeINS_12__value_typeI4vertbEENS_19__map_value_compareIS2_S3_NS_4lessIS2_EELb1EEENS_9allocatorIS3_EEEC2ERKS7_, symObjAddr: 0x16F7C, symBinAddr: 0x10001A2F8, symSize: 0x258 }
  - { offsetInCU: 0x216B4, offset: 0x216B4, size: 0x8, addend: 0x0, symName: __ZNSt3__117__compressed_pairIPNS_4pairIx4vertEENS_9allocatorIS3_EEEC2B8ue170006IDnNS_18__default_init_tagEEEOT_OT0_, symObjAddr: 0x17544, symBinAddr: 0x10001A8C0, symSize: 0xB0 }
  - { offsetInCU: 0x21735, offset: 0x21735, size: 0x8, addend: 0x0, symName: __ZNSt3__13mapI4vertxNS_4lessIS1_EENS_9allocatorINS_4pairIKS1_xEEEEEixERS6_, symObjAddr: 0x14E0C, symBinAddr: 0x100018188, symSize: 0x264 }
  - { offsetInCU: 0x217C2, offset: 0x217C2, size: 0x8, addend: 0x0, symName: __ZNSt3__114priority_queueINS_4pairIx4vertEENS_6vectorIS3_NS_9allocatorIS3_EEEENS_7greaterIS3_EEE7emplaceIJxRS2_EEEvDpOT_, symObjAddr: 0x15070, symBinAddr: 0x1000183EC, symSize: 0x300 }
  - { offsetInCU: 0x21959, offset: 0x21959, size: 0x8, addend: 0x0, symName: __ZNKSt3__16vectorINS_4pairIx4vertEENS_9allocatorIS3_EEE5emptyB8ue170006Ev, symObjAddr: 0x1D7C0, symBinAddr: 0x100020B3C, symSize: 0x90 }
  - { offsetInCU: 0x21980, offset: 0x21980, size: 0x8, addend: 0x0, symName: __ZNSt3__14pairINS_3mapI4vertxNS_4lessIS2_EENS_9allocatorINS0_IKS2_xEEEEEENS1_IS2_S2_S4_NS5_INS0_IS6_S2_EEEEEEEC2B8ue170006IRS9_RSC_LPv0EEEOT_OT0_, symObjAddr: 0x23D0C, symBinAddr: 0x100027088, symSize: 0xB4 }
  - { offsetInCU: 0x21A5D, offset: 0x21A5D, size: 0x8, addend: 0x0, symName: __ZNSt3__16vectorINS_4pairIx4vertEENS_9allocatorIS3_EEE16__destroy_vectorclB8ue170006Ev, symObjAddr: 0x27FB4, symBinAddr: 0x10002B330, symSize: 0x240 }
  - { offsetInCU: 0x21B8C, offset: 0x21B8C, size: 0x8, addend: 0x0, symName: __ZNSt3__16__treeINS_12__value_typeI4vertbEENS_19__map_value_compareIS2_S3_NS_4lessIS2_EELb1EEENS_9allocatorIS3_EEED1Ev, symObjAddr: 0x281F4, symBinAddr: 0x10002B570, symSize: 0x64 }
  - { offsetInCU: 0x21BF8, offset: 0x21BF8, size: 0x8, addend: 0x0, symName: __ZNKSt3__114priority_queueINS_4pairIx4vertEENS_6vectorIS3_NS_9allocatorIS3_EEEENS_7greaterIS3_EEE3topB8ue170006Ev, symObjAddr: 0x15370, symBinAddr: 0x1000186EC, symSize: 0xB8 }
  - { offsetInCU: 0x21C36, offset: 0x21C36, size: 0x8, addend: 0x0, symName: __ZNSt3__114priority_queueINS_4pairIx4vertEENS_6vectorIS3_NS_9allocatorIS3_EEEENS_7greaterIS3_EEE3popEv, symObjAddr: 0x15428, symBinAddr: 0x1000187A4, symSize: 0x380 }
  - { offsetInCU: 0x21D70, offset: 0x21D70, size: 0x8, addend: 0x0, symName: __ZNSt3__13mapI4vertbNS_4lessIS1_EENS_9allocatorINS_4pairIKS1_bEEEEEixERS6_, symObjAddr: 0x157A8, symBinAddr: 0x100018B24, symSize: 0x264 }
  - { offsetInCU: 0x21DF7, offset: 0x21DF7, size: 0x8, addend: 0x0, symName: __ZNSt3__13mapI4vertNS_6vectorINS_4pairIS1_xEENS_9allocatorIS4_EEEENS_4lessIS1_EENS5_INS3_IKS1_S7_EEEEEixERSA_, symObjAddr: 0x15A0C, symBinAddr: 0x100018D88, symSize: 0x264 }
  - { offsetInCU: 0x21E7E, offset: 0x21E7E, size: 0x8, addend: 0x0, symName: __ZNSt3__13mapI4vertS1_NS_4lessIS1_EENS_9allocatorINS_4pairIKS1_S1_EEEEEixERS6_, symObjAddr: 0x15C70, symBinAddr: 0x100018FEC, symSize: 0x264 }
  - { offsetInCU: 0x21F0B, offset: 0x21F0B, size: 0x8, addend: 0x0, symName: __ZNSt3__114priority_queueINS_4pairIx4vertEENS_6vectorIS3_NS_9allocatorIS3_EEEENS_7greaterIS3_EEE7emplaceIJRxRS2_EEEvDpOT_, symObjAddr: 0x15ED4, symBinAddr: 0x100019250, symSize: 0x300 }
  - { offsetInCU: 0x220A2, offset: 0x220A2, size: 0x8, addend: 0x0, symName: __ZNSt3__114priority_queueINS_4pairIx4vertEENS_6vectorIS3_NS_9allocatorIS3_EEEENS_7greaterIS3_EEED1Ev, symObjAddr: 0x161D4, symBinAddr: 0x100019550, symSize: 0x1C0 }
  - { offsetInCU: 0x22132, offset: 0x22132, size: 0x8, addend: 0x0, symName: __ZNSt3__13mapI4vertbNS_4lessIS1_EENS_9allocatorINS_4pairIKS1_bEEEEED1B8ue170006Ev, symObjAddr: 0x16394, symBinAddr: 0x100019710, symSize: 0x58 }
  - { offsetInCU: 0x22179, offset: 0x22179, size: 0x8, addend: 0x0, symName: __ZNSt3__13mapI4vertS1_NS_4lessIS1_EENS_9allocatorINS_4pairIKS1_S1_EEEEED1B8ue170006Ev, symObjAddr: 0x6888, symBinAddr: 0x100009C04, symSize: 0x58 }
  - { offsetInCU: 0x221C0, offset: 0x221C0, size: 0x8, addend: 0x0, symName: __ZNSt3__13mapI4vertxNS_4lessIS1_EENS_9allocatorINS_4pairIKS1_xEEEEED1B8ue170006Ev, symObjAddr: 0x68E0, symBinAddr: 0x100009C5C, symSize: 0x58 }
  - { offsetInCU: 0x2221D, offset: 0x2221D, size: 0x8, addend: 0x0, symName: __ZNSt3__16__treeINS_12__value_typeI4vertxEENS_19__map_value_compareIS2_S3_NS_4lessIS2_EELb1EEENS_9allocatorIS3_EEE25__emplace_unique_key_argsIS2_JRKNS_21piecewise_construct_tENS_5tupleIJOS2_EEENSF_IJEEEEEENS_4pairINS_15__tree_iteratorIS3_PNS_11__tree_nodeIS3_PvEElEEbEERKT_DpOT0_, symObjAddr: 0x28E9C, symBinAddr: 0x10002C218, symSize: 0x2D8 }
  - { offsetInCU: 0x22414, offset: 0x22414, size: 0x8, addend: 0x0, symName: __ZNKSt3__115__tree_iteratorINS_12__value_typeI4vertxEEPNS_11__tree_nodeIS3_PvEElEptB8ue170006Ev, symObjAddr: 0x17948, symBinAddr: 0x10001ACC4, symSize: 0xDC }
  - { offsetInCU: 0x22452, offset: 0x22452, size: 0x8, addend: 0x0, symName: _main, symObjAddr: 0x6354, symBinAddr: 0x1000096D0, symSize: 0x394 }
  - { offsetInCU: 0x224AF, offset: 0x224AF, size: 0x8, addend: 0x0, symName: __ZNSt3__19basic_iosIcNS_11char_traitsIcEEE3tieB8ue170006EPNS_13basic_ostreamIcS2_EE, symObjAddr: 0x66E8, symBinAddr: 0x100009A64, symSize: 0x1A0 }
  - { offsetInCU: 0x22515, offset: 0x22515, size: 0x8, addend: 0x0, symName: __ZNKSt3__16__treeINS_12__value_typeI4vertS2_EENS_19__map_value_compareIS2_S3_NS_4lessIS2_EELb1EEENS_9allocatorIS3_EEE6__rootB8ue170006Ev, symObjAddr: 0x6B6C, symBinAddr: 0x100009EE8, symSize: 0xE4 }
  - { offsetInCU: 0x22549, offset: 0x22549, size: 0x8, addend: 0x0, symName: __ZNSt3__16__treeINS_12__value_typeI4vertS2_EENS_19__map_value_compareIS2_S3_NS_4lessIS2_EELb1EEENS_9allocatorIS3_EEE7destroyEPNS_11__tree_nodeIS3_PvEE, symObjAddr: 0x699C, symBinAddr: 0x100009D18, symSize: 0x1D0 }
  - { offsetInCU: 0x226E9, offset: 0x226E9, size: 0x8, addend: 0x0, symName: __ZNSt3__16__treeINS_12__value_typeI4vertS2_EENS_19__map_value_compareIS2_S3_NS_4lessIS2_EELb1EEENS_9allocatorIS3_EEE12__node_allocB8ue170006Ev, symObjAddr: 0x6C50, symBinAddr: 0x100009FCC, symSize: 0x70 }
  - { offsetInCU: 0x2271E, offset: 0x2271E, size: 0x8, addend: 0x0, symName: __ZNKSt3__16__treeINS_12__value_typeI4vertS2_EENS_19__map_value_compareIS2_S3_NS_4lessIS2_EELb1EEENS_9allocatorIS3_EEE10__end_nodeB8ue170006Ev, symObjAddr: 0x6DA0, symBinAddr: 0x10000A11C, symSize: 0x70 }
  - { offsetInCU: 0x22753, offset: 0x22753, size: 0x8, addend: 0x0, symName: __ZNSt3__117__compressed_pairINS_15__tree_end_nodeIPNS_16__tree_node_baseIPvEEEENS_9allocatorINS_11__tree_nodeINS_12__value_typeI4vertSA_EES3_EEEEE6secondB8ue170006Ev, symObjAddr: 0x6CCC, symBinAddr: 0x10000A048, symSize: 0xD4 }
  - { offsetInCU: 0x227AC, offset: 0x227AC, size: 0x8, addend: 0x0, symName: __ZNKSt3__117__compressed_pairINS_15__tree_end_nodeIPNS_16__tree_node_baseIPvEEEENS_9allocatorINS_11__tree_nodeINS_12__value_typeI4vertSA_EES3_EEEEE5firstB8ue170006Ev, symObjAddr: 0x6E10, symBinAddr: 0x10000A18C, symSize: 0xCC }
  - { offsetInCU: 0x22828, offset: 0x22828, size: 0x8, addend: 0x0, symName: __ZNKSt3__16__treeINS_12__value_typeI4vertxEENS_19__map_value_compareIS2_S3_NS_4lessIS2_EELb1EEENS_9allocatorIS3_EEE6__rootB8ue170006Ev, symObjAddr: 0x7110, symBinAddr: 0x10000A48C, symSize: 0xE4 }
  - { offsetInCU: 0x2285C, offset: 0x2285C, size: 0x8, addend: 0x0, symName: __ZNSt3__16__treeINS_12__value_typeI4vertxEENS_19__map_value_compareIS2_S3_NS_4lessIS2_EELb1EEENS_9allocatorIS3_EEE7destroyEPNS_11__tree_nodeIS3_PvEE, symObjAddr: 0x6F40, symBinAddr: 0x10000A2BC, symSize: 0x1D0 }
  - { offsetInCU: 0x229F7, offset: 0x229F7, size: 0x8, addend: 0x0, symName: __ZNSt3__16__treeINS_12__value_typeI4vertxEENS_19__map_value_compareIS2_S3_NS_4lessIS2_EELb1EEENS_9allocatorIS3_EEE12__node_allocB8ue170006Ev, symObjAddr: 0x71F4, symBinAddr: 0x10000A570, symSize: 0x70 }
  - { offsetInCU: 0x22A2C, offset: 0x22A2C, size: 0x8, addend: 0x0, symName: __ZNKSt3__16__treeINS_12__value_typeI4vertxEENS_19__map_value_compareIS2_S3_NS_4lessIS2_EELb1EEENS_9allocatorIS3_EEE10__end_nodeB8ue170006Ev, symObjAddr: 0x7338, symBinAddr: 0x10000A6B4, symSize: 0x70 }
  - { offsetInCU: 0x22A61, offset: 0x22A61, size: 0x8, addend: 0x0, symName: __ZNSt3__117__compressed_pairINS_15__tree_end_nodeIPNS_16__tree_node_baseIPvEEEENS_9allocatorINS_11__tree_nodeINS_12__value_typeI4vertxEES3_EEEEE6secondB8ue170006Ev, symObjAddr: 0x7264, symBinAddr: 0x10000A5E0, symSize: 0xD4 }
  - { offsetInCU: 0x22ABA, offset: 0x22ABA, size: 0x8, addend: 0x0, symName: __ZNKSt3__117__compressed_pairINS_15__tree_end_nodeIPNS_16__tree_node_baseIPvEEEENS_9allocatorINS_11__tree_nodeINS_12__value_typeI4vertxEES3_EEEEE5firstB8ue170006Ev, symObjAddr: 0x73A8, symBinAddr: 0x10000A724, symSize: 0xCC }
  - { offsetInCU: 0x22B80, offset: 0x22B80, size: 0x8, addend: 0x0, symName: __ZNSt3__119ostreambuf_iteratorIcNS_11char_traitsIcEEEC2B8ue170006ERNS_13basic_ostreamIcS2_EE, symObjAddr: 0x906C, symBinAddr: 0x10000C3E8, symSize: 0x298 }
  - { offsetInCU: 0x22BDE, offset: 0x22BDE, size: 0x8, addend: 0x0, symName: __ZNKSt3__19basic_iosIcNS_11char_traitsIcEEE4fillB8ue170006Ev, symObjAddr: 0x8584, symBinAddr: 0x10000B900, symSize: 0x248 }
  - { offsetInCU: 0x22C21, offset: 0x22C21, size: 0x8, addend: 0x0, symName: __ZNSt3__19basic_iosIcNS_11char_traitsIcEEE8setstateB8ue170006Ej, symObjAddr: 0x87CC, symBinAddr: 0x10000BB48, symSize: 0xFC }
  - { offsetInCU: 0x22D2A, offset: 0x22D2A, size: 0x8, addend: 0x0, symName: __ZNSt3__117__compressed_pairINS_12basic_stringIcNS_11char_traitsIcEENS_9allocatorIcEEE5__repES5_EC1B8ue170006INS_18__default_init_tagESA_EEOT_OT0_, symObjAddr: 0x8A68, symBinAddr: 0x10000BDE4, symSize: 0x98 }
  - { offsetInCU: 0x22DC9, offset: 0x22DC9, size: 0x8, addend: 0x0, symName: __ZNSt3__112basic_stringIcNS_11char_traitsIcEENS_9allocatorIcEEE13__get_pointerB8ue170006Ev, symObjAddr: 0x8E20, symBinAddr: 0x10000C19C, symSize: 0x5C }
  - { offsetInCU: 0x22E2C, offset: 0x22E2C, size: 0x8, addend: 0x0, symName: __ZNSt3__18ios_base5widthB8ue170006El, symObjAddr: 0x88C8, symBinAddr: 0x10000BC44, symSize: 0x1A0 }
  - { offsetInCU: 0x22E76, offset: 0x22E76, size: 0x8, addend: 0x0, symName: __ZNKSt3__19basic_iosIcNS_11char_traitsIcEEE5widenB8ue170006Ec, symObjAddr: 0x93E4, symBinAddr: 0x10000C760, symSize: 0x340 }
  - { offsetInCU: 0x22EFA, offset: 0x22EFA, size: 0x8, addend: 0x0, symName: __ZNSt3__18ios_base8setstateB8ue170006Ej, symObjAddr: 0x9824, symBinAddr: 0x10000CBA0, symSize: 0x19C }
  - { offsetInCU: 0x22F97, offset: 0x22F97, size: 0x8, addend: 0x0, symName: __ZNSt3__122__compressed_pair_elemINS_9allocatorIcEELi1ELb1EEC2B8ue170006ENS_18__default_init_tagE, symObjAddr: 0x8B00, symBinAddr: 0x10000BE7C, symSize: 0x7C }
  - { offsetInCU: 0x23046, offset: 0x23046, size: 0x8, addend: 0x0, symName: __ZNSt3__112basic_stringIcNS_11char_traitsIcEENS_9allocatorIcEEE19__get_short_pointerB8ue170006Ev, symObjAddr: 0x8B7C, symBinAddr: 0x10000BEF8, symSize: 0x58 }
  - { offsetInCU: 0x2307B, offset: 0x2307B, size: 0x8, addend: 0x0, symName: __ZNSt3__117__compressed_pairINS_12basic_stringIcNS_11char_traitsIcEENS_9allocatorIcEEE5__repES5_E5firstB8ue170006Ev, symObjAddr: 0x8CF8, symBinAddr: 0x10000C074, symSize: 0xCC }
  - { offsetInCU: 0x230BF, offset: 0x230BF, size: 0x8, addend: 0x0, symName: __ZNSt12length_errorC1B8ue170006EPKc, symObjAddr: 0x8C4C, symBinAddr: 0x10000BFC8, symSize: 0xAC }
  - { offsetInCU: 0x2315A, offset: 0x2315A, size: 0x8, addend: 0x0, symName: __ZNKSt3__112basic_stringIcNS_11char_traitsIcEENS_9allocatorIcEEE9__is_longB8ue170006Ev, symObjAddr: 0x8E7C, symBinAddr: 0x10000C1F8, symSize: 0x9C }
  - { offsetInCU: 0x2318E, offset: 0x2318E, size: 0x8, addend: 0x0, symName: __ZNSt3__112basic_stringIcNS_11char_traitsIcEENS_9allocatorIcEEE18__get_long_pointerB8ue170006Ev, symObjAddr: 0x8F18, symBinAddr: 0x10000C294, symSize: 0x88 }
  - { offsetInCU: 0x231C2, offset: 0x231C2, size: 0x8, addend: 0x0, symName: __ZNKSt3__117__compressed_pairINS_12basic_stringIcNS_11char_traitsIcEENS_9allocatorIcEEE5__repES5_E5firstB8ue170006Ev, symObjAddr: 0x8FA0, symBinAddr: 0x10000C31C, symSize: 0xCC }
  - { offsetInCU: 0x23240, offset: 0x23240, size: 0x8, addend: 0x0, symName: __ZNKSt3__18ios_base5rdbufB8ue170006Ev, symObjAddr: 0x9304, symBinAddr: 0x10000C680, symSize: 0xE0 }
  - { offsetInCU: 0x232CD, offset: 0x232CD, size: 0x8, addend: 0x0, symName: __ZNKSt3__112basic_stringIcNS_11char_traitsIcEENS_9allocatorIcEEE15__get_long_sizeB8ue170006Ev, symObjAddr: 0x9B58, symBinAddr: 0x10000CED4, symSize: 0x8C }
  - { offsetInCU: 0x23301, offset: 0x23301, size: 0x8, addend: 0x0, symName: __ZNKSt3__112basic_stringIcNS_11char_traitsIcEENS_9allocatorIcEEE16__get_short_sizeB8ue170006Ev, symObjAddr: 0x9BE4, symBinAddr: 0x10000CF60, symSize: 0x9C }
  - { offsetInCU: 0x23335, offset: 0x23335, size: 0x8, addend: 0x0, symName: __ZNKSt3__112basic_stringIcNS_11char_traitsIcEENS_9allocatorIcEEE18__get_long_pointerB8ue170006Ev, symObjAddr: 0x9A78, symBinAddr: 0x10000CDF4, symSize: 0x88 }
  - { offsetInCU: 0x23369, offset: 0x23369, size: 0x8, addend: 0x0, symName: __ZNKSt3__112basic_stringIcNS_11char_traitsIcEENS_9allocatorIcEEE19__get_short_pointerB8ue170006Ev, symObjAddr: 0x9B00, symBinAddr: 0x10000CE7C, symSize: 0x58 }
  - { offsetInCU: 0x23460, offset: 0x23460, size: 0x8, addend: 0x0, symName: __ZNSt3__117__compressed_pairIPNS_4pairIiiEENS_9allocatorIS2_EEEC2B8ue170006IDnNS_18__default_init_tagEEEOT_OT0_, symObjAddr: 0xA680, symBinAddr: 0x10000D9FC, symSize: 0xB0 }
  - { offsetInCU: 0x234E1, offset: 0x234E1, size: 0x8, addend: 0x0, symName: __ZNSt3__16vectorINS_4pairIiiEENS_9allocatorIS2_EEE11__vallocateB8ue170006Em, symObjAddr: 0xA120, symBinAddr: 0x10000D49C, symSize: 0x1A0 }
  - { offsetInCU: 0x235CD, offset: 0x235CD, size: 0x8, addend: 0x0, symName: __ZNSt3__16vectorINS_4pairIiiEENS_9allocatorIS2_EEE18__construct_at_endEm, symObjAddr: 0xA2C0, symBinAddr: 0x10000D63C, symSize: 0x378 }
  - { offsetInCU: 0x2373B, offset: 0x2373B, size: 0x8, addend: 0x0, symName: __ZNSt3__128__exception_guard_exceptionsINS_6vectorINS_4pairIiiEENS_9allocatorIS3_EEE16__destroy_vectorEED2B8ue170006Ev, symObjAddr: 0xB938, symBinAddr: 0x10000ECB4, symSize: 0xE4 }
  - { offsetInCU: 0x2377A, offset: 0x2377A, size: 0x8, addend: 0x0, symName: __ZNSt3__128__exception_guard_exceptionsINS_6vectorINS_4pairIiiEENS_9allocatorIS3_EEE16__destroy_vectorEED1B8ue170006Ev, symObjAddr: 0xA638, symBinAddr: 0x10000D9B4, symSize: 0x48 }
  - { offsetInCU: 0x237DE, offset: 0x237DE, size: 0x8, addend: 0x0, symName: __ZNKSt3__16vectorINS_4pairIiiEENS_9allocatorIS2_EEE7__allocB8ue170006Ev, symObjAddr: 0xAB24, symBinAddr: 0x10000DEA0, symSize: 0x70 }
  - { offsetInCU: 0x23813, offset: 0x23813, size: 0x8, addend: 0x0, symName: __ZNSt3__16vectorINS_4pairIiiEENS_9allocatorIS2_EEE7__allocB8ue170006Ev, symObjAddr: 0xA834, symBinAddr: 0x10000DBB0, symSize: 0x70 }
  - { offsetInCU: 0x23843, offset: 0x23843, size: 0x8, addend: 0x0, symName: __ZNSt3__117__compressed_pairIPNS_4pairIiiEENS_9allocatorIS2_EEE5firstB8ue170006Ev, symObjAddr: 0xAD3C, symBinAddr: 0x10000E0B8, symSize: 0xCC }
  - { offsetInCU: 0x23887, offset: 0x23887, size: 0x8, addend: 0x0, symName: __ZNKSt3__16vectorINS_4pairIiiEENS_9allocatorIS2_EEE14__annotate_newB8ue170006Em, symObjAddr: 0xA8A4, symBinAddr: 0x10000DC20, symSize: 0x280 }
  - { offsetInCU: 0x2397D, offset: 0x2397D, size: 0x8, addend: 0x0, symName: __ZNKSt3__16vectorINS_4pairIiiEENS_9allocatorIS2_EEE20__throw_length_errorB8ue170006Ev, symObjAddr: 0xA7AC, symBinAddr: 0x10000DB28, symSize: 0x44 }
  - { offsetInCU: 0x23AED, offset: 0x23AED, size: 0x8, addend: 0x0, symName: __ZNSt3__16vectorINS_4pairIiiEENS_9allocatorIS2_EEE21_ConstructTransactionC2B8ue170006ERS5_m, symObjAddr: 0xAFD0, symBinAddr: 0x10000E34C, symSize: 0x194 }
  - { offsetInCU: 0x23B45, offset: 0x23B45, size: 0x8, addend: 0x0, symName: __ZNSt3__117__compressed_pairIPNS_4pairIiiEENS_9allocatorIS2_EEE6secondB8ue170006Ev, symObjAddr: 0xAC68, symBinAddr: 0x10000DFE4, symSize: 0xD4 }
  - { offsetInCU: 0x23B88, offset: 0x23B88, size: 0x8, addend: 0x0, symName: __ZNSt3__16vectorINS_4pairIiiEENS_9allocatorIS2_EEE21_ConstructTransactionD2B8ue170006Ev, symObjAddr: 0xB4C8, symBinAddr: 0x10000E844, symSize: 0x214 }
  - { offsetInCU: 0x23BEF, offset: 0x23BEF, size: 0x8, addend: 0x0, symName: __ZNSt3__122__compressed_pair_elemINS_9allocatorINS_4pairIiiEEEELi1ELb1EEC2B8ue170006ENS_18__default_init_tagE, symObjAddr: 0xA730, symBinAddr: 0x10000DAAC, symSize: 0x7C }
  - { offsetInCU: 0x23D15, offset: 0x23D15, size: 0x8, addend: 0x0, symName: __ZNKSt3__16vectorINS_4pairIiiEENS_9allocatorIS2_EEE8capacityB8ue170006Ev, symObjAddr: 0xAE08, symBinAddr: 0x10000E184, symSize: 0x8C }
  - { offsetInCU: 0x23D50, offset: 0x23D50, size: 0x8, addend: 0x0, symName: __ZNKSt3__117__compressed_pairIPNS_4pairIiiEENS_9allocatorIS2_EEE6secondB8ue170006Ev, symObjAddr: 0xAB94, symBinAddr: 0x10000DF10, symSize: 0xD4 }
  - { offsetInCU: 0x23DDB, offset: 0x23DDB, size: 0x8, addend: 0x0, symName: __ZNKSt3__16vectorINS_4pairIiiEENS_9allocatorIS2_EEE9__end_capB8ue170006Ev, symObjAddr: 0xAE94, symBinAddr: 0x10000E210, symSize: 0x70 }
  - { offsetInCU: 0x23E10, offset: 0x23E10, size: 0x8, addend: 0x0, symName: __ZNKSt3__117__compressed_pairIPNS_4pairIiiEENS_9allocatorIS2_EEE5firstB8ue170006Ev, symObjAddr: 0xAF04, symBinAddr: 0x10000E280, symSize: 0xCC }
  - { offsetInCU: 0x23E70, offset: 0x23E70, size: 0x8, addend: 0x0, symName: __ZNKSt3__16vectorINS_4pairIiiEENS_9allocatorIS2_EEE19__annotate_increaseB8ue170006Em, symObjAddr: 0xB164, symBinAddr: 0x10000E4E0, symSize: 0x2D8 }
  - { offsetInCU: 0x23F7A, offset: 0x23F7A, size: 0x8, addend: 0x0, symName: __ZNKSt3__16vectorINS_4pairIiiEENS_9allocatorIS2_EEE4sizeB8ue170006Ev, symObjAddr: 0xB43C, symBinAddr: 0x10000E7B8, symSize: 0x8C }
  - { offsetInCU: 0x23FA1, offset: 0x23FA1, size: 0x8, addend: 0x0, symName: __ZNKSt3__16vectorINS_4pairIiiEENS_9allocatorIS2_EEE17__annotate_shrinkB8ue170006Em, symObjAddr: 0xB6DC, symBinAddr: 0x10000EA58, symSize: 0x25C }
  - { offsetInCU: 0x24105, offset: 0x24105, size: 0x8, addend: 0x0, symName: __ZNSt3__16vectorINS_4pairIiiEENS_9allocatorIS2_EEE22__base_destruct_at_endB8ue170006EPS2_, symObjAddr: 0xBECC, symBinAddr: 0x10000F248, symSize: 0xE8 }
  - { offsetInCU: 0x24161, offset: 0x24161, size: 0x8, addend: 0x0, symName: __ZNKSt3__16vectorINS_4pairIiiEENS_9allocatorIS2_EEE17__annotate_deleteB8ue170006Ev, symObjAddr: 0xBC5C, symBinAddr: 0x10000EFD8, symSize: 0x270 }
  - { offsetInCU: 0x242D8, offset: 0x242D8, size: 0x8, addend: 0x0, symName: __ZNSt3__117__compressed_pairINS_15__tree_end_nodeIPNS_16__tree_node_baseIPvEEEENS_9allocatorINS_11__tree_nodeINS_12__value_typeI4vertNS_6vectorINS_4pairISA_xEENS7_ISD_EEEEEES3_EEEEEC2B8ue170006ILb1EvEEv, symObjAddr: 0xC27C, symBinAddr: 0x10000F5F8, symSize: 0xD0 }
  - { offsetInCU: 0x2435F, offset: 0x2435F, size: 0x8, addend: 0x0, symName: __ZNSt3__117__compressed_pairImNS_19__map_value_compareI4vertNS_12__value_typeIS2_NS_6vectorINS_4pairIS2_xEENS_9allocatorIS6_EEEEEENS_4lessIS2_EELb1EEEEC2B8ue170006IiRKSD_EEOT_OT0_, symObjAddr: 0xC3C8, symBinAddr: 0x10000F744, symSize: 0xE8 }
  - { offsetInCU: 0x243DB, offset: 0x243DB, size: 0x8, addend: 0x0, symName: __ZNSt3__16__treeINS_12__value_typeI4vertNS_6vectorINS_4pairIS2_xEENS_9allocatorIS5_EEEEEENS_19__map_value_compareIS2_S9_NS_4lessIS2_EELb1EEENS6_IS9_EEE10__end_nodeB8ue170006Ev, symObjAddr: 0xC20C, symBinAddr: 0x10000F588, symSize: 0x70 }
  - { offsetInCU: 0x24410, offset: 0x24410, size: 0x8, addend: 0x0, symName: __ZNSt3__117__compressed_pairINS_15__tree_end_nodeIPNS_16__tree_node_baseIPvEEEENS_9allocatorINS_11__tree_nodeINS_12__value_typeI4vertNS_6vectorINS_4pairISA_xEENS7_ISD_EEEEEES3_EEEEE5firstB8ue170006Ev, symObjAddr: 0xC4B0, symBinAddr: 0x10000F82C, symSize: 0xCC }
  - { offsetInCU: 0x244AA, offset: 0x244AA, size: 0x8, addend: 0x0, symName: __ZNSt3__122__compressed_pair_elemINS_9allocatorINS_11__tree_nodeINS_12__value_typeI4vertNS_6vectorINS_4pairIS4_xEENS1_IS7_EEEEEEPvEEEELi1ELb1EEC2B8ue170006ENS_16__value_init_tagE, symObjAddr: 0xC34C, symBinAddr: 0x10000F6C8, symSize: 0x7C }
  - { offsetInCU: 0x245BA, offset: 0x245BA, size: 0x8, addend: 0x0, symName: __ZNKSt3__16__treeINS_12__value_typeI4vertNS_6vectorINS_4pairIS2_xEENS_9allocatorIS5_EEEEEENS_19__map_value_compareIS2_S9_NS_4lessIS2_EELb1EEENS6_IS9_EEE6__rootB8ue170006Ev, symObjAddr: 0xC7CC, symBinAddr: 0x10000FB48, symSize: 0xE4 }
  - { offsetInCU: 0x245EE, offset: 0x245EE, size: 0x8, addend: 0x0, symName: __ZNSt3__16__treeINS_12__value_typeI4vertNS_6vectorINS_4pairIS2_xEENS_9allocatorIS5_EEEEEENS_19__map_value_compareIS2_S9_NS_4lessIS2_EELb1EEENS6_IS9_EEE7destroyEPNS_11__tree_nodeIS9_PvEE, symObjAddr: 0xC5E0, symBinAddr: 0x10000F95C, symSize: 0x1EC }
  - { offsetInCU: 0x247D4, offset: 0x247D4, size: 0x8, addend: 0x0, symName: __ZNSt3__16__treeINS_12__value_typeI4vertNS_6vectorINS_4pairIS2_xEENS_9allocatorIS5_EEEEEENS_19__map_value_compareIS2_S9_NS_4lessIS2_EELb1EEENS6_IS9_EEE12__node_allocB8ue170006Ev, symObjAddr: 0xC8B0, symBinAddr: 0x10000FC2C, symSize: 0x70 }
  - { offsetInCU: 0x24809, offset: 0x24809, size: 0x8, addend: 0x0, symName: __ZNSt3__14pairIK4vertNS_6vectorINS0_IS1_xEENS_9allocatorIS4_EEEEED1Ev, symObjAddr: 0xC9F4, symBinAddr: 0x10000FD70, symSize: 0x1D0 }
  - { offsetInCU: 0x248A2, offset: 0x248A2, size: 0x8, addend: 0x0, symName: __ZNKSt3__16__treeINS_12__value_typeI4vertNS_6vectorINS_4pairIS2_xEENS_9allocatorIS5_EEEEEENS_19__map_value_compareIS2_S9_NS_4lessIS2_EELb1EEENS6_IS9_EEE10__end_nodeB8ue170006Ev, symObjAddr: 0xD4F4, symBinAddr: 0x100010870, symSize: 0x70 }
  - { offsetInCU: 0x248D7, offset: 0x248D7, size: 0x8, addend: 0x0, symName: __ZNSt3__117__compressed_pairINS_15__tree_end_nodeIPNS_16__tree_node_baseIPvEEEENS_9allocatorINS_11__tree_nodeINS_12__value_typeI4vertNS_6vectorINS_4pairISA_xEENS7_ISD_EEEEEES3_EEEEE6secondB8ue170006Ev, symObjAddr: 0xC920, symBinAddr: 0x10000FC9C, symSize: 0xD4 }
  - { offsetInCU: 0x249D2, offset: 0x249D2, size: 0x8, addend: 0x0, symName: __ZNSt3__16vectorINS_4pairI4vertxEENS_9allocatorIS3_EEE16__destroy_vectorclB8ue170006Ev, symObjAddr: 0xCBC4, symBinAddr: 0x10000FF40, symSize: 0x240 }
  - { offsetInCU: 0x24B75, offset: 0x24B75, size: 0x8, addend: 0x0, symName: __ZNSt3__16vectorINS_4pairI4vertxEENS_9allocatorIS3_EEE22__base_destruct_at_endB8ue170006EPS3_, symObjAddr: 0xD170, symBinAddr: 0x1000104EC, symSize: 0xE8 }
  - { offsetInCU: 0x24BD1, offset: 0x24BD1, size: 0x8, addend: 0x0, symName: __ZNKSt3__16vectorINS_4pairI4vertxEENS_9allocatorIS3_EEE17__annotate_deleteB8ue170006Ev, symObjAddr: 0xCE04, symBinAddr: 0x100010180, symSize: 0x270 }
  - { offsetInCU: 0x24CCB, offset: 0x24CCB, size: 0x8, addend: 0x0, symName: __ZNSt3__16vectorINS_4pairI4vertxEENS_9allocatorIS3_EEE7__allocB8ue170006Ev, symObjAddr: 0xD074, symBinAddr: 0x1000103F0, symSize: 0x70 }
  - { offsetInCU: 0x24CFB, offset: 0x24CFB, size: 0x8, addend: 0x0, symName: __ZNKSt3__16vectorINS_4pairI4vertxEENS_9allocatorIS3_EEE8capacityB8ue170006Ev, symObjAddr: 0xD0E4, symBinAddr: 0x100010460, symSize: 0x8C }
  - { offsetInCU: 0x24D98, offset: 0x24D98, size: 0x8, addend: 0x0, symName: __ZNKSt3__16vectorINS_4pairI4vertxEENS_9allocatorIS3_EEE4sizeB8ue170006Ev, symObjAddr: 0xD258, symBinAddr: 0x1000105D4, symSize: 0x8C }
  - { offsetInCU: 0x24DBF, offset: 0x24DBF, size: 0x8, addend: 0x0, symName: __ZNSt3__117__compressed_pairIPNS_4pairI4vertxEENS_9allocatorIS3_EEE6secondB8ue170006Ev, symObjAddr: 0xD2E4, symBinAddr: 0x100010660, symSize: 0xD4 }
  - { offsetInCU: 0x24E02, offset: 0x24E02, size: 0x8, addend: 0x0, symName: __ZNKSt3__16vectorINS_4pairI4vertxEENS_9allocatorIS3_EEE9__end_capB8ue170006Ev, symObjAddr: 0xD3B8, symBinAddr: 0x100010734, symSize: 0x70 }
  - { offsetInCU: 0x24E4D, offset: 0x24E4D, size: 0x8, addend: 0x0, symName: __ZNKSt3__117__compressed_pairIPNS_4pairI4vertxEENS_9allocatorIS3_EEE5firstB8ue170006Ev, symObjAddr: 0xD428, symBinAddr: 0x1000107A4, symSize: 0xCC }
  - { offsetInCU: 0x24EAD, offset: 0x24EAD, size: 0x8, addend: 0x0, symName: __ZNKSt3__117__compressed_pairINS_15__tree_end_nodeIPNS_16__tree_node_baseIPvEEEENS_9allocatorINS_11__tree_nodeINS_12__value_typeI4vertNS_6vectorINS_4pairISA_xEENS7_ISD_EEEEEES3_EEEEE5firstB8ue170006Ev, symObjAddr: 0xD564, symBinAddr: 0x1000108E0, symSize: 0xCC }
  - { offsetInCU: 0x24F99, offset: 0x24F99, size: 0x8, addend: 0x0, symName: __ZNSt3__16__treeINS_12__value_typeI4vertNS_6vectorINS_4pairIS2_xEENS_9allocatorIS5_EEEEEENS_19__map_value_compareIS2_S9_NS_4lessIS2_EELb1EEENS6_IS9_EEE12__find_equalIS2_EERPNS_16__tree_node_baseIPvEERPNS_15__tree_end_nodeISK_EERKT_, symObjAddr: 0xD9E4, symBinAddr: 0x100010D60, symSize: 0x57C }
  - { offsetInCU: 0x250C8, offset: 0x250C8, size: 0x8, addend: 0x0, symName: __ZNSt3__16__treeINS_12__value_typeI4vertNS_6vectorINS_4pairIS2_xEENS_9allocatorIS5_EEEEEENS_19__map_value_compareIS2_S9_NS_4lessIS2_EELb1EEENS6_IS9_EEE16__construct_nodeIJRKNS_21piecewise_construct_tENS_5tupleIJOS2_EEENSK_IJEEEEEENS_10unique_ptrINS_11__tree_nodeIS9_PvEENS_22__tree_node_destructorINS6_ISR_EEEEEEDpOT_, symObjAddr: 0xDF60, symBinAddr: 0x1000112DC, symSize: 0x36C }
  - { offsetInCU: 0x252DA, offset: 0x252DA, size: 0x8, addend: 0x0, symName: __ZNKSt3__117__compressed_pairIPNS_11__tree_nodeINS_12__value_typeI4vertNS_6vectorINS_4pairIS3_xEENS_9allocatorIS6_EEEEEEPvEENS_22__tree_node_destructorINS7_ISC_EEEEE5firstB8ue170006Ev, symObjAddr: 0xF548, symBinAddr: 0x1000128C4, symSize: 0xCC }
  - { offsetInCU: 0x2531E, offset: 0x2531E, size: 0x8, addend: 0x0, symName: __ZNSt3__16__treeINS_12__value_typeI4vertNS_6vectorINS_4pairIS2_xEENS_9allocatorIS5_EEEEEENS_19__map_value_compareIS2_S9_NS_4lessIS2_EELb1EEENS6_IS9_EEE16__insert_node_atEPNS_15__tree_end_nodeIPNS_16__tree_node_baseIPvEEEERSK_SK_, symObjAddr: 0xE2CC, symBinAddr: 0x100011648, symSize: 0x4BC }
  - { offsetInCU: 0x25403, offset: 0x25403, size: 0x8, addend: 0x0, symName: __ZNSt3__110unique_ptrINS_11__tree_nodeINS_12__value_typeI4vertNS_6vectorINS_4pairIS3_xEENS_9allocatorIS6_EEEEEEPvEENS_22__tree_node_destructorINS7_ISC_EEEEE7releaseB8ue170006Ev, symObjAddr: 0xE788, symBinAddr: 0x100011B04, symSize: 0xC0 }
  - { offsetInCU: 0x25463, offset: 0x25463, size: 0x8, addend: 0x0, symName: __ZNSt3__110unique_ptrINS_11__tree_nodeINS_12__value_typeI4vertNS_6vectorINS_4pairIS3_xEENS_9allocatorIS6_EEEEEEPvEENS_22__tree_node_destructorINS7_ISC_EEEEE5resetB8ue170006EPSC_, symObjAddr: 0x118C0, symBinAddr: 0x100014C3C, symSize: 0x104 }
  - { offsetInCU: 0x25533, offset: 0x25533, size: 0x8, addend: 0x0, symName: __ZNSt3__16__treeINS_12__value_typeI4vertNS_6vectorINS_4pairIS2_xEENS_9allocatorIS5_EEEEEENS_19__map_value_compareIS2_S9_NS_4lessIS2_EELb1EEENS6_IS9_EEE10value_compB8ue170006Ev, symObjAddr: 0xE8A4, symBinAddr: 0x100011C20, symSize: 0x70 }
  - { offsetInCU: 0x25568, offset: 0x25568, size: 0x8, addend: 0x0, symName: __ZNKSt3__119__map_value_compareI4vertNS_12__value_typeIS1_NS_6vectorINS_4pairIS1_xEENS_9allocatorIS5_EEEEEENS_4lessIS1_EELb1EEclB8ue170006ERKS1_RKS9_, symObjAddr: 0xE914, symBinAddr: 0x100011C90, symSize: 0x70 }
  - { offsetInCU: 0x255DD, offset: 0x255DD, size: 0x8, addend: 0x0, symName: __ZNKSt3__119__map_value_compareI4vertNS_12__value_typeIS1_NS_6vectorINS_4pairIS1_xEENS_9allocatorIS5_EEEEEENS_4lessIS1_EELb1EEclB8ue170006ERKS9_RKS1_, symObjAddr: 0xE984, symBinAddr: 0x100011D00, symSize: 0x70 }
  - { offsetInCU: 0x2572F, offset: 0x2572F, size: 0x8, addend: 0x0, symName: __ZNSt3__110unique_ptrINS_11__tree_nodeINS_12__value_typeI4vertNS_6vectorINS_4pairIS3_xEENS_9allocatorIS6_EEEEEEPvEENS_22__tree_node_destructorINS7_ISC_EEEEEC1B8ue170006ILb1EvEEPSC_NS_16__dependent_typeINS_27__unique_ptr_deleter_sfinaeISF_EEXT_EE20__good_rval_ref_typeE, symObjAddr: 0xEBF8, symBinAddr: 0x100011F74, symSize: 0x20C }
  - { offsetInCU: 0x257E5, offset: 0x257E5, size: 0x8, addend: 0x0, symName: __ZNSt3__116allocator_traitsINS_9allocatorINS_11__tree_nodeINS_12__value_typeI4vertNS_6vectorINS_4pairIS4_xEENS1_IS7_EEEEEEPvEEEEE9constructB8ue170006INS6_IKS4_S9_EEJRKNS_21piecewise_construct_tENS_5tupleIJOS4_EEENSL_IJEEEEvEEvRSD_PT_DpOT0_, symObjAddr: 0xEE04, symBinAddr: 0x100012180, symSize: 0x230 }
  - { offsetInCU: 0x258E0, offset: 0x258E0, size: 0x8, addend: 0x0, symName: __ZNSt3__117__compressed_pairIPNS_11__tree_nodeINS_12__value_typeI4vertNS_6vectorINS_4pairIS3_xEENS_9allocatorIS6_EEEEEEPvEENS_22__tree_node_destructorINS7_ISC_EEEEE6secondB8ue170006Ev, symObjAddr: 0xF614, symBinAddr: 0x100012990, symSize: 0xB0 }
  - { offsetInCU: 0x25925, offset: 0x25925, size: 0x8, addend: 0x0, symName: __ZNSt3__110unique_ptrINS_11__tree_nodeINS_12__value_typeI4vertNS_6vectorINS_4pairIS3_xEENS_9allocatorIS6_EEEEEEPvEENS_22__tree_node_destructorINS7_ISC_EEEEED1B8ue170006Ev, symObjAddr: 0xE848, symBinAddr: 0x100011BC4, symSize: 0x5C }
  - { offsetInCU: 0x25977, offset: 0x25977, size: 0x8, addend: 0x0, symName: __ZNSt3__16__treeINS_12__value_typeI4vertNS_6vectorINS_4pairIS2_xEENS_9allocatorIS5_EEEEEENS_19__map_value_compareIS2_S9_NS_4lessIS2_EELb1EEENS6_IS9_EEE4sizeB8ue170006Ev, symObjAddr: 0x1087C, symBinAddr: 0x100013BF8, symSize: 0x70 }
  - { offsetInCU: 0x259AC, offset: 0x259AC, size: 0x8, addend: 0x0, symName: __ZNSt3__117__compressed_pairIPNS_11__tree_nodeINS_12__value_typeI4vertNS_6vectorINS_4pairIS3_xEENS_9allocatorIS6_EEEEEEPvEENS_22__tree_node_destructorINS7_ISC_EEEEE5firstB8ue170006Ev, symObjAddr: 0x117F4, symBinAddr: 0x100014B70, symSize: 0xCC }
  - { offsetInCU: 0x259F0, offset: 0x259F0, size: 0x8, addend: 0x0, symName: __ZNSt3__117__compressed_pairImNS_19__map_value_compareI4vertNS_12__value_typeIS2_NS_6vectorINS_4pairIS2_xEENS_9allocatorIS6_EEEEEENS_4lessIS2_EELb1EEEE6secondB8ue170006Ev, symObjAddr: 0xE9F4, symBinAddr: 0x100011D70, symSize: 0xD4 }
  - { offsetInCU: 0x25A67, offset: 0x25A67, size: 0x8, addend: 0x0, symName: __ZNK4vertltERKS_, symObjAddr: 0xEAC8, symBinAddr: 0x100011E44, symSize: 0x130 }
  - { offsetInCU: 0x25B31, offset: 0x25B31, size: 0x8, addend: 0x0, symName: __ZNSt3__117__compressed_pairIPNS_11__tree_nodeINS_12__value_typeI4vertNS_6vectorINS_4pairIS3_xEENS_9allocatorIS6_EEEEEEPvEENS_22__tree_node_destructorINS7_ISC_EEEEEC2B8ue170006IRSD_SG_EEOT_OT0_, symObjAddr: 0xF034, symBinAddr: 0x1000123B0, symSize: 0x104 }
  - { offsetInCU: 0x25CEB, offset: 0x25CEB, size: 0x8, addend: 0x0, symName: __ZNSt3__14pairIK4vertNS_6vectorINS0_IS1_xEENS_9allocatorIS4_EEEEEC2B8ue170006IJOS1_EJEJLm0EEJEEENS_21piecewise_construct_tERNS_5tupleIJDpT_EEERNSC_IJDpT0_EEENS_15__tuple_indicesIJXspT1_EEEENSL_IJXspT2_EEEE, symObjAddr: 0xF138, symBinAddr: 0x1000124B4, symSize: 0x2E4 }
  - { offsetInCU: 0x25EE4, offset: 0x25EE4, size: 0x8, addend: 0x0, symName: __ZNSt3__117__compressed_pairIPNS_4pairI4vertxEENS_9allocatorIS3_EEEC2B8ue170006IDnNS_18__default_init_tagEEEOT_OT0_, symObjAddr: 0xF41C, symBinAddr: 0x100012798, symSize: 0xB0 }
  - { offsetInCU: 0x25F94, offset: 0x25F94, size: 0x8, addend: 0x0, symName: __ZNSt3__122__compressed_pair_elemINS_9allocatorINS_4pairI4vertxEEEELi1ELb1EEC2B8ue170006ENS_18__default_init_tagE, symObjAddr: 0xF4CC, symBinAddr: 0x100012848, symSize: 0x7C }
  - { offsetInCU: 0x2608B, offset: 0x2608B, size: 0x8, addend: 0x0, symName: __ZNSt3__117__compressed_pairImNS_19__map_value_compareI4vertNS_12__value_typeIS2_NS_6vectorINS_4pairIS2_xEENS_9allocatorIS6_EEEEEENS_4lessIS2_EELb1EEEE5firstB8ue170006Ev, symObjAddr: 0x11728, symBinAddr: 0x100014AA4, symSize: 0xCC }
  - { offsetInCU: 0x2611D, offset: 0x2611D, size: 0x8, addend: 0x0, symName: __ZNSt3__122__tree_node_destructorINS_9allocatorINS_11__tree_nodeINS_12__value_typeI4vertNS_6vectorINS_4pairIS4_xEENS1_IS7_EEEEEEPvEEEEEclB8ue170006EPSC_, symObjAddr: 0x119C4, symBinAddr: 0x100014D40, symSize: 0x18C }
  - { offsetInCU: 0x2622B, offset: 0x2622B, size: 0x8, addend: 0x0, symName: __ZNSt3__117__compressed_pairIPNS_4pairI4vertxEENS_9allocatorIS3_EEE5firstB8ue170006Ev, symObjAddr: 0x121E8, symBinAddr: 0x100015564, symSize: 0xCC }
  - { offsetInCU: 0x26345, offset: 0x26345, size: 0x8, addend: 0x0, symName: __ZNSt3__16vectorINS_4pairI4vertxEENS_9allocatorIS3_EEE21_ConstructTransactionC2B8ue170006ERS6_m, symObjAddr: 0x122B4, symBinAddr: 0x100015630, symSize: 0x194 }
  - { offsetInCU: 0x2639D, offset: 0x2639D, size: 0x8, addend: 0x0, symName: __ZNSt3__19allocatorINS_4pairI4vertxEEE9constructB8ue170006IS3_JS2_iEEEvPT_DpOT0_, symObjAddr: 0x12720, symBinAddr: 0x100015A9C, symSize: 0x160 }
  - { offsetInCU: 0x2645D, offset: 0x2645D, size: 0x8, addend: 0x0, symName: __ZNSt3__16vectorINS_4pairI4vertxEENS_9allocatorIS3_EEE21_ConstructTransactionD2B8ue170006Ev, symObjAddr: 0x12880, symBinAddr: 0x100015BFC, symSize: 0x214 }
  - { offsetInCU: 0x264F4, offset: 0x264F4, size: 0x8, addend: 0x0, symName: __ZNKSt3__16vectorINS_4pairI4vertxEENS_9allocatorIS3_EEE11__recommendB8ue170006Em, symObjAddr: 0x12CF0, symBinAddr: 0x10001606C, symSize: 0x9C }
  - { offsetInCU: 0x265A2, offset: 0x265A2, size: 0x8, addend: 0x0, symName: __ZNSt3__114__split_bufferINS_4pairI4vertxEERNS_9allocatorIS3_EEEC2EmmS6_, symObjAddr: 0x13244, symBinAddr: 0x1000165C0, symSize: 0x35C }
  - { offsetInCU: 0x266AB, offset: 0x266AB, size: 0x8, addend: 0x0, symName: __ZNSt3__114__split_bufferINS_4pairI4vertxEERNS_9allocatorIS3_EEED2Ev, symObjAddr: 0x149A4, symBinAddr: 0x100017D20, symSize: 0xF4 }
  - { offsetInCU: 0x267BB, offset: 0x267BB, size: 0x8, addend: 0x0, symName: __ZNSt3__114__split_bufferINS_4pairI4vertxEERNS_9allocatorIS3_EEED1Ev, symObjAddr: 0x13074, symBinAddr: 0x1000163F0, symSize: 0x48 }
  - { offsetInCU: 0x26801, offset: 0x26801, size: 0x8, addend: 0x0, symName: __ZNKSt3__16vectorINS_4pairI4vertxEENS_9allocatorIS3_EEE19__annotate_increaseB8ue170006Em, symObjAddr: 0x12448, symBinAddr: 0x1000157C4, symSize: 0x2D8 }
  - { offsetInCU: 0x2699B, offset: 0x2699B, size: 0x8, addend: 0x0, symName: __ZNKSt3__16vectorINS_4pairI4vertxEENS_9allocatorIS3_EEE17__annotate_shrinkB8ue170006Em, symObjAddr: 0x12A94, symBinAddr: 0x100015E10, symSize: 0x25C }
  - { offsetInCU: 0x26AA9, offset: 0x26AA9, size: 0x8, addend: 0x0, symName: __ZNKSt3__16vectorINS_4pairI4vertxEENS_9allocatorIS3_EEE7__allocB8ue170006Ev, symObjAddr: 0x13100, symBinAddr: 0x10001647C, symSize: 0x70 }
  - { offsetInCU: 0x26ADE, offset: 0x26ADE, size: 0x8, addend: 0x0, symName: __ZNKSt3__16vectorINS_4pairI4vertxEENS_9allocatorIS3_EEE20__throw_length_errorB8ue170006Ev, symObjAddr: 0x130BC, symBinAddr: 0x100016438, symSize: 0x44 }
  - { offsetInCU: 0x26B3E, offset: 0x26B3E, size: 0x8, addend: 0x0, symName: __ZNSt3__117__compressed_pairIPNS_4pairI4vertxEERNS_9allocatorIS3_EEE5firstB8ue170006Ev, symObjAddr: 0x13850, symBinAddr: 0x100016BCC, symSize: 0xCC }
  - { offsetInCU: 0x26B82, offset: 0x26B82, size: 0x8, addend: 0x0, symName: __ZNKSt3__16vectorINS_4pairI4vertxEENS_9allocatorIS3_EEE14__annotate_newB8ue170006Em, symObjAddr: 0x13D40, symBinAddr: 0x1000170BC, symSize: 0x280 }
  - { offsetInCU: 0x26C78, offset: 0x26C78, size: 0x8, addend: 0x0, symName: __ZNKSt3__117__compressed_pairIPNS_4pairI4vertxEENS_9allocatorIS3_EEE6secondB8ue170006Ev, symObjAddr: 0x13170, symBinAddr: 0x1000164EC, symSize: 0xD4 }
  - { offsetInCU: 0x26D19, offset: 0x26D19, size: 0x8, addend: 0x0, symName: __ZNSt3__117__compressed_pairIPNS_4pairI4vertxEERNS_9allocatorIS3_EEEC2B8ue170006IDnS7_EEOT_OT0_, symObjAddr: 0x13654, symBinAddr: 0x1000169D0, symSize: 0xFC }
  - { offsetInCU: 0x26DAB, offset: 0x26DAB, size: 0x8, addend: 0x0, symName: __ZNSt3__114__split_bufferINS_4pairI4vertxEERNS_9allocatorIS3_EEE7__allocB8ue170006Ev, symObjAddr: 0x135E4, symBinAddr: 0x100016960, symSize: 0x70 }
  - { offsetInCU: 0x26DFC, offset: 0x26DFC, size: 0x8, addend: 0x0, symName: __ZNSt3__117__compressed_pairIPNS_4pairI4vertxEERNS_9allocatorIS3_EEE6secondB8ue170006Ev, symObjAddr: 0x13750, symBinAddr: 0x100016ACC, symSize: 0x100 }
  - { offsetInCU: 0x26FE6, offset: 0x26FE6, size: 0x8, addend: 0x0, symName: __ZNKSt3__116reverse_iteratorIPNS_4pairI4vertxEEEdeB8ue170006Ev, symObjAddr: 0x13FC0, symBinAddr: 0x10001733C, symSize: 0xC0 }
  - { offsetInCU: 0x2701C, offset: 0x2701C, size: 0x8, addend: 0x0, symName: __ZNSt3__128__exception_guard_exceptionsINS_29_AllocatorDestroyRangeReverseINS_9allocatorINS_4pairI4vertxEEEENS_16reverse_iteratorIPS5_EEEEED2B8ue170006Ev, symObjAddr: 0x14080, symBinAddr: 0x1000173FC, symSize: 0xF4 }
  - { offsetInCU: 0x2705B, offset: 0x2705B, size: 0x8, addend: 0x0, symName: __ZNKSt3__129_AllocatorDestroyRangeReverseINS_9allocatorINS_4pairI4vertxEEEENS_16reverse_iteratorIPS4_EEEclB8ue170006Ev, symObjAddr: 0x14174, symBinAddr: 0x1000174F0, symSize: 0x334 }
  - { offsetInCU: 0x27184, offset: 0x27184, size: 0x8, addend: 0x0, symName: __ZNKSt3__116reverse_iteratorINS0_IPNS_4pairI4vertxEEEEEdeB8ue170006Ev, symObjAddr: 0x147B4, symBinAddr: 0x100017B30, symSize: 0x1F0 }
  - { offsetInCU: 0x271E6, offset: 0x271E6, size: 0x8, addend: 0x0, symName: __ZNSt3__116reverse_iteratorINS0_IPNS_4pairI4vertxEEEEEppB8ue170006Ev, symObjAddr: 0x14614, symBinAddr: 0x100017990, symSize: 0x1A0 }
  - { offsetInCU: 0x2724F, offset: 0x2724F, size: 0x8, addend: 0x0, symName: __ZNSt3__114__split_bufferINS_4pairI4vertxEERNS_9allocatorIS3_EEE5clearB8ue170006Ev, symObjAddr: 0x14A98, symBinAddr: 0x100017E14, symSize: 0xAC }
  - { offsetInCU: 0x272A3, offset: 0x272A3, size: 0x8, addend: 0x0, symName: __ZNKSt3__114__split_bufferINS_4pairI4vertxEERNS_9allocatorIS3_EEE8capacityB8ue170006Ev, symObjAddr: 0x14B44, symBinAddr: 0x100017EC0, symSize: 0x8C }
  - { offsetInCU: 0x272FF, offset: 0x272FF, size: 0x8, addend: 0x0, symName: __ZNSt3__114__split_bufferINS_4pairI4vertxEERNS_9allocatorIS3_EEE17__destruct_at_endB8ue170006EPS3_NS_17integral_constantIbLb0EEE, symObjAddr: 0x14BD0, symBinAddr: 0x100017F4C, symSize: 0x100 }
  - { offsetInCU: 0x27354, offset: 0x27354, size: 0x8, addend: 0x0, symName: __ZNKSt3__114__split_bufferINS_4pairI4vertxEERNS_9allocatorIS3_EEE9__end_capB8ue170006Ev, symObjAddr: 0x14CD0, symBinAddr: 0x10001804C, symSize: 0x70 }
  - { offsetInCU: 0x27389, offset: 0x27389, size: 0x8, addend: 0x0, symName: __ZNKSt3__117__compressed_pairIPNS_4pairI4vertxEERNS_9allocatorIS3_EEE5firstB8ue170006Ev, symObjAddr: 0x14D40, symBinAddr: 0x1000180BC, symSize: 0xCC }
  - { offsetInCU: 0x273CD, offset: 0x273CD, size: 0x8, addend: 0x0, symName: __ZNSt3__16__treeINS_12__value_typeI4vertxEENS_19__map_value_compareIS2_S3_NS_4lessIS2_EELb1EEENS_9allocatorIS3_EEE25__emplace_unique_key_argsIS2_JRKNS_21piecewise_construct_tENS_5tupleIJRKS2_EEENSF_IJEEEEEENS_4pairINS_15__tree_iteratorIS3_PNS_11__tree_nodeIS3_PvEElEEbEERKT_DpOT0_, symObjAddr: 0x17670, symBinAddr: 0x10001A9EC, symSize: 0x2D8 }
  - { offsetInCU: 0x2761C, offset: 0x2761C, size: 0x8, addend: 0x0, symName: __ZNSt3__16vectorINS_4pairIx4vertEENS_9allocatorIS3_EEE12emplace_backIJxRS2_EEERS3_DpOT_, symObjAddr: 0x197D0, symBinAddr: 0x10001CB4C, symSize: 0xC0 }
  - { offsetInCU: 0x276EB, offset: 0x276EB, size: 0x8, addend: 0x0, symName: __ZNSt3__16vectorINS_4pairIx4vertEENS_9allocatorIS3_EEE17__destruct_at_endB8ue170006EPS3_, symObjAddr: 0x1E1E4, symBinAddr: 0x100021560, symSize: 0x68 }
  - { offsetInCU: 0x2778D, offset: 0x2778D, size: 0x8, addend: 0x0, symName: __ZNSt3__16__treeINS_12__value_typeI4vertbEENS_19__map_value_compareIS2_S3_NS_4lessIS2_EELb1EEENS_9allocatorIS3_EEE25__emplace_unique_key_argsIS2_JRKNS_21piecewise_construct_tENS_5tupleIJRKS2_EEENSF_IJEEEEEENS_4pairINS_15__tree_iteratorIS3_PNS_11__tree_nodeIS3_PvEElEEbEERKT_DpOT0_, symObjAddr: 0x1E334, symBinAddr: 0x1000216B0, symSize: 0x2D8 }
  - { offsetInCU: 0x27984, offset: 0x27984, size: 0x8, addend: 0x0, symName: __ZNKSt3__115__tree_iteratorINS_12__value_typeI4vertbEEPNS_11__tree_nodeIS3_PvEElEptB8ue170006Ev, symObjAddr: 0x1E60C, symBinAddr: 0x100021988, symSize: 0xDC }
  - { offsetInCU: 0x279C2, offset: 0x279C2, size: 0x8, addend: 0x0, symName: __ZNSt3__16__treeINS_12__value_typeI4vertNS_6vectorINS_4pairIS2_xEENS_9allocatorIS5_EEEEEENS_19__map_value_compareIS2_S9_NS_4lessIS2_EELb1EEENS6_IS9_EEE25__emplace_unique_key_argsIS2_JRKNS_21piecewise_construct_tENS_5tupleIJRKS2_EEENSK_IJEEEEEENS4_INS_15__tree_iteratorIS9_PNS_11__tree_nodeIS9_PvEElEEbEERKT_DpOT0_, symObjAddr: 0x2083C, symBinAddr: 0x100023BB8, symSize: 0x2D8 }
  - { offsetInCU: 0x27BCF, offset: 0x27BCF, size: 0x8, addend: 0x0, symName: __ZNSt3__16__treeINS_12__value_typeI4vertS2_EENS_19__map_value_compareIS2_S3_NS_4lessIS2_EELb1EEENS_9allocatorIS3_EEE25__emplace_unique_key_argsIS2_JRKNS_21piecewise_construct_tENS_5tupleIJRKS2_EEENSF_IJEEEEEENS_4pairINS_15__tree_iteratorIS3_PNS_11__tree_nodeIS3_PvEElEEbEERKT_DpOT0_, symObjAddr: 0x213EC, symBinAddr: 0x100024768, symSize: 0x2D8 }
  - { offsetInCU: 0x27DC6, offset: 0x27DC6, size: 0x8, addend: 0x0, symName: __ZNKSt3__115__tree_iteratorINS_12__value_typeI4vertS2_EEPNS_11__tree_nodeIS3_PvEElEptB8ue170006Ev, symObjAddr: 0x216C4, symBinAddr: 0x100024A40, symSize: 0xDC }
  - { offsetInCU: 0x27E04, offset: 0x27E04, size: 0x8, addend: 0x0, symName: __ZNSt3__16vectorINS_4pairIx4vertEENS_9allocatorIS3_EEE12emplace_backIJRxRS2_EEERS3_DpOT_, symObjAddr: 0x23594, symBinAddr: 0x100026910, symSize: 0xC0 }
  - { offsetInCU: 0x27F1C, offset: 0x27F1C, size: 0x8, addend: 0x0, symName: __ZNSt3__117__compressed_pairINS_15__tree_end_nodeIPNS_16__tree_node_baseIPvEEEENS_9allocatorINS_11__tree_nodeINS_12__value_typeI4vertxEES3_EEEEEC2B8ue170006ILb1EvEEv, symObjAddr: 0x166B4, symBinAddr: 0x100019A30, symSize: 0xD0 }
  - { offsetInCU: 0x27FA3, offset: 0x27FA3, size: 0x8, addend: 0x0, symName: __ZNSt3__117__compressed_pairImNS_19__map_value_compareI4vertNS_12__value_typeIS2_xEENS_4lessIS2_EELb1EEEEC2B8ue170006IiRKS7_EEOT_OT0_, symObjAddr: 0x16800, symBinAddr: 0x100019B7C, symSize: 0xE8 }
  - { offsetInCU: 0x2801F, offset: 0x2801F, size: 0x8, addend: 0x0, symName: __ZNSt3__16__treeINS_12__value_typeI4vertxEENS_19__map_value_compareIS2_S3_NS_4lessIS2_EELb1EEENS_9allocatorIS3_EEE10__end_nodeB8ue170006Ev, symObjAddr: 0x16644, symBinAddr: 0x1000199C0, symSize: 0x70 }
  - { offsetInCU: 0x2804F, offset: 0x2804F, size: 0x8, addend: 0x0, symName: __ZNSt3__117__compressed_pairINS_15__tree_end_nodeIPNS_16__tree_node_baseIPvEEEENS_9allocatorINS_11__tree_nodeINS_12__value_typeI4vertxEES3_EEEEE5firstB8ue170006Ev, symObjAddr: 0x168E8, symBinAddr: 0x100019C64, symSize: 0xCC }
  - { offsetInCU: 0x28093, offset: 0x28093, size: 0x8, addend: 0x0, symName: __ZNSt3__122__compressed_pair_elemINS_9allocatorINS_11__tree_nodeINS_12__value_typeI4vertxEEPvEEEELi1ELb1EEC2B8ue170006ENS_16__value_init_tagE, symObjAddr: 0x16784, symBinAddr: 0x100019B00, symSize: 0x7C }
  - { offsetInCU: 0x281B9, offset: 0x281B9, size: 0x8, addend: 0x0, symName: __ZNSt3__117__compressed_pairINS_15__tree_end_nodeIPNS_16__tree_node_baseIPvEEEENS_9allocatorINS_11__tree_nodeINS_12__value_typeI4vertSA_EES3_EEEEEC2B8ue170006ILb1EvEEv, symObjAddr: 0x16C7C, symBinAddr: 0x100019FF8, symSize: 0xD0 }
  - { offsetInCU: 0x28240, offset: 0x28240, size: 0x8, addend: 0x0, symName: __ZNSt3__117__compressed_pairImNS_19__map_value_compareI4vertNS_12__value_typeIS2_S2_EENS_4lessIS2_EELb1EEEEC2B8ue170006IiRKS7_EEOT_OT0_, symObjAddr: 0x16DC8, symBinAddr: 0x10001A144, symSize: 0xE8 }
  - { offsetInCU: 0x282BC, offset: 0x282BC, size: 0x8, addend: 0x0, symName: __ZNSt3__16__treeINS_12__value_typeI4vertS2_EENS_19__map_value_compareIS2_S3_NS_4lessIS2_EELb1EEENS_9allocatorIS3_EEE10__end_nodeB8ue170006Ev, symObjAddr: 0x16C0C, symBinAddr: 0x100019F88, symSize: 0x70 }
  - { offsetInCU: 0x282EC, offset: 0x282EC, size: 0x8, addend: 0x0, symName: __ZNSt3__117__compressed_pairINS_15__tree_end_nodeIPNS_16__tree_node_baseIPvEEEENS_9allocatorINS_11__tree_nodeINS_12__value_typeI4vertSA_EES3_EEEEE5firstB8ue170006Ev, symObjAddr: 0x16EB0, symBinAddr: 0x10001A22C, symSize: 0xCC }
  - { offsetInCU: 0x28330, offset: 0x28330, size: 0x8, addend: 0x0, symName: __ZNSt3__122__compressed_pair_elemINS_9allocatorINS_11__tree_nodeINS_12__value_typeI4vertS4_EEPvEEEELi1ELb1EEC2B8ue170006ENS_16__value_init_tagE, symObjAddr: 0x16D4C, symBinAddr: 0x10001A0C8, symSize: 0x7C }
  - { offsetInCU: 0x28456, offset: 0x28456, size: 0x8, addend: 0x0, symName: __ZNSt3__117__compressed_pairINS_15__tree_end_nodeIPNS_16__tree_node_baseIPvEEEENS_9allocatorINS_11__tree_nodeINS_12__value_typeI4vertbEES3_EEEEEC2B8ue170006ILb1EvEEv, symObjAddr: 0x17244, symBinAddr: 0x10001A5C0, symSize: 0xD0 }
  - { offsetInCU: 0x284DD, offset: 0x284DD, size: 0x8, addend: 0x0, symName: __ZNSt3__117__compressed_pairImNS_19__map_value_compareI4vertNS_12__value_typeIS2_bEENS_4lessIS2_EELb1EEEEC2B8ue170006IiRKS7_EEOT_OT0_, symObjAddr: 0x17390, symBinAddr: 0x10001A70C, symSize: 0xE8 }
  - { offsetInCU: 0x28559, offset: 0x28559, size: 0x8, addend: 0x0, symName: __ZNSt3__16__treeINS_12__value_typeI4vertbEENS_19__map_value_compareIS2_S3_NS_4lessIS2_EELb1EEENS_9allocatorIS3_EEE10__end_nodeB8ue170006Ev, symObjAddr: 0x171D4, symBinAddr: 0x10001A550, symSize: 0x70 }
  - { offsetInCU: 0x2858E, offset: 0x2858E, size: 0x8, addend: 0x0, symName: __ZNSt3__117__compressed_pairINS_15__tree_end_nodeIPNS_16__tree_node_baseIPvEEEENS_9allocatorINS_11__tree_nodeINS_12__value_typeI4vertbEES3_EEEEE5firstB8ue170006Ev, symObjAddr: 0x17478, symBinAddr: 0x10001A7F4, symSize: 0xCC }
  - { offsetInCU: 0x285D2, offset: 0x285D2, size: 0x8, addend: 0x0, symName: __ZNSt3__122__compressed_pair_elemINS_9allocatorINS_11__tree_nodeINS_12__value_typeI4vertbEEPvEEEELi1ELb1EEC2B8ue170006ENS_16__value_init_tagE, symObjAddr: 0x17314, symBinAddr: 0x10001A690, symSize: 0x7C }
  - { offsetInCU: 0x286B0, offset: 0x286B0, size: 0x8, addend: 0x0, symName: __ZNSt3__122__compressed_pair_elemINS_9allocatorINS_4pairIx4vertEEEELi1ELb1EEC2B8ue170006ENS_18__default_init_tagE, symObjAddr: 0x175F4, symBinAddr: 0x10001A970, symSize: 0x7C }
  - { offsetInCU: 0x28807, offset: 0x28807, size: 0x8, addend: 0x0, symName: __ZNSt3__16__treeINS_12__value_typeI4vertxEENS_19__map_value_compareIS2_S3_NS_4lessIS2_EELb1EEENS_9allocatorIS3_EEE12__find_equalIS2_EERPNS_16__tree_node_baseIPvEERPNS_15__tree_end_nodeISF_EERKT_, symObjAddr: 0x17A24, symBinAddr: 0x10001ADA0, symSize: 0x57C }
  - { offsetInCU: 0x28936, offset: 0x28936, size: 0x8, addend: 0x0, symName: __ZNSt3__16__treeINS_12__value_typeI4vertxEENS_19__map_value_compareIS2_S3_NS_4lessIS2_EELb1EEENS_9allocatorIS3_EEE16__construct_nodeIJRKNS_21piecewise_construct_tENS_5tupleIJRKS2_EEENSF_IJEEEEEENS_10unique_ptrINS_11__tree_nodeIS3_PvEENS_22__tree_node_destructorINS8_ISN_EEEEEEDpOT_, symObjAddr: 0x17FA0, symBinAddr: 0x10001B31C, symSize: 0x36C }
  - { offsetInCU: 0x28B48, offset: 0x28B48, size: 0x8, addend: 0x0, symName: __ZNKSt3__117__compressed_pairIPNS_11__tree_nodeINS_12__value_typeI4vertxEEPvEENS_22__tree_node_destructorINS_9allocatorIS6_EEEEE5firstB8ue170006Ev, symObjAddr: 0x19180, symBinAddr: 0x10001C4FC, symSize: 0xCC }
  - { offsetInCU: 0x28B8C, offset: 0x28B8C, size: 0x8, addend: 0x0, symName: __ZNSt3__16__treeINS_12__value_typeI4vertxEENS_19__map_value_compareIS2_S3_NS_4lessIS2_EELb1EEENS_9allocatorIS3_EEE16__insert_node_atEPNS_15__tree_end_nodeIPNS_16__tree_node_baseIPvEEEERSF_SF_, symObjAddr: 0x1830C, symBinAddr: 0x10001B688, symSize: 0x4BC }
  - { offsetInCU: 0x28C71, offset: 0x28C71, size: 0x8, addend: 0x0, symName: __ZNSt3__110unique_ptrINS_11__tree_nodeINS_12__value_typeI4vertxEEPvEENS_22__tree_node_destructorINS_9allocatorIS6_EEEEE7releaseB8ue170006Ev, symObjAddr: 0x187C8, symBinAddr: 0x10001BB44, symSize: 0xC0 }
  - { offsetInCU: 0x28CD1, offset: 0x28CD1, size: 0x8, addend: 0x0, symName: __ZNSt3__110unique_ptrINS_11__tree_nodeINS_12__value_typeI4vertxEEPvEENS_22__tree_node_destructorINS_9allocatorIS6_EEEEE5resetB8ue170006EPS6_, symObjAddr: 0x19504, symBinAddr: 0x10001C880, symSize: 0x104 }
  - { offsetInCU: 0x28DA1, offset: 0x28DA1, size: 0x8, addend: 0x0, symName: __ZNSt3__16__treeINS_12__value_typeI4vertxEENS_19__map_value_compareIS2_S3_NS_4lessIS2_EELb1EEENS_9allocatorIS3_EEE10value_compB8ue170006Ev, symObjAddr: 0x188E4, symBinAddr: 0x10001BC60, symSize: 0x70 }
  - { offsetInCU: 0x28DD6, offset: 0x28DD6, size: 0x8, addend: 0x0, symName: __ZNKSt3__119__map_value_compareI4vertNS_12__value_typeIS1_xEENS_4lessIS1_EELb1EEclB8ue170006ERKS1_RKS3_, symObjAddr: 0x18954, symBinAddr: 0x10001BCD0, symSize: 0x70 }
  - { offsetInCU: 0x28E4B, offset: 0x28E4B, size: 0x8, addend: 0x0, symName: __ZNKSt3__119__map_value_compareI4vertNS_12__value_typeIS1_xEENS_4lessIS1_EELb1EEclB8ue170006ERKS3_RKS1_, symObjAddr: 0x189C4, symBinAddr: 0x10001BD40, symSize: 0x70 }
  - { offsetInCU: 0x28F9D, offset: 0x28F9D, size: 0x8, addend: 0x0, symName: __ZNSt3__110unique_ptrINS_11__tree_nodeINS_12__value_typeI4vertxEEPvEENS_22__tree_node_destructorINS_9allocatorIS6_EEEEEC1B8ue170006ILb1EvEEPS6_NS_16__dependent_typeINS_27__unique_ptr_deleter_sfinaeISA_EEXT_EE20__good_rval_ref_typeE, symObjAddr: 0x18B08, symBinAddr: 0x10001BE84, symSize: 0x20C }
  - { offsetInCU: 0x29053, offset: 0x29053, size: 0x8, addend: 0x0, symName: __ZNSt3__116allocator_traitsINS_9allocatorINS_11__tree_nodeINS_12__value_typeI4vertxEEPvEEEEE9constructB8ue170006INS_4pairIKS4_xEEJRKNS_21piecewise_construct_tENS_5tupleIJRSC_EEENSH_IJEEEEvEEvRS8_PT_DpOT0_, symObjAddr: 0x18D14, symBinAddr: 0x10001C090, symSize: 0x230 }
  - { offsetInCU: 0x2914E, offset: 0x2914E, size: 0x8, addend: 0x0, symName: __ZNSt3__117__compressed_pairIPNS_11__tree_nodeINS_12__value_typeI4vertxEEPvEENS_22__tree_node_destructorINS_9allocatorIS6_EEEEE6secondB8ue170006Ev, symObjAddr: 0x1924C, symBinAddr: 0x10001C5C8, symSize: 0xB0 }
  - { offsetInCU: 0x29193, offset: 0x29193, size: 0x8, addend: 0x0, symName: __ZNSt3__110unique_ptrINS_11__tree_nodeINS_12__value_typeI4vertxEEPvEENS_22__tree_node_destructorINS_9allocatorIS6_EEEEED1B8ue170006Ev, symObjAddr: 0x18888, symBinAddr: 0x10001BC04, symSize: 0x5C }
  - { offsetInCU: 0x291E5, offset: 0x291E5, size: 0x8, addend: 0x0, symName: __ZNSt3__16__treeINS_12__value_typeI4vertxEENS_19__map_value_compareIS2_S3_NS_4lessIS2_EELb1EEENS_9allocatorIS3_EEE4sizeB8ue170006Ev, symObjAddr: 0x192FC, symBinAddr: 0x10001C678, symSize: 0x70 }
  - { offsetInCU: 0x2921A, offset: 0x2921A, size: 0x8, addend: 0x0, symName: __ZNSt3__117__compressed_pairIPNS_11__tree_nodeINS_12__value_typeI4vertxEEPvEENS_22__tree_node_destructorINS_9allocatorIS6_EEEEE5firstB8ue170006Ev, symObjAddr: 0x19438, symBinAddr: 0x10001C7B4, symSize: 0xCC }
  - { offsetInCU: 0x2925E, offset: 0x2925E, size: 0x8, addend: 0x0, symName: __ZNSt3__117__compressed_pairImNS_19__map_value_compareI4vertNS_12__value_typeIS2_xEENS_4lessIS2_EELb1EEEE6secondB8ue170006Ev, symObjAddr: 0x18A34, symBinAddr: 0x10001BDB0, symSize: 0xD4 }
  - { offsetInCU: 0x29334, offset: 0x29334, size: 0x8, addend: 0x0, symName: __ZNSt3__117__compressed_pairIPNS_11__tree_nodeINS_12__value_typeI4vertxEEPvEENS_22__tree_node_destructorINS_9allocatorIS6_EEEEEC2B8ue170006IRS7_SB_EEOT_OT0_, symObjAddr: 0x18F44, symBinAddr: 0x10001C2C0, symSize: 0x104 }
  - { offsetInCU: 0x294EE, offset: 0x294EE, size: 0x8, addend: 0x0, symName: __ZNSt3__14pairIK4vertxEC2B8ue170006IJRS2_EJEJLm0EEJEEENS_21piecewise_construct_tERNS_5tupleIJDpT_EEERNS7_IJDpT0_EEENS_15__tuple_indicesIJXspT1_EEEENSG_IJXspT2_EEEE, symObjAddr: 0x19048, symBinAddr: 0x10001C3C4, symSize: 0x138 }
  - { offsetInCU: 0x29640, offset: 0x29640, size: 0x8, addend: 0x0, symName: __ZNSt3__117__compressed_pairImNS_19__map_value_compareI4vertNS_12__value_typeIS2_xEENS_4lessIS2_EELb1EEEE5firstB8ue170006Ev, symObjAddr: 0x1936C, symBinAddr: 0x10001C6E8, symSize: 0xCC }
  - { offsetInCU: 0x2969A, offset: 0x2969A, size: 0x8, addend: 0x0, symName: __ZNSt3__122__tree_node_destructorINS_9allocatorINS_11__tree_nodeINS_12__value_typeI4vertxEEPvEEEEEclB8ue170006EPS7_, symObjAddr: 0x19608, symBinAddr: 0x10001C984, symSize: 0x1C8 }
  - { offsetInCU: 0x2977E, offset: 0x2977E, size: 0x8, addend: 0x0, symName: __ZNSt3__16vectorINS_4pairIx4vertEENS_9allocatorIS3_EEE9__end_capB8ue170006Ev, symObjAddr: 0x19890, symBinAddr: 0x10001CC0C, symSize: 0x70 }
  - { offsetInCU: 0x297AE, offset: 0x297AE, size: 0x8, addend: 0x0, symName: __ZNSt3__16vectorINS_4pairIx4vertEENS_9allocatorIS3_EEE22__construct_one_at_endB8ue170006IJxRS2_EEEvDpOT_, symObjAddr: 0x19900, symBinAddr: 0x10001CC7C, symSize: 0x298 }
  - { offsetInCU: 0x2991E, offset: 0x2991E, size: 0x8, addend: 0x0, symName: __ZNSt3__16vectorINS_4pairIx4vertEENS_9allocatorIS3_EEE24__emplace_back_slow_pathIJxRS2_EEEvDpOT_, symObjAddr: 0x19B98, symBinAddr: 0x10001CF14, symSize: 0x2D0 }
  - { offsetInCU: 0x29AE8, offset: 0x29AE8, size: 0x8, addend: 0x0, symName: __ZNSt3__16vectorINS_4pairIx4vertEENS_9allocatorIS3_EEE4backB8ue170006Ev, symObjAddr: 0x19E68, symBinAddr: 0x10001D1E4, symSize: 0xC0 }
  - { offsetInCU: 0x29B0F, offset: 0x29B0F, size: 0x8, addend: 0x0, symName: __ZNSt3__117__compressed_pairIPNS_4pairIx4vertEENS_9allocatorIS3_EEE5firstB8ue170006Ev, symObjAddr: 0x19F28, symBinAddr: 0x10001D2A4, symSize: 0xCC }
  - { offsetInCU: 0x29C29, offset: 0x29C29, size: 0x8, addend: 0x0, symName: __ZNSt3__16vectorINS_4pairIx4vertEENS_9allocatorIS3_EEE21_ConstructTransactionC2B8ue170006ERS6_m, symObjAddr: 0x1A064, symBinAddr: 0x10001D3E0, symSize: 0x194 }
  - { offsetInCU: 0x29C81, offset: 0x29C81, size: 0x8, addend: 0x0, symName: __ZNSt3__117__compressed_pairIPNS_4pairIx4vertEENS_9allocatorIS3_EEE6secondB8ue170006Ev, symObjAddr: 0x1A874, symBinAddr: 0x10001DBF0, symSize: 0xD4 }
  - { offsetInCU: 0x29CC4, offset: 0x29CC4, size: 0x8, addend: 0x0, symName: __ZNSt3__19allocatorINS_4pairIx4vertEEE9constructB8ue170006IS3_JxRS2_EEEvPT_DpOT0_, symObjAddr: 0x1A724, symBinAddr: 0x10001DAA0, symSize: 0x150 }
  - { offsetInCU: 0x29D84, offset: 0x29D84, size: 0x8, addend: 0x0, symName: __ZNSt3__16vectorINS_4pairIx4vertEENS_9allocatorIS3_EEE21_ConstructTransactionD2B8ue170006Ev, symObjAddr: 0x1A948, symBinAddr: 0x10001DCC4, symSize: 0x214 }
  - { offsetInCU: 0x29E1B, offset: 0x29E1B, size: 0x8, addend: 0x0, symName: __ZNSt3__16vectorINS_4pairIx4vertEENS_9allocatorIS3_EEE7__allocB8ue170006Ev, symObjAddr: 0x19FF4, symBinAddr: 0x10001D370, symSize: 0x70 }
  - { offsetInCU: 0x29E4B, offset: 0x29E4B, size: 0x8, addend: 0x0, symName: __ZNKSt3__16vectorINS_4pairIx4vertEENS_9allocatorIS3_EEE4sizeB8ue170006Ev, symObjAddr: 0x1A55C, symBinAddr: 0x10001D8D8, symSize: 0x8C }
  - { offsetInCU: 0x29E72, offset: 0x29E72, size: 0x8, addend: 0x0, symName: __ZNKSt3__16vectorINS_4pairIx4vertEENS_9allocatorIS3_EEE11__recommendB8ue170006Em, symObjAddr: 0x1ADB8, symBinAddr: 0x10001E134, symSize: 0x9C }
  - { offsetInCU: 0x29F20, offset: 0x29F20, size: 0x8, addend: 0x0, symName: __ZNSt3__114__split_bufferINS_4pairIx4vertEERNS_9allocatorIS3_EEEC2EmmS6_, symObjAddr: 0x1B30C, symBinAddr: 0x10001E688, symSize: 0x35C }
  - { offsetInCU: 0x2A029, offset: 0x2A029, size: 0x8, addend: 0x0, symName: __ZNSt3__114__split_bufferINS_4pairIx4vertEERNS_9allocatorIS3_EEED2Ev, symObjAddr: 0x1CCDC, symBinAddr: 0x100020058, symSize: 0xF4 }
  - { offsetInCU: 0x2A139, offset: 0x2A139, size: 0x8, addend: 0x0, symName: __ZNSt3__114__split_bufferINS_4pairIx4vertEERNS_9allocatorIS3_EEED1Ev, symObjAddr: 0x1B13C, symBinAddr: 0x10001E4B8, symSize: 0x48 }
  - { offsetInCU: 0x2A17F, offset: 0x2A17F, size: 0x8, addend: 0x0, symName: __ZNKSt3__16vectorINS_4pairIx4vertEENS_9allocatorIS3_EEE19__annotate_increaseB8ue170006Em, symObjAddr: 0x1A1F8, symBinAddr: 0x10001D574, symSize: 0x2D8 }
  - { offsetInCU: 0x2A2E5, offset: 0x2A2E5, size: 0x8, addend: 0x0, symName: __ZNKSt3__16vectorINS_4pairIx4vertEENS_9allocatorIS3_EEE8capacityB8ue170006Ev, symObjAddr: 0x1A4D0, symBinAddr: 0x10001D84C, symSize: 0x8C }
  - { offsetInCU: 0x2A320, offset: 0x2A320, size: 0x8, addend: 0x0, symName: __ZNKSt3__16vectorINS_4pairIx4vertEENS_9allocatorIS3_EEE9__end_capB8ue170006Ev, symObjAddr: 0x1A5E8, symBinAddr: 0x10001D964, symSize: 0x70 }
  - { offsetInCU: 0x2A355, offset: 0x2A355, size: 0x8, addend: 0x0, symName: __ZNKSt3__117__compressed_pairIPNS_4pairIx4vertEENS_9allocatorIS3_EEE5firstB8ue170006Ev, symObjAddr: 0x1A658, symBinAddr: 0x10001D9D4, symSize: 0xCC }
  - { offsetInCU: 0x2A45B, offset: 0x2A45B, size: 0x8, addend: 0x0, symName: __ZNKSt3__16vectorINS_4pairIx4vertEENS_9allocatorIS3_EEE17__annotate_shrinkB8ue170006Em, symObjAddr: 0x1AB5C, symBinAddr: 0x10001DED8, symSize: 0x25C }
  - { offsetInCU: 0x2A569, offset: 0x2A569, size: 0x8, addend: 0x0, symName: __ZNKSt3__16vectorINS_4pairIx4vertEENS_9allocatorIS3_EEE7__allocB8ue170006Ev, symObjAddr: 0x1B1C8, symBinAddr: 0x10001E544, symSize: 0x70 }
  - { offsetInCU: 0x2A59E, offset: 0x2A59E, size: 0x8, addend: 0x0, symName: __ZNKSt3__16vectorINS_4pairIx4vertEENS_9allocatorIS3_EEE20__throw_length_errorB8ue170006Ev, symObjAddr: 0x1B184, symBinAddr: 0x10001E500, symSize: 0x44 }
  - { offsetInCU: 0x2A5FE, offset: 0x2A5FE, size: 0x8, addend: 0x0, symName: __ZNKSt3__16vectorINS_4pairIx4vertEENS_9allocatorIS3_EEE17__annotate_deleteB8ue170006Ev, symObjAddr: 0x1B9E4, symBinAddr: 0x10001ED60, symSize: 0x270 }
  - { offsetInCU: 0x2A6F8, offset: 0x2A6F8, size: 0x8, addend: 0x0, symName: __ZNSt3__117__compressed_pairIPNS_4pairIx4vertEERNS_9allocatorIS3_EEE5firstB8ue170006Ev, symObjAddr: 0x1B918, symBinAddr: 0x10001EC94, symSize: 0xCC }
  - { offsetInCU: 0x2A73C, offset: 0x2A73C, size: 0x8, addend: 0x0, symName: __ZNKSt3__16vectorINS_4pairIx4vertEENS_9allocatorIS3_EEE14__annotate_newB8ue170006Em, symObjAddr: 0x1C078, symBinAddr: 0x10001F3F4, symSize: 0x280 }
  - { offsetInCU: 0x2A832, offset: 0x2A832, size: 0x8, addend: 0x0, symName: __ZNKSt3__117__compressed_pairIPNS_4pairIx4vertEENS_9allocatorIS3_EEE6secondB8ue170006Ev, symObjAddr: 0x1B238, symBinAddr: 0x10001E5B4, symSize: 0xD4 }
  - { offsetInCU: 0x2A8D3, offset: 0x2A8D3, size: 0x8, addend: 0x0, symName: __ZNSt3__117__compressed_pairIPNS_4pairIx4vertEERNS_9allocatorIS3_EEEC2B8ue170006IDnS7_EEOT_OT0_, symObjAddr: 0x1B71C, symBinAddr: 0x10001EA98, symSize: 0xFC }
  - { offsetInCU: 0x2A965, offset: 0x2A965, size: 0x8, addend: 0x0, symName: __ZNSt3__114__split_bufferINS_4pairIx4vertEERNS_9allocatorIS3_EEE7__allocB8ue170006Ev, symObjAddr: 0x1B6AC, symBinAddr: 0x10001EA28, symSize: 0x70 }
  - { offsetInCU: 0x2A9B6, offset: 0x2A9B6, size: 0x8, addend: 0x0, symName: __ZNSt3__117__compressed_pairIPNS_4pairIx4vertEERNS_9allocatorIS3_EEE6secondB8ue170006Ev, symObjAddr: 0x1B818, symBinAddr: 0x10001EB94, symSize: 0x100 }
  - { offsetInCU: 0x2ABA0, offset: 0x2ABA0, size: 0x8, addend: 0x0, symName: __ZNKSt3__116reverse_iteratorIPNS_4pairIx4vertEEEdeB8ue170006Ev, symObjAddr: 0x1C2F8, symBinAddr: 0x10001F674, symSize: 0xC0 }
  - { offsetInCU: 0x2ABD6, offset: 0x2ABD6, size: 0x8, addend: 0x0, symName: __ZNSt3__128__exception_guard_exceptionsINS_29_AllocatorDestroyRangeReverseINS_9allocatorINS_4pairIx4vertEEEENS_16reverse_iteratorIPS5_EEEEED2B8ue170006Ev, symObjAddr: 0x1C3B8, symBinAddr: 0x10001F734, symSize: 0xF4 }
  - { offsetInCU: 0x2AC15, offset: 0x2AC15, size: 0x8, addend: 0x0, symName: __ZNKSt3__129_AllocatorDestroyRangeReverseINS_9allocatorINS_4pairIx4vertEEEENS_16reverse_iteratorIPS4_EEEclB8ue170006Ev, symObjAddr: 0x1C4AC, symBinAddr: 0x10001F828, symSize: 0x334 }
  - { offsetInCU: 0x2AD3E, offset: 0x2AD3E, size: 0x8, addend: 0x0, symName: __ZNKSt3__116reverse_iteratorINS0_IPNS_4pairIx4vertEEEEEdeB8ue170006Ev, symObjAddr: 0x1CAEC, symBinAddr: 0x10001FE68, symSize: 0x1F0 }
  - { offsetInCU: 0x2ADA0, offset: 0x2ADA0, size: 0x8, addend: 0x0, symName: __ZNSt3__116reverse_iteratorINS0_IPNS_4pairIx4vertEEEEEppB8ue170006Ev, symObjAddr: 0x1C94C, symBinAddr: 0x10001FCC8, symSize: 0x1A0 }
  - { offsetInCU: 0x2AE61, offset: 0x2AE61, size: 0x8, addend: 0x0, symName: __ZNSt3__114__split_bufferINS_4pairIx4vertEERNS_9allocatorIS3_EEE5clearB8ue170006Ev, symObjAddr: 0x1CDD0, symBinAddr: 0x10002014C, symSize: 0xAC }
  - { offsetInCU: 0x2AEB5, offset: 0x2AEB5, size: 0x8, addend: 0x0, symName: __ZNKSt3__114__split_bufferINS_4pairIx4vertEERNS_9allocatorIS3_EEE8capacityB8ue170006Ev, symObjAddr: 0x1CE7C, symBinAddr: 0x1000201F8, symSize: 0x8C }
  - { offsetInCU: 0x2AF11, offset: 0x2AF11, size: 0x8, addend: 0x0, symName: __ZNSt3__114__split_bufferINS_4pairIx4vertEERNS_9allocatorIS3_EEE17__destruct_at_endB8ue170006EPS3_NS_17integral_constantIbLb0EEE, symObjAddr: 0x1CF08, symBinAddr: 0x100020284, symSize: 0x100 }
  - { offsetInCU: 0x2AF66, offset: 0x2AF66, size: 0x8, addend: 0x0, symName: __ZNKSt3__114__split_bufferINS_4pairIx4vertEERNS_9allocatorIS3_EEE9__end_capB8ue170006Ev, symObjAddr: 0x1D008, symBinAddr: 0x100020384, symSize: 0x70 }
  - { offsetInCU: 0x2AF9B, offset: 0x2AF9B, size: 0x8, addend: 0x0, symName: __ZNKSt3__117__compressed_pairIPNS_4pairIx4vertEERNS_9allocatorIS3_EEE5firstB8ue170006Ev, symObjAddr: 0x1D078, symBinAddr: 0x1000203F4, symSize: 0xCC }
  - { offsetInCU: 0x2B0AA, offset: 0x2B0AA, size: 0x8, addend: 0x0, symName: __ZNSt3__111__wrap_iterIPNS_4pairIx4vertEEEpLB8ue170006El, symObjAddr: 0x1D608, symBinAddr: 0x100020984, symSize: 0x13C }
  - { offsetInCU: 0x2B0E1, offset: 0x2B0E1, size: 0x8, addend: 0x0, symName: __ZNSt3__14pairIx4vertEaSB8ue170006EOS2_, symObjAddr: 0x1D510, symBinAddr: 0x10002088C, symSize: 0xF8 }
  - { offsetInCU: 0x2B12E, offset: 0x2B12E, size: 0x8, addend: 0x0, symName: __ZNSt3__16vectorINS_4pairIx4vertEENS_9allocatorIS3_EEE22__base_destruct_at_endB8ue170006EPS3_, symObjAddr: 0x1E24C, symBinAddr: 0x1000215C8, symSize: 0xE8 }
  - { offsetInCU: 0x2B232, offset: 0x2B232, size: 0x8, addend: 0x0, symName: __ZNSt3__16__treeINS_12__value_typeI4vertbEENS_19__map_value_compareIS2_S3_NS_4lessIS2_EELb1EEENS_9allocatorIS3_EEE12__find_equalIS2_EERPNS_16__tree_node_baseIPvEERPNS_15__tree_end_nodeISF_EERKT_, symObjAddr: 0x1E6E8, symBinAddr: 0x100021A64, symSize: 0x57C }
  - { offsetInCU: 0x2B361, offset: 0x2B361, size: 0x8, addend: 0x0, symName: __ZNSt3__16__treeINS_12__value_typeI4vertbEENS_19__map_value_compareIS2_S3_NS_4lessIS2_EELb1EEENS_9allocatorIS3_EEE16__construct_nodeIJRKNS_21piecewise_construct_tENS_5tupleIJRKS2_EEENSF_IJEEEEEENS_10unique_ptrINS_11__tree_nodeIS3_PvEENS_22__tree_node_destructorINS8_ISN_EEEEEEDpOT_, symObjAddr: 0x1EC64, symBinAddr: 0x100021FE0, symSize: 0x36C }
  - { offsetInCU: 0x2B573, offset: 0x2B573, size: 0x8, addend: 0x0, symName: __ZNKSt3__117__compressed_pairIPNS_11__tree_nodeINS_12__value_typeI4vertbEEPvEENS_22__tree_node_destructorINS_9allocatorIS6_EEEEE5firstB8ue170006Ev, symObjAddr: 0x201EC, symBinAddr: 0x100023568, symSize: 0xCC }
  - { offsetInCU: 0x2B5B7, offset: 0x2B5B7, size: 0x8, addend: 0x0, symName: __ZNSt3__16__treeINS_12__value_typeI4vertbEENS_19__map_value_compareIS2_S3_NS_4lessIS2_EELb1EEENS_9allocatorIS3_EEE16__insert_node_atEPNS_15__tree_end_nodeIPNS_16__tree_node_baseIPvEEEERSF_SF_, symObjAddr: 0x1EFD0, symBinAddr: 0x10002234C, symSize: 0x4BC }
  - { offsetInCU: 0x2B69C, offset: 0x2B69C, size: 0x8, addend: 0x0, symName: __ZNSt3__110unique_ptrINS_11__tree_nodeINS_12__value_typeI4vertbEEPvEENS_22__tree_node_destructorINS_9allocatorIS6_EEEEE7releaseB8ue170006Ev, symObjAddr: 0x1F48C, symBinAddr: 0x100022808, symSize: 0xC0 }
  - { offsetInCU: 0x2B6FC, offset: 0x2B6FC, size: 0x8, addend: 0x0, symName: __ZNSt3__110unique_ptrINS_11__tree_nodeINS_12__value_typeI4vertbEEPvEENS_22__tree_node_destructorINS_9allocatorIS6_EEEEE5resetB8ue170006EPS6_, symObjAddr: 0x20570, symBinAddr: 0x1000238EC, symSize: 0x104 }
  - { offsetInCU: 0x2B7CC, offset: 0x2B7CC, size: 0x8, addend: 0x0, symName: __ZNKSt3__16__treeINS_12__value_typeI4vertbEENS_19__map_value_compareIS2_S3_NS_4lessIS2_EELb1EEENS_9allocatorIS3_EEE6__rootB8ue170006Ev, symObjAddr: 0x1F5A8, symBinAddr: 0x100022924, symSize: 0xE4 }
  - { offsetInCU: 0x2B800, offset: 0x2B800, size: 0x8, addend: 0x0, symName: __ZNKSt3__16__treeINS_12__value_typeI4vertbEENS_19__map_value_compareIS2_S3_NS_4lessIS2_EELb1EEENS_9allocatorIS3_EEE10__end_nodeB8ue170006Ev, symObjAddr: 0x1F7DC, symBinAddr: 0x100022B58, symSize: 0x70 }
  - { offsetInCU: 0x2B835, offset: 0x2B835, size: 0x8, addend: 0x0, symName: __ZNSt3__16__treeINS_12__value_typeI4vertbEENS_19__map_value_compareIS2_S3_NS_4lessIS2_EELb1EEENS_9allocatorIS3_EEE10value_compB8ue170006Ev, symObjAddr: 0x1F68C, symBinAddr: 0x100022A08, symSize: 0x70 }
  - { offsetInCU: 0x2B86A, offset: 0x2B86A, size: 0x8, addend: 0x0, symName: __ZNKSt3__119__map_value_compareI4vertNS_12__value_typeIS1_bEENS_4lessIS1_EELb1EEclB8ue170006ERKS1_RKS3_, symObjAddr: 0x1F6FC, symBinAddr: 0x100022A78, symSize: 0x70 }
  - { offsetInCU: 0x2B8DF, offset: 0x2B8DF, size: 0x8, addend: 0x0, symName: __ZNKSt3__119__map_value_compareI4vertNS_12__value_typeIS1_bEENS_4lessIS1_EELb1EEclB8ue170006ERKS3_RKS1_, symObjAddr: 0x1F76C, symBinAddr: 0x100022AE8, symSize: 0x70 }
  - { offsetInCU: 0x2BA2B, offset: 0x2BA2B, size: 0x8, addend: 0x0, symName: __ZNSt3__16__treeINS_12__value_typeI4vertbEENS_19__map_value_compareIS2_S3_NS_4lessIS2_EELb1EEENS_9allocatorIS3_EEE12__node_allocB8ue170006Ev, symObjAddr: 0x1F9EC, symBinAddr: 0x100022D68, symSize: 0x70 }
  - { offsetInCU: 0x2BA66, offset: 0x2BA66, size: 0x8, addend: 0x0, symName: __ZNSt3__110unique_ptrINS_11__tree_nodeINS_12__value_typeI4vertbEEPvEENS_22__tree_node_destructorINS_9allocatorIS6_EEEEEC1B8ue170006ILb1EvEEPS6_NS_16__dependent_typeINS_27__unique_ptr_deleter_sfinaeISA_EEXT_EE20__good_rval_ref_typeE, symObjAddr: 0x1FA5C, symBinAddr: 0x100022DD8, symSize: 0x20C }
  - { offsetInCU: 0x2BB1C, offset: 0x2BB1C, size: 0x8, addend: 0x0, symName: __ZNSt3__116allocator_traitsINS_9allocatorINS_11__tree_nodeINS_12__value_typeI4vertbEEPvEEEEE9constructB8ue170006INS_4pairIKS4_bEEJRKNS_21piecewise_construct_tENS_5tupleIJRSC_EEENSH_IJEEEEvEEvRS8_PT_DpOT0_, symObjAddr: 0x1FC68, symBinAddr: 0x100022FE4, symSize: 0x230 }
  - { offsetInCU: 0x2BC17, offset: 0x2BC17, size: 0x8, addend: 0x0, symName: __ZNSt3__117__compressed_pairIPNS_11__tree_nodeINS_12__value_typeI4vertbEEPvEENS_22__tree_node_destructorINS_9allocatorIS6_EEEEE6secondB8ue170006Ev, symObjAddr: 0x202B8, symBinAddr: 0x100023634, symSize: 0xB0 }
  - { offsetInCU: 0x2BC5C, offset: 0x2BC5C, size: 0x8, addend: 0x0, symName: __ZNSt3__110unique_ptrINS_11__tree_nodeINS_12__value_typeI4vertbEEPvEENS_22__tree_node_destructorINS_9allocatorIS6_EEEEED1B8ue170006Ev, symObjAddr: 0x1F54C, symBinAddr: 0x1000228C8, symSize: 0x5C }
  - { offsetInCU: 0x2BCAE, offset: 0x2BCAE, size: 0x8, addend: 0x0, symName: __ZNSt3__16__treeINS_12__value_typeI4vertbEENS_19__map_value_compareIS2_S3_NS_4lessIS2_EELb1EEENS_9allocatorIS3_EEE4sizeB8ue170006Ev, symObjAddr: 0x20368, symBinAddr: 0x1000236E4, symSize: 0x70 }
  - { offsetInCU: 0x2BCE3, offset: 0x2BCE3, size: 0x8, addend: 0x0, symName: __ZNSt3__117__compressed_pairIPNS_11__tree_nodeINS_12__value_typeI4vertbEEPvEENS_22__tree_node_destructorINS_9allocatorIS6_EEEEE5firstB8ue170006Ev, symObjAddr: 0x204A4, symBinAddr: 0x100023820, symSize: 0xCC }
  - { offsetInCU: 0x2BD27, offset: 0x2BD27, size: 0x8, addend: 0x0, symName: __ZNSt3__117__compressed_pairImNS_19__map_value_compareI4vertNS_12__value_typeIS2_bEENS_4lessIS2_EELb1EEEE6secondB8ue170006Ev, symObjAddr: 0x1F918, symBinAddr: 0x100022C94, symSize: 0xD4 }
  - { offsetInCU: 0x2BD6A, offset: 0x2BD6A, size: 0x8, addend: 0x0, symName: __ZNKSt3__117__compressed_pairINS_15__tree_end_nodeIPNS_16__tree_node_baseIPvEEEENS_9allocatorINS_11__tree_nodeINS_12__value_typeI4vertbEES3_EEEEE5firstB8ue170006Ev, symObjAddr: 0x1F84C, symBinAddr: 0x100022BC8, symSize: 0xCC }
  - { offsetInCU: 0x2BDC4, offset: 0x2BDC4, size: 0x8, addend: 0x0, symName: __ZNSt3__117__compressed_pairINS_15__tree_end_nodeIPNS_16__tree_node_baseIPvEEEENS_9allocatorINS_11__tree_nodeINS_12__value_typeI4vertbEES3_EEEEE6secondB8ue170006Ev, symObjAddr: 0x1FE98, symBinAddr: 0x100023214, symSize: 0xD4 }
  - { offsetInCU: 0x2BE84, offset: 0x2BE84, size: 0x8, addend: 0x0, symName: __ZNSt3__117__compressed_pairIPNS_11__tree_nodeINS_12__value_typeI4vertbEEPvEENS_22__tree_node_destructorINS_9allocatorIS6_EEEEEC2B8ue170006IRS7_SB_EEOT_OT0_, symObjAddr: 0x1FF6C, symBinAddr: 0x1000232E8, symSize: 0x104 }
  - { offsetInCU: 0x2C03E, offset: 0x2C03E, size: 0x8, addend: 0x0, symName: __ZNSt3__14pairIK4vertbEC2B8ue170006IJRS2_EJEJLm0EEJEEENS_21piecewise_construct_tERNS_5tupleIJDpT_EEERNS7_IJDpT0_EEENS_15__tuple_indicesIJXspT1_EEEENSG_IJXspT2_EEEE, symObjAddr: 0x20070, symBinAddr: 0x1000233EC, symSize: 0x17C }
  - { offsetInCU: 0x2C18A, offset: 0x2C18A, size: 0x8, addend: 0x0, symName: __ZNSt3__117__compressed_pairImNS_19__map_value_compareI4vertNS_12__value_typeIS2_bEENS_4lessIS2_EELb1EEEE5firstB8ue170006Ev, symObjAddr: 0x203D8, symBinAddr: 0x100023754, symSize: 0xCC }
  - { offsetInCU: 0x2C1E4, offset: 0x2C1E4, size: 0x8, addend: 0x0, symName: __ZNSt3__122__tree_node_destructorINS_9allocatorINS_11__tree_nodeINS_12__value_typeI4vertbEEPvEEEEEclB8ue170006EPS7_, symObjAddr: 0x20674, symBinAddr: 0x1000239F0, symSize: 0x1C8 }
  - { offsetInCU: 0x2C320, offset: 0x2C320, size: 0x8, addend: 0x0, symName: __ZNSt3__16__treeINS_12__value_typeI4vertNS_6vectorINS_4pairIS2_xEENS_9allocatorIS5_EEEEEENS_19__map_value_compareIS2_S9_NS_4lessIS2_EELb1EEENS6_IS9_EEE16__construct_nodeIJRKNS_21piecewise_construct_tENS_5tupleIJRKS2_EEENSK_IJEEEEEENS_10unique_ptrINS_11__tree_nodeIS9_PvEENS_22__tree_node_destructorINS6_ISS_EEEEEEDpOT_, symObjAddr: 0x20B14, symBinAddr: 0x100023E90, symSize: 0x36C }
  - { offsetInCU: 0x2C532, offset: 0x2C532, size: 0x8, addend: 0x0, symName: __ZNSt3__116allocator_traitsINS_9allocatorINS_11__tree_nodeINS_12__value_typeI4vertNS_6vectorINS_4pairIS4_xEENS1_IS7_EEEEEEPvEEEEE9constructB8ue170006INS6_IKS4_S9_EEJRKNS_21piecewise_construct_tENS_5tupleIJRSG_EEENSL_IJEEEEvEEvRSD_PT_DpOT0_, symObjAddr: 0x20E80, symBinAddr: 0x1000241FC, symSize: 0x230 }
  - { offsetInCU: 0x2C74C, offset: 0x2C74C, size: 0x8, addend: 0x0, symName: __ZNSt3__14pairIK4vertNS_6vectorINS0_IS1_xEENS_9allocatorIS4_EEEEEC2B8ue170006IJRS2_EJEJLm0EEJEEENS_21piecewise_construct_tERNS_5tupleIJDpT_EEERNSC_IJDpT0_EEENS_15__tuple_indicesIJXspT1_EEEENSL_IJXspT2_EEEE, symObjAddr: 0x210B0, symBinAddr: 0x10002442C, symSize: 0x2E4 }
  - { offsetInCU: 0x2C913, offset: 0x2C913, size: 0x8, addend: 0x0, symName: __ZNSt3__16__treeINS_12__value_typeI4vertS2_EENS_19__map_value_compareIS2_S3_NS_4lessIS2_EELb1EEENS_9allocatorIS3_EEE12__find_equalIS2_EERPNS_16__tree_node_baseIPvEERPNS_15__tree_end_nodeISF_EERKT_, symObjAddr: 0x217A0, symBinAddr: 0x100024B1C, symSize: 0x57C }
  - { offsetInCU: 0x2CA42, offset: 0x2CA42, size: 0x8, addend: 0x0, symName: __ZNSt3__16__treeINS_12__value_typeI4vertS2_EENS_19__map_value_compareIS2_S3_NS_4lessIS2_EELb1EEENS_9allocatorIS3_EEE16__construct_nodeIJRKNS_21piecewise_construct_tENS_5tupleIJRKS2_EEENSF_IJEEEEEENS_10unique_ptrINS_11__tree_nodeIS3_PvEENS_22__tree_node_destructorINS8_ISN_EEEEEEDpOT_, symObjAddr: 0x21D1C, symBinAddr: 0x100025098, symSize: 0x36C }
  - { offsetInCU: 0x2CC54, offset: 0x2CC54, size: 0x8, addend: 0x0, symName: __ZNKSt3__117__compressed_pairIPNS_11__tree_nodeINS_12__value_typeI4vertS3_EEPvEENS_22__tree_node_destructorINS_9allocatorIS6_EEEEE5firstB8ue170006Ev, symObjAddr: 0x22F44, symBinAddr: 0x1000262C0, symSize: 0xCC }
  - { offsetInCU: 0x2CC98, offset: 0x2CC98, size: 0x8, addend: 0x0, symName: __ZNSt3__16__treeINS_12__value_typeI4vertS2_EENS_19__map_value_compareIS2_S3_NS_4lessIS2_EELb1EEENS_9allocatorIS3_EEE16__insert_node_atEPNS_15__tree_end_nodeIPNS_16__tree_node_baseIPvEEEERSF_SF_, symObjAddr: 0x22088, symBinAddr: 0x100025404, symSize: 0x4BC }
  - { offsetInCU: 0x2CD7D, offset: 0x2CD7D, size: 0x8, addend: 0x0, symName: __ZNSt3__110unique_ptrINS_11__tree_nodeINS_12__value_typeI4vertS3_EEPvEENS_22__tree_node_destructorINS_9allocatorIS6_EEEEE7releaseB8ue170006Ev, symObjAddr: 0x22544, symBinAddr: 0x1000258C0, symSize: 0xC0 }
  - { offsetInCU: 0x2CDDD, offset: 0x2CDDD, size: 0x8, addend: 0x0, symName: __ZNSt3__110unique_ptrINS_11__tree_nodeINS_12__value_typeI4vertS3_EEPvEENS_22__tree_node_destructorINS_9allocatorIS6_EEEEE5resetB8ue170006EPS6_, symObjAddr: 0x232C8, symBinAddr: 0x100026644, symSize: 0x104 }
  - { offsetInCU: 0x2CEAD, offset: 0x2CEAD, size: 0x8, addend: 0x0, symName: __ZNSt3__16__treeINS_12__value_typeI4vertS2_EENS_19__map_value_compareIS2_S3_NS_4lessIS2_EELb1EEENS_9allocatorIS3_EEE10value_compB8ue170006Ev, symObjAddr: 0x22660, symBinAddr: 0x1000259DC, symSize: 0x70 }
  - { offsetInCU: 0x2CEE2, offset: 0x2CEE2, size: 0x8, addend: 0x0, symName: __ZNKSt3__119__map_value_compareI4vertNS_12__value_typeIS1_S1_EENS_4lessIS1_EELb1EEclB8ue170006ERKS1_RKS3_, symObjAddr: 0x226D0, symBinAddr: 0x100025A4C, symSize: 0x70 }
  - { offsetInCU: 0x2CF57, offset: 0x2CF57, size: 0x8, addend: 0x0, symName: __ZNKSt3__119__map_value_compareI4vertNS_12__value_typeIS1_S1_EENS_4lessIS1_EELb1EEclB8ue170006ERKS3_RKS1_, symObjAddr: 0x22740, symBinAddr: 0x100025ABC, symSize: 0x70 }
  - { offsetInCU: 0x2D0A9, offset: 0x2D0A9, size: 0x8, addend: 0x0, symName: __ZNSt3__110unique_ptrINS_11__tree_nodeINS_12__value_typeI4vertS3_EEPvEENS_22__tree_node_destructorINS_9allocatorIS6_EEEEEC1B8ue170006ILb1EvEEPS6_NS_16__dependent_typeINS_27__unique_ptr_deleter_sfinaeISA_EEXT_EE20__good_rval_ref_typeE, symObjAddr: 0x22884, symBinAddr: 0x100025C00, symSize: 0x20C }
  - { offsetInCU: 0x2D15F, offset: 0x2D15F, size: 0x8, addend: 0x0, symName: __ZNSt3__116allocator_traitsINS_9allocatorINS_11__tree_nodeINS_12__value_typeI4vertS4_EEPvEEEEE9constructB8ue170006INS_4pairIKS4_S4_EEJRKNS_21piecewise_construct_tENS_5tupleIJRSC_EEENSH_IJEEEEvEEvRS8_PT_DpOT0_, symObjAddr: 0x22A90, symBinAddr: 0x100025E0C, symSize: 0x230 }
  - { offsetInCU: 0x2D25A, offset: 0x2D25A, size: 0x8, addend: 0x0, symName: __ZNSt3__117__compressed_pairIPNS_11__tree_nodeINS_12__value_typeI4vertS3_EEPvEENS_22__tree_node_destructorINS_9allocatorIS6_EEEEE6secondB8ue170006Ev, symObjAddr: 0x23010, symBinAddr: 0x10002638C, symSize: 0xB0 }
  - { offsetInCU: 0x2D29F, offset: 0x2D29F, size: 0x8, addend: 0x0, symName: __ZNSt3__110unique_ptrINS_11__tree_nodeINS_12__value_typeI4vertS3_EEPvEENS_22__tree_node_destructorINS_9allocatorIS6_EEEEED1B8ue170006Ev, symObjAddr: 0x22604, symBinAddr: 0x100025980, symSize: 0x5C }
  - { offsetInCU: 0x2D2F1, offset: 0x2D2F1, size: 0x8, addend: 0x0, symName: __ZNSt3__16__treeINS_12__value_typeI4vertS2_EENS_19__map_value_compareIS2_S3_NS_4lessIS2_EELb1EEENS_9allocatorIS3_EEE4sizeB8ue170006Ev, symObjAddr: 0x230C0, symBinAddr: 0x10002643C, symSize: 0x70 }
  - { offsetInCU: 0x2D326, offset: 0x2D326, size: 0x8, addend: 0x0, symName: __ZNSt3__117__compressed_pairIPNS_11__tree_nodeINS_12__value_typeI4vertS3_EEPvEENS_22__tree_node_destructorINS_9allocatorIS6_EEEEE5firstB8ue170006Ev, symObjAddr: 0x231FC, symBinAddr: 0x100026578, symSize: 0xCC }
  - { offsetInCU: 0x2D36A, offset: 0x2D36A, size: 0x8, addend: 0x0, symName: __ZNSt3__117__compressed_pairImNS_19__map_value_compareI4vertNS_12__value_typeIS2_S2_EENS_4lessIS2_EELb1EEEE6secondB8ue170006Ev, symObjAddr: 0x227B0, symBinAddr: 0x100025B2C, symSize: 0xD4 }
  - { offsetInCU: 0x2D440, offset: 0x2D440, size: 0x8, addend: 0x0, symName: __ZNSt3__117__compressed_pairIPNS_11__tree_nodeINS_12__value_typeI4vertS3_EEPvEENS_22__tree_node_destructorINS_9allocatorIS6_EEEEEC2B8ue170006IRS7_SB_EEOT_OT0_, symObjAddr: 0x22CC0, symBinAddr: 0x10002603C, symSize: 0x104 }
  - { offsetInCU: 0x2D5FA, offset: 0x2D5FA, size: 0x8, addend: 0x0, symName: __ZNSt3__14pairIK4vertS1_EC2B8ue170006IJRS2_EJEJLm0EEJEEENS_21piecewise_construct_tERNS_5tupleIJDpT_EEERNS7_IJDpT0_EEENS_15__tuple_indicesIJXspT1_EEEENSG_IJXspT2_EEEE, symObjAddr: 0x22DC4, symBinAddr: 0x100026140, symSize: 0x180 }
  - { offsetInCU: 0x2D79D, offset: 0x2D79D, size: 0x8, addend: 0x0, symName: __ZNSt3__117__compressed_pairImNS_19__map_value_compareI4vertNS_12__value_typeIS2_S2_EENS_4lessIS2_EELb1EEEE5firstB8ue170006Ev, symObjAddr: 0x23130, symBinAddr: 0x1000264AC, symSize: 0xCC }
  - { offsetInCU: 0x2D7F7, offset: 0x2D7F7, size: 0x8, addend: 0x0, symName: __ZNSt3__122__tree_node_destructorINS_9allocatorINS_11__tree_nodeINS_12__value_typeI4vertS4_EEPvEEEEEclB8ue170006EPS7_, symObjAddr: 0x233CC, symBinAddr: 0x100026748, symSize: 0x1C8 }
  - { offsetInCU: 0x2D8DB, offset: 0x2D8DB, size: 0x8, addend: 0x0, symName: __ZNSt3__16vectorINS_4pairIx4vertEENS_9allocatorIS3_EEE22__construct_one_at_endB8ue170006IJRxRS2_EEEvDpOT_, symObjAddr: 0x23654, symBinAddr: 0x1000269D0, symSize: 0x298 }
  - { offsetInCU: 0x2DA4B, offset: 0x2DA4B, size: 0x8, addend: 0x0, symName: __ZNSt3__16vectorINS_4pairIx4vertEENS_9allocatorIS3_EEE24__emplace_back_slow_pathIJRxRS2_EEEvDpOT_, symObjAddr: 0x238EC, symBinAddr: 0x100026C68, symSize: 0x2D0 }
  - { offsetInCU: 0x2DC67, offset: 0x2DC67, size: 0x8, addend: 0x0, symName: __ZNSt3__19allocatorINS_4pairIx4vertEEE9constructB8ue170006IS3_JRxRS2_EEEvPT_DpOT0_, symObjAddr: 0x23BBC, symBinAddr: 0x100026F38, symSize: 0x150 }
  - { offsetInCU: 0x2DE03, offset: 0x2DE03, size: 0x8, addend: 0x0, symName: __ZNSt3__13mapI4vertxNS_4lessIS1_EENS_9allocatorINS_4pairIKS1_xEEEEEC2B8ue170006ERKS9_, symObjAddr: 0x23DC0, symBinAddr: 0x10002713C, symSize: 0xA0 }
  - { offsetInCU: 0x2DEE3, offset: 0x2DEE3, size: 0x8, addend: 0x0, symName: __ZNSt3__13mapI4vertS1_NS_4lessIS1_EENS_9allocatorINS_4pairIKS1_S1_EEEEEC2B8ue170006ERKS9_, symObjAddr: 0x262E8, symBinAddr: 0x100029664, symSize: 0xA0 }
  - { offsetInCU: 0x2E001, offset: 0x2E001, size: 0x8, addend: 0x0, symName: __ZNSt3__16__treeINS_12__value_typeI4vertxEENS_19__map_value_compareIS2_S3_NS_4lessIS2_EELb1EEENS_9allocatorIS3_EEEC2ERKSA_, symObjAddr: 0x24110, symBinAddr: 0x10002748C, symSize: 0x2F4 }
  - { offsetInCU: 0x2E16E, offset: 0x2E16E, size: 0x8, addend: 0x0, symName: __ZNKSt3__16__treeINS_12__value_typeI4vertxEENS_19__map_value_compareIS2_S3_NS_4lessIS2_EELb1EEENS_9allocatorIS3_EEE5beginB8ue170006Ev, symObjAddr: 0x2625C, symBinAddr: 0x1000295D8, symSize: 0x8C }
  - { offsetInCU: 0x2E1B4, offset: 0x2E1B4, size: 0x8, addend: 0x0, symName: __ZNKSt3__13mapI4vertxNS_4lessIS1_EENS_9allocatorINS_4pairIKS1_xEEEEE3endB8ue170006Ev, symObjAddr: 0x240A8, symBinAddr: 0x100027424, symSize: 0x68 }
  - { offsetInCU: 0x2E200, offset: 0x2E200, size: 0x8, addend: 0x0, symName: __ZNSt3__13mapI4vertxNS_4lessIS1_EENS_9allocatorINS_4pairIKS1_xEEEEE6insertB8ue170006INS_20__map_const_iteratorINS_21__tree_const_iteratorINS_12__value_typeIS1_xEEPNS_11__tree_nodeISE_PvEElEEEEEEvT_SL_, symObjAddr: 0x23E60, symBinAddr: 0x1000271DC, symSize: 0x248 }
  - { offsetInCU: 0x2E377, offset: 0x2E377, size: 0x8, addend: 0x0, symName: __ZNKSt3__120__map_const_iteratorINS_21__tree_const_iteratorINS_12__value_typeI4vertxEEPNS_11__tree_nodeIS4_PvEElEEEdeB8ue170006Ev, symObjAddr: 0x24744, symBinAddr: 0x100027AC0, symSize: 0xAC }
  - { offsetInCU: 0x2E3C9, offset: 0x2E3C9, size: 0x8, addend: 0x0, symName: __ZNSt3__16__treeINS_12__value_typeI4vertxEENS_19__map_value_compareIS2_S3_NS_4lessIS2_EELb1EEENS_9allocatorIS3_EEE15__insert_uniqueB8ue170006ENS_21__tree_const_iteratorIS3_PNS_11__tree_nodeIS3_PvEElEERKNS_4pairIKS2_xEE, symObjAddr: 0x24860, symBinAddr: 0x100027BDC, symSize: 0x54 }
  - { offsetInCU: 0x2E41E, offset: 0x2E41E, size: 0x8, addend: 0x0, symName: __ZNSt3__120__map_const_iteratorINS_21__tree_const_iteratorINS_12__value_typeI4vertxEEPNS_11__tree_nodeIS4_PvEElEEEppB8ue170006Ev, symObjAddr: 0x247F0, symBinAddr: 0x100027B6C, symSize: 0x70 }
  - { offsetInCU: 0x2E50D, offset: 0x2E50D, size: 0x8, addend: 0x0, symName: __ZNKSt3__117__compressed_pairINS_15__tree_end_nodeIPNS_16__tree_node_baseIPvEEEENS_9allocatorINS_11__tree_nodeINS_12__value_typeI4vertxEES3_EEEEE6secondB8ue170006Ev, symObjAddr: 0x24474, symBinAddr: 0x1000277F0, symSize: 0xD4 }
  - { offsetInCU: 0x2E550, offset: 0x2E550, size: 0x8, addend: 0x0, symName: __ZNSt3__117__compressed_pairINS_15__tree_end_nodeIPNS_16__tree_node_baseIPvEEEENS_9allocatorINS_11__tree_nodeINS_12__value_typeI4vertxEES3_EEEEEC2B8ue170006INS_18__default_init_tagESD_EEOT_OT0_, symObjAddr: 0x24548, symBinAddr: 0x1000278C4, symSize: 0xD0 }
  - { offsetInCU: 0x2E5F0, offset: 0x2E5F0, size: 0x8, addend: 0x0, symName: __ZNKSt3__117__compressed_pairImNS_19__map_value_compareI4vertNS_12__value_typeIS2_xEENS_4lessIS2_EELb1EEEE6secondB8ue170006Ev, symObjAddr: 0x24618, symBinAddr: 0x100027994, symSize: 0xD4 }
  - { offsetInCU: 0x2E633, offset: 0x2E633, size: 0x8, addend: 0x0, symName: __ZNKSt3__16__treeINS_12__value_typeI4vertxEENS_19__map_value_compareIS2_S3_NS_4lessIS2_EELb1EEENS_9allocatorIS3_EEE10value_compB8ue170006Ev, symObjAddr: 0x24404, symBinAddr: 0x100027780, symSize: 0x70 }
  - { offsetInCU: 0x2E6D9, offset: 0x2E6D9, size: 0x8, addend: 0x0, symName: __ZNKSt3__121__tree_const_iteratorINS_12__value_typeI4vertxEEPNS_11__tree_nodeIS3_PvEElEptB8ue170006Ev, symObjAddr: 0x26180, symBinAddr: 0x1000294FC, symSize: 0xDC }
  - { offsetInCU: 0x2E717, offset: 0x2E717, size: 0x8, addend: 0x0, symName: __ZNSt3__121__tree_const_iteratorINS_12__value_typeI4vertxEEPNS_11__tree_nodeIS3_PvEElEppB8ue170006Ev, symObjAddr: 0x25C8C, symBinAddr: 0x100029008, symSize: 0xD8 }
  - { offsetInCU: 0x2E74B, offset: 0x2E74B, size: 0x8, addend: 0x0, symName: __ZNSt3__16__treeINS_12__value_typeI4vertxEENS_19__map_value_compareIS2_S3_NS_4lessIS2_EELb1EEENS_9allocatorIS3_EEE30__emplace_hint_unique_key_argsIS2_JRKNS_4pairIKS2_xEEEEENSC_INS_15__tree_iteratorIS3_PNS_11__tree_nodeIS3_PvEElEEbEENS_21__tree_const_iteratorIS3_SL_lEERKT_DpOT0_, symObjAddr: 0x248B4, symBinAddr: 0x100027C30, symSize: 0x2F8 }
  - { offsetInCU: 0x2E949, offset: 0x2E949, size: 0x8, addend: 0x0, symName: __ZNSt3__16__treeINS_12__value_typeI4vertxEENS_19__map_value_compareIS2_S3_NS_4lessIS2_EELb1EEENS_9allocatorIS3_EEE12__find_equalIS2_EERPNS_16__tree_node_baseIPvEENS_21__tree_const_iteratorIS3_PNS_11__tree_nodeIS3_SD_EElEERPNS_15__tree_end_nodeISF_EESG_RKT_, symObjAddr: 0x24BAC, symBinAddr: 0x100027F28, symSize: 0x7BC }
  - { offsetInCU: 0x2EC87, offset: 0x2EC87, size: 0x8, addend: 0x0, symName: __ZNSt3__16__treeINS_12__value_typeI4vertxEENS_19__map_value_compareIS2_S3_NS_4lessIS2_EELb1EEENS_9allocatorIS3_EEE16__construct_nodeIJRKNS_4pairIKS2_xEEEEENS_10unique_ptrINS_11__tree_nodeIS3_PvEENS_22__tree_node_destructorINS8_ISK_EEEEEEDpOT_, symObjAddr: 0x25368, symBinAddr: 0x1000286E4, symSize: 0x310 }
  - { offsetInCU: 0x2EEAD, offset: 0x2EEAD, size: 0x8, addend: 0x0, symName: __ZNKSt3__121__tree_const_iteratorINS_12__value_typeI4vertxEEPNS_11__tree_nodeIS3_PvEElEdeB8ue170006Ev, symObjAddr: 0x25678, symBinAddr: 0x1000289F4, symSize: 0xDC }
  - { offsetInCU: 0x2EEEB, offset: 0x2EEEB, size: 0x8, addend: 0x0, symName: __ZNSt3__16__treeINS_12__value_typeI4vertxEENS_19__map_value_compareIS2_S3_NS_4lessIS2_EELb1EEENS_9allocatorIS3_EEE5beginB8ue170006Ev, symObjAddr: 0x25754, symBinAddr: 0x100028AD0, symSize: 0x8C }
  - { offsetInCU: 0x2EF31, offset: 0x2EF31, size: 0x8, addend: 0x0, symName: __ZNSt3__121__tree_const_iteratorINS_12__value_typeI4vertxEEPNS_11__tree_nodeIS3_PvEElEmmB8ue170006Ev, symObjAddr: 0x257E0, symBinAddr: 0x100028B5C, symSize: 0xDC }
  - { offsetInCU: 0x2F040, offset: 0x2F040, size: 0x8, addend: 0x0, symName: __ZNSt3__16__treeINS_12__value_typeI4vertS2_EENS_19__map_value_compareIS2_S3_NS_4lessIS2_EELb1EEENS_9allocatorIS3_EEEC2ERKSA_, symObjAddr: 0x26638, symBinAddr: 0x1000299B4, symSize: 0x2F4 }
  - { offsetInCU: 0x2F1AD, offset: 0x2F1AD, size: 0x8, addend: 0x0, symName: __ZNKSt3__16__treeINS_12__value_typeI4vertS2_EENS_19__map_value_compareIS2_S3_NS_4lessIS2_EELb1EEENS_9allocatorIS3_EEE5beginB8ue170006Ev, symObjAddr: 0x27F28, symBinAddr: 0x10002B2A4, symSize: 0x8C }
  - { offsetInCU: 0x2F1F3, offset: 0x2F1F3, size: 0x8, addend: 0x0, symName: __ZNKSt3__13mapI4vertS1_NS_4lessIS1_EENS_9allocatorINS_4pairIKS1_S1_EEEEE3endB8ue170006Ev, symObjAddr: 0x265D0, symBinAddr: 0x10002994C, symSize: 0x68 }
  - { offsetInCU: 0x2F23F, offset: 0x2F23F, size: 0x8, addend: 0x0, symName: __ZNSt3__13mapI4vertS1_NS_4lessIS1_EENS_9allocatorINS_4pairIKS1_S1_EEEEE6insertB8ue170006INS_20__map_const_iteratorINS_21__tree_const_iteratorINS_12__value_typeIS1_S1_EEPNS_11__tree_nodeISE_PvEElEEEEEEvT_SL_, symObjAddr: 0x26388, symBinAddr: 0x100029704, symSize: 0x248 }
  - { offsetInCU: 0x2F3B6, offset: 0x2F3B6, size: 0x8, addend: 0x0, symName: __ZNKSt3__120__map_const_iteratorINS_21__tree_const_iteratorINS_12__value_typeI4vertS3_EEPNS_11__tree_nodeIS4_PvEElEEEdeB8ue170006Ev, symObjAddr: 0x26BFC, symBinAddr: 0x100029F78, symSize: 0xAC }
  - { offsetInCU: 0x2F408, offset: 0x2F408, size: 0x8, addend: 0x0, symName: __ZNSt3__16__treeINS_12__value_typeI4vertS2_EENS_19__map_value_compareIS2_S3_NS_4lessIS2_EELb1EEENS_9allocatorIS3_EEE15__insert_uniqueB8ue170006ENS_21__tree_const_iteratorIS3_PNS_11__tree_nodeIS3_PvEElEERKNS_4pairIKS2_S2_EE, symObjAddr: 0x26D18, symBinAddr: 0x10002A094, symSize: 0x54 }
  - { offsetInCU: 0x2F45D, offset: 0x2F45D, size: 0x8, addend: 0x0, symName: __ZNSt3__120__map_const_iteratorINS_21__tree_const_iteratorINS_12__value_typeI4vertS3_EEPNS_11__tree_nodeIS4_PvEElEEEppB8ue170006Ev, symObjAddr: 0x26CA8, symBinAddr: 0x10002A024, symSize: 0x70 }
  - { offsetInCU: 0x2F54C, offset: 0x2F54C, size: 0x8, addend: 0x0, symName: __ZNKSt3__117__compressed_pairINS_15__tree_end_nodeIPNS_16__tree_node_baseIPvEEEENS_9allocatorINS_11__tree_nodeINS_12__value_typeI4vertSA_EES3_EEEEE6secondB8ue170006Ev, symObjAddr: 0x2692C, symBinAddr: 0x100029CA8, symSize: 0xD4 }
  - { offsetInCU: 0x2F58F, offset: 0x2F58F, size: 0x8, addend: 0x0, symName: __ZNSt3__117__compressed_pairINS_15__tree_end_nodeIPNS_16__tree_node_baseIPvEEEENS_9allocatorINS_11__tree_nodeINS_12__value_typeI4vertSA_EES3_EEEEEC2B8ue170006INS_18__default_init_tagESD_EEOT_OT0_, symObjAddr: 0x26A00, symBinAddr: 0x100029D7C, symSize: 0xD0 }
  - { offsetInCU: 0x2F62F, offset: 0x2F62F, size: 0x8, addend: 0x0, symName: __ZNKSt3__117__compressed_pairImNS_19__map_value_compareI4vertNS_12__value_typeIS2_S2_EENS_4lessIS2_EELb1EEEE6secondB8ue170006Ev, symObjAddr: 0x26AD0, symBinAddr: 0x100029E4C, symSize: 0xD4 }
  - { offsetInCU: 0x2F6C6, offset: 0x2F6C6, size: 0x8, addend: 0x0, symName: __ZNKSt3__121__tree_const_iteratorINS_12__value_typeI4vertS2_EEPNS_11__tree_nodeIS3_PvEElEptB8ue170006Ev, symObjAddr: 0x27E4C, symBinAddr: 0x10002B1C8, symSize: 0xDC }
  - { offsetInCU: 0x2F704, offset: 0x2F704, size: 0x8, addend: 0x0, symName: __ZNSt3__121__tree_const_iteratorINS_12__value_typeI4vertS2_EEPNS_11__tree_nodeIS3_PvEElEppB8ue170006Ev, symObjAddr: 0x27D74, symBinAddr: 0x10002B0F0, symSize: 0xD8 }
  - { offsetInCU: 0x2F738, offset: 0x2F738, size: 0x8, addend: 0x0, symName: __ZNSt3__16__treeINS_12__value_typeI4vertS2_EENS_19__map_value_compareIS2_S3_NS_4lessIS2_EELb1EEENS_9allocatorIS3_EEE30__emplace_hint_unique_key_argsIS2_JRKNS_4pairIKS2_S2_EEEEENSC_INS_15__tree_iteratorIS3_PNS_11__tree_nodeIS3_PvEElEEbEENS_21__tree_const_iteratorIS3_SL_lEERKT_DpOT0_, symObjAddr: 0x26D6C, symBinAddr: 0x10002A0E8, symSize: 0x2F8 }
  - { offsetInCU: 0x2F936, offset: 0x2F936, size: 0x8, addend: 0x0, symName: __ZNSt3__16__treeINS_12__value_typeI4vertS2_EENS_19__map_value_compareIS2_S3_NS_4lessIS2_EELb1EEENS_9allocatorIS3_EEE12__find_equalIS2_EERPNS_16__tree_node_baseIPvEENS_21__tree_const_iteratorIS3_PNS_11__tree_nodeIS3_SD_EElEERPNS_15__tree_end_nodeISF_EESG_RKT_, symObjAddr: 0x27064, symBinAddr: 0x10002A3E0, symSize: 0x7BC }
  - { offsetInCU: 0x2FC74, offset: 0x2FC74, size: 0x8, addend: 0x0, symName: __ZNSt3__16__treeINS_12__value_typeI4vertS2_EENS_19__map_value_compareIS2_S3_NS_4lessIS2_EELb1EEENS_9allocatorIS3_EEE16__construct_nodeIJRKNS_4pairIKS2_S2_EEEEENS_10unique_ptrINS_11__tree_nodeIS3_PvEENS_22__tree_node_destructorINS8_ISK_EEEEEEDpOT_, symObjAddr: 0x27820, symBinAddr: 0x10002AB9C, symSize: 0x310 }
  - { offsetInCU: 0x2FE9A, offset: 0x2FE9A, size: 0x8, addend: 0x0, symName: __ZNKSt3__121__tree_const_iteratorINS_12__value_typeI4vertS2_EEPNS_11__tree_nodeIS3_PvEElEdeB8ue170006Ev, symObjAddr: 0x27B30, symBinAddr: 0x10002AEAC, symSize: 0xDC }
  - { offsetInCU: 0x2FED8, offset: 0x2FED8, size: 0x8, addend: 0x0, symName: __ZNSt3__16__treeINS_12__value_typeI4vertS2_EENS_19__map_value_compareIS2_S3_NS_4lessIS2_EELb1EEENS_9allocatorIS3_EEE5beginB8ue170006Ev, symObjAddr: 0x27C0C, symBinAddr: 0x10002AF88, symSize: 0x8C }
  - { offsetInCU: 0x2FF1E, offset: 0x2FF1E, size: 0x8, addend: 0x0, symName: __ZNSt3__121__tree_const_iteratorINS_12__value_typeI4vertS2_EEPNS_11__tree_nodeIS3_PvEElEmmB8ue170006Ev, symObjAddr: 0x27C98, symBinAddr: 0x10002B014, symSize: 0xDC }
  - { offsetInCU: 0x3001B, offset: 0x3001B, size: 0x8, addend: 0x0, symName: __ZNSt3__16__treeINS_12__value_typeI4vertbEENS_19__map_value_compareIS2_S3_NS_4lessIS2_EELb1EEENS_9allocatorIS3_EEE7destroyEPNS_11__tree_nodeIS3_PvEE, symObjAddr: 0x28258, symBinAddr: 0x10002B5D4, symSize: 0x1D0 }
  - { offsetInCU: 0x3016E, offset: 0x3016E, size: 0x8, addend: 0x0, symName: __ZNSt3__13mapI4vertxNS_4lessIS1_EENS_9allocatorINS_4pairIKS1_xEEEEE3endB8ue170006Ev, symObjAddr: 0x28704, symBinAddr: 0x10002BA80, symSize: 0x68 }
  - { offsetInCU: 0x301BA, offset: 0x301BA, size: 0x8, addend: 0x0, symName: __ZNKSt3__114__map_iteratorINS_15__tree_iteratorINS_12__value_typeI4vertxEEPNS_11__tree_nodeIS4_PvEElEEEdeB8ue170006Ev, symObjAddr: 0x287C4, symBinAddr: 0x10002BB40, symSize: 0xAC }
  - { offsetInCU: 0x3020C, offset: 0x3020C, size: 0x8, addend: 0x0, symName: __ZNSt3__114__map_iteratorINS_15__tree_iteratorINS_12__value_typeI4vertxEEPNS_11__tree_nodeIS4_PvEElEEEppB8ue170006Ev, symObjAddr: 0x28B2C, symBinAddr: 0x10002BEA8, symSize: 0x70 }
  - { offsetInCU: 0x30261, offset: 0x30261, size: 0x8, addend: 0x0, symName: __ZNSt3__115__tree_iteratorINS_12__value_typeI4vertxEEPNS_11__tree_nodeIS3_PvEElEppB8ue170006Ev, symObjAddr: 0x28B9C, symBinAddr: 0x10002BF18, symSize: 0xD8 }
  - { offsetInCU: 0x30295, offset: 0x30295, size: 0x8, addend: 0x0, symName: __ZNSt3__16__treeINS_12__value_typeI4vertxEENS_19__map_value_compareIS2_S3_NS_4lessIS2_EELb1EEENS_9allocatorIS3_EEE16__construct_nodeIJRKNS_21piecewise_construct_tENS_5tupleIJOS2_EEENSF_IJEEEEEENS_10unique_ptrINS_11__tree_nodeIS3_PvEENS_22__tree_node_destructorINS8_ISM_EEEEEEDpOT_, symObjAddr: 0x29174, symBinAddr: 0x10002C4F0, symSize: 0x36C }
  - { offsetInCU: 0x304A7, offset: 0x304A7, size: 0x8, addend: 0x0, symName: __ZNSt3__116allocator_traitsINS_9allocatorINS_11__tree_nodeINS_12__value_typeI4vertxEEPvEEEEE9constructB8ue170006INS_4pairIKS4_xEEJRKNS_21piecewise_construct_tENS_5tupleIJOS4_EEENSH_IJEEEEvEEvRS8_PT_DpOT0_, symObjAddr: 0x294E0, symBinAddr: 0x10002C85C, symSize: 0x230 }
  - { offsetInCU: 0x306C1, offset: 0x306C1, size: 0x8, addend: 0x0, symName: __ZNSt3__14pairIK4vertxEC2B8ue170006IJOS1_EJEJLm0EEJEEENS_21piecewise_construct_tERNS_5tupleIJDpT_EEERNS7_IJDpT0_EEENS_15__tuple_indicesIJXspT1_EEEENSG_IJXspT2_EEEE, symObjAddr: 0x29710, symBinAddr: 0x10002CA8C, symSize: 0x138 }
...
