---
triple:          'arm64-apple-darwin'
binary-path:     '/Users/eric/Workspace/compprog/codeforces/practice/1700/D_Drunken_Maze.bin'
relocations:
  - { offsetInCU: 0x3B, offset: 0x3B, size: 0x8, addend: 0x0, symName: _.str, symObjAddr: 0x19340, symBinAddr: 0x10001CE40, symSize: 0x0 }
  - { offsetInCU: 0x6B, offset: 0x6B, size: 0x8, addend: 0x0, symName: _.str.1, symObjAddr: 0x19360, symBinAddr: 0x10001CE60, symSize: 0x0 }
  - { offsetInCU: 0x7C, offset: 0x7C, size: 0x8, addend: 0x0, symName: _.str.2, symObjAddr: 0x19380, symBinAddr: 0x10001CE80, symSize: 0x0 }
  - { offsetInCU: 0x8D, offset: 0x8D, size: 0x8, addend: 0x0, symName: _.str.3, symObjAddr: 0x19520, symBinAddr: 0x10001D020, symSize: 0x0 }
  - { offsetInCU: 0xAA, offset: 0xAA, size: 0x8, addend: 0x0, symName: _.str.4, symObjAddr: 0x193A0, symBinAddr: 0x10001CEA0, symSize: 0x0 }
  - { offsetInCU: 0xBB, offset: 0xBB, size: 0x8, addend: 0x0, symName: _.str.6, symObjAddr: 0x193C0, symBinAddr: 0x10001CEC0, symSize: 0x0 }
  - { offsetInCU: 0xDC, offset: 0xDC, size: 0x8, addend: 0x0, symName: __ZL2dv, symObjAddr: 0x19620, symBinAddr: 0x10001D120, symSize: 0x0 }
  - { offsetInCU: 0x6557, offset: 0x6557, size: 0x8, addend: 0x0, symName: __ZNSt3__124__put_character_sequenceB8ue170006IcNS_11char_traitsIcEEEERNS_13basic_ostreamIT_T0_EES7_PKS4_m, symObjAddr: 0x6BC8, symBinAddr: 0x10000A360, symSize: 0x910 }
  - { offsetInCU: 0xBD4B, offset: 0xBD4B, size: 0x8, addend: 0x0, symName: __ZNSt3__1lsB8ue170006IcNS_11char_traitsIcEENS_9allocatorIcEEEERNS_13basic_ostreamIT_T0_EES9_RKNS_12basic_stringIS6_S7_T1_EE, symObjAddr: 0xB8C, symBinAddr: 0x100004324, symSize: 0x48 }
  - { offsetInCU: 0xBE05, offset: 0xBE05, size: 0x8, addend: 0x0, symName: __ZNSt3__1neB8ue170006ERKNS_14__bit_iteratorINS_6vectorIbNS_9allocatorIbEEEELb0ELm0EEES7_, symObjAddr: 0x1104, symBinAddr: 0x10000489C, symSize: 0xC4 }
  - { offsetInCU: 0xC090, offset: 0xC090, size: 0x8, addend: 0x0, symName: __ZNSt3__1rsB8ue170006IcNS_11char_traitsIcEENS_9allocatorIcEEEERNS_13basic_istreamIT_T0_EES9_RNS_12basic_stringIS6_S7_T1_EE, symObjAddr: 0x2F84, symBinAddr: 0x10000671C, symSize: 0xE9C }
  - { offsetInCU: 0xC85D, offset: 0xC85D, size: 0x8, addend: 0x0, symName: __ZNSt3__19use_facetB8ue170006INS_5ctypeIcEEEERKT_RKNS_6localeE, symObjAddr: 0x916C, symBinAddr: 0x10000C904, symSize: 0x100 }
  - { offsetInCU: 0xCD20, offset: 0xCD20, size: 0x8, addend: 0x0, symName: __ZNSt3__116__pad_and_outputB8ue170006IcNS_11char_traitsIcEEEENS_19ostreambuf_iteratorIT_T0_EES6_PKS4_S8_S8_RNS_8ios_baseES4_, symObjAddr: 0x74D8, symBinAddr: 0x10000AC70, symSize: 0x800 }
  - { offsetInCU: 0xCF7F, offset: 0xCF7F, size: 0x8, addend: 0x0, symName: __ZNSt3__120__throw_length_errorB8ue170006EPKc, symObjAddr: 0x861C, symBinAddr: 0x10000BDB4, symSize: 0x78 }
  - { offsetInCU: 0xCFE9, offset: 0xCFE9, size: 0x8, addend: 0x0, symName: __ZNSt3__119__allocate_at_leastB8ue170006INS_9allocatorINS_12basic_stringIcNS_11char_traitsIcEENS1_IcEEEEEEEENS_19__allocation_resultINS_16allocator_traitsIT_E7pointerEEERSA_m, symObjAddr: 0xA1E0, symBinAddr: 0x10000D978, symSize: 0x54 }
  - { offsetInCU: 0xDD05, offset: 0xDD05, size: 0x8, addend: 0x0, symName: __ZNSt3__119__allocate_at_leastB8ue170006INS_9allocatorIP4vertEEEENS_19__allocation_resultINS_16allocator_traitsIT_E7pointerEEERS7_m, symObjAddr: 0x11E8C, symBinAddr: 0x100015624, symSize: 0x44 }
  - { offsetInCU: 0xDDC8, offset: 0xDDC8, size: 0x8, addend: 0x0, symName: __ZNSt3__119__allocate_at_leastB8ue170006INS_9allocatorINS_5arrayINS2_IbLm4EEELm4EEEEEEENS_19__allocation_resultINS_16allocator_traitsIT_E7pointerEEERS8_m, symObjAddr: 0x1342C, symBinAddr: 0x100016BC4, symSize: 0x44 }
  - { offsetInCU: 0xDE8B, offset: 0xDE8B, size: 0x8, addend: 0x0, symName: __ZNSt3__119__allocate_at_leastB8ue170006INS_9allocatorINS_6vectorINS_5arrayINS3_IbLm4EEELm4EEENS1_IS5_EEEEEEEENS_19__allocation_resultINS_16allocator_traitsIT_E7pointerEEERSB_m, symObjAddr: 0x155E8, symBinAddr: 0x100018D80, symSize: 0x54 }
  - { offsetInCU: 0xE934, offset: 0xE934, size: 0x8, addend: 0x0, symName: __ZSt28__throw_bad_array_new_lengthB8ue170006v, symObjAddr: 0x880C, symBinAddr: 0x10000BFA4, symSize: 0x5C }
  - { offsetInCU: 0xE977, offset: 0xE977, size: 0x8, addend: 0x0, symName: _.str.20, symObjAddr: 0x193E0, symBinAddr: 0x10001CEE0, symSize: 0x0 }
  - { offsetInCU: 0xE996, offset: 0xE996, size: 0x8, addend: 0x0, symName: _.str.33, symObjAddr: 0x19400, symBinAddr: 0x10001CF00, symSize: 0x0 }
  - { offsetInCU: 0x11D54, offset: 0x11D54, size: 0x8, addend: 0x0, symName: __ZN14__DEBUG_UTIL__5printEPKc, symObjAddr: 0x0, symBinAddr: 0x100003798, symSize: 0x30 }
  - { offsetInCU: 0x11DE0, offset: 0x11DE0, size: 0x8, addend: 0x0, symName: __ZN14__DEBUG_UTIL__5printEb, symObjAddr: 0x30, symBinAddr: 0x1000037C8, symSize: 0x28 }
  - { offsetInCU: 0x11E3B, offset: 0x11E3B, size: 0x8, addend: 0x0, symName: __ZN14__DEBUG_UTIL__5printEc, symObjAddr: 0x58, symBinAddr: 0x1000037F0, symSize: 0x21C }
  - { offsetInCU: 0x11F12, offset: 0x11F12, size: 0x8, addend: 0x0, symName: __ZN14__DEBUG_UTIL__5printEs, symObjAddr: 0x274, symBinAddr: 0x100003A0C, symSize: 0xA8 }
  - { offsetInCU: 0x11F3C, offset: 0x11F3C, size: 0x8, addend: 0x0, symName: __ZN14__DEBUG_UTIL__5printEt, symObjAddr: 0x31C, symBinAddr: 0x100003AB4, symSize: 0xA8 }
  - { offsetInCU: 0x11F66, offset: 0x11F66, size: 0x8, addend: 0x0, symName: __ZN14__DEBUG_UTIL__5printEi, symObjAddr: 0x3C4, symBinAddr: 0x100003B5C, symSize: 0xA8 }
  - { offsetInCU: 0x11F90, offset: 0x11F90, size: 0x8, addend: 0x0, symName: __ZN14__DEBUG_UTIL__5printEj, symObjAddr: 0x46C, symBinAddr: 0x100003C04, symSize: 0xA8 }
  - { offsetInCU: 0x11FBA, offset: 0x11FBA, size: 0x8, addend: 0x0, symName: __ZN14__DEBUG_UTIL__5printEl, symObjAddr: 0x514, symBinAddr: 0x100003CAC, symSize: 0xA8 }
  - { offsetInCU: 0x11FE4, offset: 0x11FE4, size: 0x8, addend: 0x0, symName: __ZN14__DEBUG_UTIL__5printEm, symObjAddr: 0x5BC, symBinAddr: 0x100003D54, symSize: 0xA8 }
  - { offsetInCU: 0x1200E, offset: 0x1200E, size: 0x8, addend: 0x0, symName: __ZN14__DEBUG_UTIL__5printEx, symObjAddr: 0x664, symBinAddr: 0x100003DFC, symSize: 0xA8 }
  - { offsetInCU: 0x12038, offset: 0x12038, size: 0x8, addend: 0x0, symName: __ZN14__DEBUG_UTIL__5printEy, symObjAddr: 0x70C, symBinAddr: 0x100003EA4, symSize: 0xA8 }
  - { offsetInCU: 0x12062, offset: 0x12062, size: 0x8, addend: 0x0, symName: __ZN14__DEBUG_UTIL__5printEf, symObjAddr: 0x7B4, symBinAddr: 0x100003F4C, symSize: 0xA0 }
  - { offsetInCU: 0x1208C, offset: 0x1208C, size: 0x8, addend: 0x0, symName: __ZN14__DEBUG_UTIL__5printEd, symObjAddr: 0x854, symBinAddr: 0x100003FEC, symSize: 0xA0 }
  - { offsetInCU: 0x120B6, offset: 0x120B6, size: 0x8, addend: 0x0, symName: __ZN14__DEBUG_UTIL__5printEe, symObjAddr: 0x8F4, symBinAddr: 0x10000408C, symSize: 0xA0 }
  - { offsetInCU: 0x120E0, offset: 0x120E0, size: 0x8, addend: 0x0, symName: __ZN14__DEBUG_UTIL__5printENSt3__112basic_stringIcNS0_11char_traitsIcEENS0_9allocatorIcEEEE, symObjAddr: 0x994, symBinAddr: 0x10000412C, symSize: 0x1F8 }
  - { offsetInCU: 0x1218B, offset: 0x1218B, size: 0x8, addend: 0x0, symName: __ZN14__DEBUG_UTIL__5printENSt3__16vectorIbNS0_9allocatorIbEEEE, symObjAddr: 0xBD4, symBinAddr: 0x10000436C, symSize: 0x4E4 }
  - { offsetInCU: 0x123FD, offset: 0x123FD, size: 0x8, addend: 0x0, symName: __ZN14__DEBUG_UTIL__7printerEPKc, symObjAddr: 0x1518, symBinAddr: 0x100004CB0, symSize: 0x4 }
  - { offsetInCU: 0x12422, offset: 0x12422, size: 0x8, addend: 0x0, symName: __ZN14__DEBUG_UTIL__10printerArrEPKc, symObjAddr: 0x151C, symBinAddr: 0x100004CB4, symSize: 0x4 }
  - { offsetInCU: 0x12477, offset: 0x12477, size: 0x8, addend: 0x0, symName: __ZNKSt3__112basic_stringIcNS_11char_traitsIcEENS_9allocatorIcEEE13__get_pointerB8ue170006Ev, symObjAddr: 0x9464, symBinAddr: 0x10000CBFC, symSize: 0x5C }
  - { offsetInCU: 0x124DA, offset: 0x124DA, size: 0x8, addend: 0x0, symName: __ZNKSt3__112basic_stringIcNS_11char_traitsIcEENS_9allocatorIcEEE4sizeB8ue170006Ev, symObjAddr: 0x9408, symBinAddr: 0x10000CBA0, symSize: 0x5C }
  - { offsetInCU: 0x125FB, offset: 0x125FB, size: 0x8, addend: 0x0, symName: __ZNKSt3__114__bit_iteratorINS_6vectorIbNS_9allocatorIbEEEELb0ELm0EEdeB8ue170006Ev, symObjAddr: 0x11C8, symBinAddr: 0x100004960, symSize: 0xCC }
  - { offsetInCU: 0x12622, offset: 0x12622, size: 0x8, addend: 0x0, symName: __ZNKSt3__115__bit_referenceINS_6vectorIbNS_9allocatorIbEEEELb1EEcvbB8ue170006Ev, symObjAddr: 0x1294, symBinAddr: 0x100004A2C, symSize: 0xE4 }
  - { offsetInCU: 0x12649, offset: 0x12649, size: 0x8, addend: 0x0, symName: __ZNSt3__114__bit_iteratorINS_6vectorIbNS_9allocatorIbEEEELb0ELm0EEppB8ue170006Ev, symObjAddr: 0x1378, symBinAddr: 0x100004B10, symSize: 0x1A0 }
  - { offsetInCU: 0x12670, offset: 0x12670, size: 0x8, addend: 0x0, symName: __ZNSt3__16vectorIbNS_9allocatorIbEEE5beginB8ue170006Ev, symObjAddr: 0x10B8, symBinAddr: 0x100004850, symSize: 0x4C }
  - { offsetInCU: 0x126A5, offset: 0x126A5, size: 0x8, addend: 0x0, symName: __ZNSt3__16vectorIbNS_9allocatorIbEEE11__make_iterB8ue170006Em, symObjAddr: 0x96C8, symBinAddr: 0x10000CE60, symSize: 0x168 }
  - { offsetInCU: 0x12B55, offset: 0x12B55, size: 0x8, addend: 0x0, symName: _main, symObjAddr: 0x1520, symBinAddr: 0x100004CB8, symSize: 0x18C4 }
  - { offsetInCU: 0x13304, offset: 0x13304, size: 0x8, addend: 0x0, symName: __ZNSt3__19basic_iosIcNS_11char_traitsIcEEE3tieB8ue170006EPNS_13basic_ostreamIcS2_EE, symObjAddr: 0x2DE4, symBinAddr: 0x10000657C, symSize: 0x1A0 }
  - { offsetInCU: 0x1334D, offset: 0x1334D, size: 0x8, addend: 0x0, symName: __ZNSt3__16vectorINS_12basic_stringIcNS_11char_traitsIcEENS_9allocatorIcEEEENS4_IS6_EEEC2Em, symObjAddr: 0x9830, symBinAddr: 0x10000CFC8, symSize: 0x338 }
  - { offsetInCU: 0x134A5, offset: 0x134A5, size: 0x8, addend: 0x0, symName: __ZNSt3__112basic_stringIcNS_11char_traitsIcEENS_9allocatorIcEEEixB8ue170006Em, symObjAddr: 0x3E20, symBinAddr: 0x1000075B8, symSize: 0xBC }
  - { offsetInCU: 0x134E9, offset: 0x134E9, size: 0x8, addend: 0x0, symName: __ZNSt3__15dequeI4vertNS_9allocatorIS1_EEEC2B8ue170006Ev, symObjAddr: 0xCA8C, symBinAddr: 0x100010224, symSize: 0x20C }
  - { offsetInCU: 0x13577, offset: 0x13577, size: 0x8, addend: 0x0, symName: __ZNSt3__15dequeI4vertNS_9allocatorIS1_EEE9push_backEOS1_, symObjAddr: 0xD12C, symBinAddr: 0x1000108C4, symSize: 0xF8 }
  - { offsetInCU: 0x13687, offset: 0x13687, size: 0x8, addend: 0x0, symName: __ZNSt3__16vectorINS_5arrayINS1_IbLm4EEELm4EEENS_9allocatorIS3_EEEC2Em, symObjAddr: 0x12AB4, symBinAddr: 0x10001624C, symSize: 0x338 }
  - { offsetInCU: 0x137DF, offset: 0x137DF, size: 0x8, addend: 0x0, symName: __ZNSt3__16vectorINS0_INS_5arrayINS1_IbLm4EEELm4EEENS_9allocatorIS3_EEEENS4_IS6_EEEC2EmRKS6_, symObjAddr: 0x14BF0, symBinAddr: 0x100018388, symSize: 0x340 }
  - { offsetInCU: 0x1394B, offset: 0x1394B, size: 0x8, addend: 0x0, symName: __ZNSt3__16vectorINS_5arrayINS1_IbLm4EEELm4EEENS_9allocatorIS3_EEE16__destroy_vectorclB8ue170006Ev, symObjAddr: 0x14658, symBinAddr: 0x100017DF0, symSize: 0x240 }
  - { offsetInCU: 0x13A79, offset: 0x13A79, size: 0x8, addend: 0x0, symName: __ZNKSt3__15dequeI4vertNS_9allocatorIS1_EEE5emptyB8ue170006Ev, symObjAddr: 0x624C, symBinAddr: 0x1000099E4, symSize: 0x90 }
  - { offsetInCU: 0x13AC4, offset: 0x13AC4, size: 0x8, addend: 0x0, symName: __ZNSt3__15dequeI4vertNS_9allocatorIS1_EEE5frontEv, symObjAddr: 0x179B8, symBinAddr: 0x10001B150, symSize: 0x228 }
  - { offsetInCU: 0x13B04, offset: 0x13B04, size: 0x8, addend: 0x0, symName: __ZNSt3__15dequeI4vertNS_9allocatorIS1_EEE9pop_frontEv, symObjAddr: 0x17BE0, symBinAddr: 0x10001B378, symSize: 0x294 }
  - { offsetInCU: 0x13BFC, offset: 0x13BFC, size: 0x8, addend: 0x0, symName: __ZNSt3__16vectorINS0_INS_5arrayINS1_IbLm4EEELm4EEENS_9allocatorIS3_EEEENS4_IS6_EEE16__destroy_vectorclB8ue170006Ev, symObjAddr: 0x1720C, symBinAddr: 0x10001A9A4, symSize: 0x240 }
  - { offsetInCU: 0x13D2A, offset: 0x13D2A, size: 0x8, addend: 0x0, symName: __ZNSt3__15dequeI4vertNS_9allocatorIS1_EEED2B8ue170006Ev, symObjAddr: 0x4424, symBinAddr: 0x100007BBC, symSize: 0x1C8 }
  - { offsetInCU: 0x13ED7, offset: 0x13ED7, size: 0x8, addend: 0x0, symName: __ZNSt3__16vectorINS_12basic_stringIcNS_11char_traitsIcEENS_9allocatorIcEEEENS4_IS6_EEE16__destroy_vectorclB8ue170006Ev, symObjAddr: 0xB6F8, symBinAddr: 0x10000EE90, symSize: 0x240 }
  - { offsetInCU: 0x14005, offset: 0x14005, size: 0x8, addend: 0x0, symName: __ZNSt3__16vectorINS_5arrayINS1_IbLm4EEELm4EEENS_9allocatorIS3_EEED1B8ue170006Ev, symObjAddr: 0x3EDC, symBinAddr: 0x100007674, symSize: 0x1A0 }
  - { offsetInCU: 0x14067, offset: 0x14067, size: 0x8, addend: 0x0, symName: __ZNSt3__16vectorINS0_INS_5arrayINS1_IbLm4EEELm4EEENS_9allocatorIS3_EEEENS4_IS6_EEED1B8ue170006Ev, symObjAddr: 0x407C, symBinAddr: 0x100007814, symSize: 0x1A0 }
  - { offsetInCU: 0x140C9, offset: 0x140C9, size: 0x8, addend: 0x0, symName: __ZNSt3__15queueI4vertNS_5dequeIS1_NS_9allocatorIS1_EEEEED1Ev, symObjAddr: 0x421C, symBinAddr: 0x1000079B4, symSize: 0x68 }
  - { offsetInCU: 0x14127, offset: 0x14127, size: 0x8, addend: 0x0, symName: __ZNSt3__16vectorINS_12basic_stringIcNS_11char_traitsIcEENS_9allocatorIcEEEENS4_IS6_EEED1B8ue170006Ev, symObjAddr: 0x4284, symBinAddr: 0x100007A1C, symSize: 0x1A0 }
  - { offsetInCU: 0x14281, offset: 0x14281, size: 0x8, addend: 0x0, symName: __ZNSt3__112basic_stringIcNS_11char_traitsIcEENS_9allocatorIcEEE5clearB8ue170006Ev, symObjAddr: 0xBD00, symBinAddr: 0x10000F498, symSize: 0x124 }
  - { offsetInCU: 0x14346, offset: 0x14346, size: 0x8, addend: 0x0, symName: __ZNKSt3__112basic_stringIcNS_11char_traitsIcEENS_9allocatorIcEEE8max_sizeB8ue170006Ev, symObjAddr: 0x82D0, symBinAddr: 0x10000BA68, symSize: 0x74 }
  - { offsetInCU: 0x14398, offset: 0x14398, size: 0x8, addend: 0x0, symName: __ZNKSt3__18ios_base5rdbufB8ue170006Ev, symObjAddr: 0x8D4C, symBinAddr: 0x10000C4E4, symSize: 0xE0 }
  - { offsetInCU: 0x143BF, offset: 0x143BF, size: 0x8, addend: 0x0, symName: __ZNSt3__115basic_streambufIcNS_11char_traitsIcEEE5sgetcB8ue170006Ev, symObjAddr: 0xBE24, symBinAddr: 0x10000F5BC, symSize: 0x308 }
  - { offsetInCU: 0x14420, offset: 0x14420, size: 0x8, addend: 0x0, symName: __ZNKSt3__15ctypeIcE2isB8ue170006Ejc, symObjAddr: 0xC12C, symBinAddr: 0x10000F8C4, symSize: 0x1C8 }
  - { offsetInCU: 0x14467, offset: 0x14467, size: 0x8, addend: 0x0, symName: __ZNSt3__115basic_streambufIcNS_11char_traitsIcEEE6sbumpcB8ue170006Ev, symObjAddr: 0xC2F4, symBinAddr: 0x10000FA8C, symSize: 0x370 }
  - { offsetInCU: 0x1449A, offset: 0x1449A, size: 0x8, addend: 0x0, symName: __ZNSt3__18ios_base5widthB8ue170006El, symObjAddr: 0x801C, symBinAddr: 0x10000B7B4, symSize: 0x1A0 }
  - { offsetInCU: 0x144E3, offset: 0x144E3, size: 0x8, addend: 0x0, symName: __ZNSt3__19basic_iosIcNS_11char_traitsIcEEE8setstateB8ue170006Ej, symObjAddr: 0x7F20, symBinAddr: 0x10000B6B8, symSize: 0xFC }
  - { offsetInCU: 0x14528, offset: 0x14528, size: 0x8, addend: 0x0, symName: __ZNSt3__18ios_base18__setstate_nothrowB8ue170006Ej, symObjAddr: 0xC664, symBinAddr: 0x10000FDFC, symSize: 0x234 }
  - { offsetInCU: 0x1455F, offset: 0x1455F, size: 0x8, addend: 0x0, symName: __ZNKSt3__19basic_iosIcNS_11char_traitsIcEEE10exceptionsB8ue170006Ev, symObjAddr: 0xC898, symBinAddr: 0x100010030, symSize: 0x1F4 }
  - { offsetInCU: 0x1459D, offset: 0x1459D, size: 0x8, addend: 0x0, symName: __ZNSt3__112basic_stringIcNS_11char_traitsIcEENS_9allocatorIcEEE13__get_pointerB8ue170006Ev, symObjAddr: 0x8868, symBinAddr: 0x10000C000, symSize: 0x5C }
  - { offsetInCU: 0x146B1, offset: 0x146B1, size: 0x8, addend: 0x0, symName: __ZNSt3__15dequeI4vertNS_9allocatorIS1_EEE5clearEv, symObjAddr: 0x45EC, symBinAddr: 0x100007D84, symSize: 0x3C8 }
  - { offsetInCU: 0x148D6, offset: 0x148D6, size: 0x8, addend: 0x0, symName: __ZNKSt3__15dequeI4vertNS_9allocatorIS1_EEE17__annotate_deleteB8ue170006Ev, symObjAddr: 0x49B4, symBinAddr: 0x10000814C, symSize: 0x184 }
  - { offsetInCU: 0x149E7, offset: 0x149E7, size: 0x8, addend: 0x0, symName: __ZNSt3__15dequeI4vertNS_9allocatorIS1_EEE7__allocB8ue170006Ev, symObjAddr: 0x4B38, symBinAddr: 0x1000082D0, symSize: 0x70 }
  - { offsetInCU: 0x14A1C, offset: 0x14A1C, size: 0x8, addend: 0x0, symName: __ZNSt3__114__split_bufferIP4vertNS_9allocatorIS2_EEED2Ev, symObjAddr: 0x661C, symBinAddr: 0x100009DB4, symSize: 0xF4 }
  - { offsetInCU: 0x14B63, offset: 0x14B63, size: 0x8, addend: 0x0, symName: __ZNSt3__15dequeI4vertNS_9allocatorIS1_EEE5beginB8ue170006Ev, symObjAddr: 0x4BA8, symBinAddr: 0x100008340, symSize: 0x224 }
  - { offsetInCU: 0x14BBE, offset: 0x14BBE, size: 0x8, addend: 0x0, symName: __ZNSt3__15dequeI4vertNS_9allocatorIS1_EEE3endB8ue170006Ev, symObjAddr: 0x4DCC, symBinAddr: 0x100008564, symSize: 0x204 }
  - { offsetInCU: 0x14C5B, offset: 0x14C5B, size: 0x8, addend: 0x0, symName: __ZNSt3__116__deque_iteratorI4vertPS1_RS1_PS2_lLl204EEppB8ue170006Ev, symObjAddr: 0x4FDC, symBinAddr: 0x100008774, symSize: 0x2AC }
  - { offsetInCU: 0x14C82, offset: 0x14C82, size: 0x8, addend: 0x0, symName: __ZNSt3__15dequeI4vertNS_9allocatorIS1_EEE6__sizeB8ue170006Ev, symObjAddr: 0x5288, symBinAddr: 0x100008A20, symSize: 0x70 }
  - { offsetInCU: 0x14CB7, offset: 0x14CB7, size: 0x8, addend: 0x0, symName: __ZNKSt3__114__split_bufferIP4vertNS_9allocatorIS2_EEE4sizeB8ue170006Ev, symObjAddr: 0x52F8, symBinAddr: 0x100008A90, symSize: 0x90 }
  - { offsetInCU: 0x14CDE, offset: 0x14CDE, size: 0x8, addend: 0x0, symName: __ZNSt3__114__split_bufferIP4vertNS_9allocatorIS2_EEE9pop_frontB8ue170006Ev, symObjAddr: 0x5388, symBinAddr: 0x100008B20, symSize: 0x140 }
  - { offsetInCU: 0x14D43, offset: 0x14D43, size: 0x8, addend: 0x0, symName: __ZNKSt3__15dequeI4vertNS_9allocatorIS1_EEE14__annotate_newB8ue170006Em, symObjAddr: 0x54C8, symBinAddr: 0x100008C60, symSize: 0x120 }
  - { offsetInCU: 0x14DF9, offset: 0x14DF9, size: 0x8, addend: 0x0, symName: __ZNKSt3__15dequeI4vertNS_9allocatorIS1_EEE22__annotate_whole_blockB8ue170006EmNS4_22__asan_annotation_typeE, symObjAddr: 0x62DC, symBinAddr: 0x100009A74, symSize: 0x26C }
  - { offsetInCU: 0x14E9E, offset: 0x14E9E, size: 0x8, addend: 0x0, symName: __ZNKSt3__15dequeI4vertNS_9allocatorIS1_EEE18__annotate_from_toB8ue170006EmmNS4_22__asan_annotation_typeENS4_23__asan_annotation_placeE, symObjAddr: 0x5880, symBinAddr: 0x100009018, symSize: 0x9CC }
  - { offsetInCU: 0x150F9, offset: 0x150F9, size: 0x8, addend: 0x0, symName: __ZNKSt3__15dequeI4vertNS_9allocatorIS1_EEE6__sizeB8ue170006Ev, symObjAddr: 0x5678, symBinAddr: 0x100008E10, symSize: 0x70 }
  - { offsetInCU: 0x1512E, offset: 0x1512E, size: 0x8, addend: 0x0, symName: __ZNSt3__117__compressed_pairImNS_9allocatorI4vertEEE6secondB8ue170006Ev, symObjAddr: 0x6548, symBinAddr: 0x100009CE0, symSize: 0xD4 }
  - { offsetInCU: 0x15171, offset: 0x15171, size: 0x8, addend: 0x0, symName: __ZNKSt3__114__split_bufferIP4vertNS_9allocatorIS2_EEE5emptyB8ue170006Ev, symObjAddr: 0x55E8, symBinAddr: 0x100008D80, symSize: 0x90 }
  - { offsetInCU: 0x15198, offset: 0x15198, size: 0x8, addend: 0x0, symName: __ZNSt3__117__compressed_pairImNS_9allocatorI4vertEEE5firstB8ue170006Ev, symObjAddr: 0x57B4, symBinAddr: 0x100008F4C, symSize: 0xCC }
  - { offsetInCU: 0x15228, offset: 0x15228, size: 0x8, addend: 0x0, symName: __ZNKSt3__117__compressed_pairImNS_9allocatorI4vertEEE5firstB8ue170006Ev, symObjAddr: 0x56E8, symBinAddr: 0x100008E80, symSize: 0xCC }
  - { offsetInCU: 0x153BE, offset: 0x153BE, size: 0x8, addend: 0x0, symName: __ZNSt3__114__split_bufferIP4vertNS_9allocatorIS2_EEE5clearB8ue170006Ev, symObjAddr: 0x6710, symBinAddr: 0x100009EA8, symSize: 0xAC }
  - { offsetInCU: 0x15412, offset: 0x15412, size: 0x8, addend: 0x0, symName: __ZNSt3__117__compressed_pairIPP4vertNS_9allocatorIS2_EEE6secondB8ue170006Ev, symObjAddr: 0x69B8, symBinAddr: 0x10000A150, symSize: 0xD4 }
  - { offsetInCU: 0x15455, offset: 0x15455, size: 0x8, addend: 0x0, symName: __ZNKSt3__114__split_bufferIP4vertNS_9allocatorIS2_EEE8capacityB8ue170006Ev, symObjAddr: 0x682C, symBinAddr: 0x100009FC4, symSize: 0x8C }
  - { offsetInCU: 0x154B1, offset: 0x154B1, size: 0x8, addend: 0x0, symName: __ZNSt3__114__split_bufferIP4vertNS_9allocatorIS2_EEE17__destruct_at_endB8ue170006EPS2_NS_17integral_constantIbLb0EEE, symObjAddr: 0x68B8, symBinAddr: 0x10000A050, symSize: 0x100 }
  - { offsetInCU: 0x15505, offset: 0x15505, size: 0x8, addend: 0x0, symName: __ZNSt3__114__split_bufferIP4vertNS_9allocatorIS2_EEE7__allocB8ue170006Ev, symObjAddr: 0x67BC, symBinAddr: 0x100009F54, symSize: 0x70 }
  - { offsetInCU: 0x15535, offset: 0x15535, size: 0x8, addend: 0x0, symName: __ZNKSt3__114__split_bufferIP4vertNS_9allocatorIS2_EEE9__end_capB8ue170006Ev, symObjAddr: 0x6A8C, symBinAddr: 0x10000A224, symSize: 0x70 }
  - { offsetInCU: 0x15580, offset: 0x15580, size: 0x8, addend: 0x0, symName: __ZNKSt3__117__compressed_pairIPP4vertNS_9allocatorIS2_EEE5firstB8ue170006Ev, symObjAddr: 0x6AFC, symBinAddr: 0x10000A294, symSize: 0xCC }
  - { offsetInCU: 0x1565C, offset: 0x1565C, size: 0x8, addend: 0x0, symName: __ZNSt3__119ostreambuf_iteratorIcNS_11char_traitsIcEEEC2B8ue170006ERNS_13basic_ostreamIcS2_EE, symObjAddr: 0x8AB4, symBinAddr: 0x10000C24C, symSize: 0x298 }
  - { offsetInCU: 0x156B9, offset: 0x156B9, size: 0x8, addend: 0x0, symName: __ZNKSt3__19basic_iosIcNS_11char_traitsIcEEE4fillB8ue170006Ev, symObjAddr: 0x7CD8, symBinAddr: 0x10000B470, symSize: 0x248 }
  - { offsetInCU: 0x157A8, offset: 0x157A8, size: 0x8, addend: 0x0, symName: __ZNSt3__117__compressed_pairINS_12basic_stringIcNS_11char_traitsIcEENS_9allocatorIcEEE5__repES5_EC1B8ue170006INS_18__default_init_tagESA_EEOT_OT0_, symObjAddr: 0x81BC, symBinAddr: 0x10000B954, symSize: 0x98 }
  - { offsetInCU: 0x15845, offset: 0x15845, size: 0x8, addend: 0x0, symName: __ZNKSt3__19basic_iosIcNS_11char_traitsIcEEE5widenB8ue170006Ec, symObjAddr: 0x8E2C, symBinAddr: 0x10000C5C4, symSize: 0x340 }
  - { offsetInCU: 0x158C8, offset: 0x158C8, size: 0x8, addend: 0x0, symName: __ZNSt3__18ios_base8setstateB8ue170006Ej, symObjAddr: 0x926C, symBinAddr: 0x10000CA04, symSize: 0x19C }
  - { offsetInCU: 0x15965, offset: 0x15965, size: 0x8, addend: 0x0, symName: __ZNSt3__122__compressed_pair_elemINS_9allocatorIcEELi1ELb1EEC2B8ue170006ENS_18__default_init_tagE, symObjAddr: 0x8254, symBinAddr: 0x10000B9EC, symSize: 0x7C }
  - { offsetInCU: 0x15A2A, offset: 0x15A2A, size: 0x8, addend: 0x0, symName: __ZNKSt3__117__compressed_pairINS_12basic_stringIcNS_11char_traitsIcEENS_9allocatorIcEEE5__repES5_E6secondB8ue170006Ev, symObjAddr: 0x8548, symBinAddr: 0x10000BCE0, symSize: 0xD4 }
  - { offsetInCU: 0x15A6D, offset: 0x15A6D, size: 0x8, addend: 0x0, symName: __ZNSt3__112basic_stringIcNS_11char_traitsIcEENS_9allocatorIcEEE16__set_short_sizeB8ue170006Em, symObjAddr: 0x8344, symBinAddr: 0x10000BADC, symSize: 0x11C }
  - { offsetInCU: 0x15AE0, offset: 0x15AE0, size: 0x8, addend: 0x0, symName: __ZNSt3__117__compressed_pairINS_12basic_stringIcNS_11char_traitsIcEENS_9allocatorIcEEE5__repES5_E5firstB8ue170006Ev, symObjAddr: 0x8740, symBinAddr: 0x10000BED8, symSize: 0xCC }
  - { offsetInCU: 0x15B24, offset: 0x15B24, size: 0x8, addend: 0x0, symName: __ZNSt3__112basic_stringIcNS_11char_traitsIcEENS_9allocatorIcEEE19__get_short_pointerB8ue170006Ev, symObjAddr: 0x8460, symBinAddr: 0x10000BBF8, symSize: 0x58 }
  - { offsetInCU: 0x15B59, offset: 0x15B59, size: 0x8, addend: 0x0, symName: __ZNSt3__112basic_stringIcNS_11char_traitsIcEENS_9allocatorIcEEE15__set_long_sizeB8ue170006Em, symObjAddr: 0x84B8, symBinAddr: 0x10000BC50, symSize: 0x90 }
  - { offsetInCU: 0x15BB9, offset: 0x15BB9, size: 0x8, addend: 0x0, symName: __ZNSt12length_errorC1B8ue170006EPKc, symObjAddr: 0x8694, symBinAddr: 0x10000BE2C, symSize: 0xAC }
  - { offsetInCU: 0x15C53, offset: 0x15C53, size: 0x8, addend: 0x0, symName: __ZNKSt3__112basic_stringIcNS_11char_traitsIcEENS_9allocatorIcEEE9__is_longB8ue170006Ev, symObjAddr: 0x88C4, symBinAddr: 0x10000C05C, symSize: 0x9C }
  - { offsetInCU: 0x15C87, offset: 0x15C87, size: 0x8, addend: 0x0, symName: __ZNSt3__112basic_stringIcNS_11char_traitsIcEENS_9allocatorIcEEE18__get_long_pointerB8ue170006Ev, symObjAddr: 0x8960, symBinAddr: 0x10000C0F8, symSize: 0x88 }
  - { offsetInCU: 0x15CBB, offset: 0x15CBB, size: 0x8, addend: 0x0, symName: __ZNKSt3__117__compressed_pairINS_12basic_stringIcNS_11char_traitsIcEENS_9allocatorIcEEE5__repES5_E5firstB8ue170006Ev, symObjAddr: 0x89E8, symBinAddr: 0x10000C180, symSize: 0xCC }
  - { offsetInCU: 0x15D43, offset: 0x15D43, size: 0x8, addend: 0x0, symName: __ZNKSt3__112basic_stringIcNS_11char_traitsIcEENS_9allocatorIcEEE15__get_long_sizeB8ue170006Ev, symObjAddr: 0x95A0, symBinAddr: 0x10000CD38, symSize: 0x8C }
  - { offsetInCU: 0x15D77, offset: 0x15D77, size: 0x8, addend: 0x0, symName: __ZNKSt3__112basic_stringIcNS_11char_traitsIcEENS_9allocatorIcEEE16__get_short_sizeB8ue170006Ev, symObjAddr: 0x962C, symBinAddr: 0x10000CDC4, symSize: 0x9C }
  - { offsetInCU: 0x15DAB, offset: 0x15DAB, size: 0x8, addend: 0x0, symName: __ZNKSt3__112basic_stringIcNS_11char_traitsIcEENS_9allocatorIcEEE18__get_long_pointerB8ue170006Ev, symObjAddr: 0x94C0, symBinAddr: 0x10000CC58, symSize: 0x88 }
  - { offsetInCU: 0x15DDF, offset: 0x15DDF, size: 0x8, addend: 0x0, symName: __ZNKSt3__112basic_stringIcNS_11char_traitsIcEENS_9allocatorIcEEE19__get_short_pointerB8ue170006Ev, symObjAddr: 0x9548, symBinAddr: 0x10000CCE0, symSize: 0x58 }
  - { offsetInCU: 0x15EDC, offset: 0x15EDC, size: 0x8, addend: 0x0, symName: __ZNSt3__117__compressed_pairIPNS_12basic_stringIcNS_11char_traitsIcEENS_9allocatorIcEEEENS4_IS6_EEEC2B8ue170006IDnNS_18__default_init_tagEEEOT_OT0_, symObjAddr: 0xA070, symBinAddr: 0x10000D808, symSize: 0xB0 }
  - { offsetInCU: 0x15F5B, offset: 0x15F5B, size: 0x8, addend: 0x0, symName: __ZNSt3__16vectorINS_12basic_stringIcNS_11char_traitsIcEENS_9allocatorIcEEEENS4_IS6_EEE11__vallocateB8ue170006Em, symObjAddr: 0x9B68, symBinAddr: 0x10000D300, symSize: 0x1BC }
  - { offsetInCU: 0x16046, offset: 0x16046, size: 0x8, addend: 0x0, symName: __ZNSt3__16vectorINS_12basic_stringIcNS_11char_traitsIcEENS_9allocatorIcEEEENS4_IS6_EEE18__construct_at_endEm, symObjAddr: 0x9D24, symBinAddr: 0x10000D4BC, symSize: 0x304 }
  - { offsetInCU: 0x161AC, offset: 0x161AC, size: 0x8, addend: 0x0, symName: __ZNSt3__128__exception_guard_exceptionsINS_6vectorINS_12basic_stringIcNS_11char_traitsIcEENS_9allocatorIcEEEENS5_IS7_EEE16__destroy_vectorEED2B8ue170006Ev, symObjAddr: 0xB614, symBinAddr: 0x10000EDAC, symSize: 0xE4 }
  - { offsetInCU: 0x161EB, offset: 0x161EB, size: 0x8, addend: 0x0, symName: __ZNSt3__128__exception_guard_exceptionsINS_6vectorINS_12basic_stringIcNS_11char_traitsIcEENS_9allocatorIcEEEENS5_IS7_EEE16__destroy_vectorEED1B8ue170006Ev, symObjAddr: 0xA028, symBinAddr: 0x10000D7C0, symSize: 0x48 }
  - { offsetInCU: 0x1624F, offset: 0x1624F, size: 0x8, addend: 0x0, symName: __ZNKSt3__16vectorINS_12basic_stringIcNS_11char_traitsIcEENS_9allocatorIcEEEENS4_IS6_EEE7__allocB8ue170006Ev, symObjAddr: 0xA54C, symBinAddr: 0x10000DCE4, symSize: 0x70 }
  - { offsetInCU: 0x16284, offset: 0x16284, size: 0x8, addend: 0x0, symName: __ZNSt3__16vectorINS_12basic_stringIcNS_11char_traitsIcEENS_9allocatorIcEEEENS4_IS6_EEE7__allocB8ue170006Ev, symObjAddr: 0xA234, symBinAddr: 0x10000D9CC, symSize: 0x70 }
  - { offsetInCU: 0x162B4, offset: 0x162B4, size: 0x8, addend: 0x0, symName: __ZNSt3__117__compressed_pairIPNS_12basic_stringIcNS_11char_traitsIcEENS_9allocatorIcEEEENS4_IS6_EEE5firstB8ue170006Ev, symObjAddr: 0xA764, symBinAddr: 0x10000DEFC, symSize: 0xCC }
  - { offsetInCU: 0x162F8, offset: 0x162F8, size: 0x8, addend: 0x0, symName: __ZNKSt3__16vectorINS_12basic_stringIcNS_11char_traitsIcEENS_9allocatorIcEEEENS4_IS6_EEE14__annotate_newB8ue170006Em, symObjAddr: 0xA2A4, symBinAddr: 0x10000DA3C, symSize: 0x2A8 }
  - { offsetInCU: 0x163EE, offset: 0x163EE, size: 0x8, addend: 0x0, symName: __ZNKSt3__16vectorINS_12basic_stringIcNS_11char_traitsIcEENS_9allocatorIcEEEENS4_IS6_EEE20__throw_length_errorB8ue170006Ev, symObjAddr: 0xA19C, symBinAddr: 0x10000D934, symSize: 0x44 }
  - { offsetInCU: 0x16524, offset: 0x16524, size: 0x8, addend: 0x0, symName: __ZNSt3__16vectorINS_12basic_stringIcNS_11char_traitsIcEENS_9allocatorIcEEEENS4_IS6_EEE21_ConstructTransactionC2B8ue170006ERS8_m, symObjAddr: 0xAA04, symBinAddr: 0x10000E19C, symSize: 0x1A4 }
  - { offsetInCU: 0x1657C, offset: 0x1657C, size: 0x8, addend: 0x0, symName: __ZNSt3__117__compressed_pairIPNS_12basic_stringIcNS_11char_traitsIcEENS_9allocatorIcEEEENS4_IS6_EEE6secondB8ue170006Ev, symObjAddr: 0xA690, symBinAddr: 0x10000DE28, symSize: 0xD4 }
  - { offsetInCU: 0x165BF, offset: 0x165BF, size: 0x8, addend: 0x0, symName: __ZNSt3__112basic_stringIcNS_11char_traitsIcEENS_9allocatorIcEEEC2B8ue170006Ev, symObjAddr: 0xAF4C, symBinAddr: 0x10000E6E4, symSize: 0x224 }
  - { offsetInCU: 0x1662F, offset: 0x1662F, size: 0x8, addend: 0x0, symName: __ZNSt3__16vectorINS_12basic_stringIcNS_11char_traitsIcEENS_9allocatorIcEEEENS4_IS6_EEE21_ConstructTransactionD2B8ue170006Ev, symObjAddr: 0xB170, symBinAddr: 0x10000E908, symSize: 0x220 }
  - { offsetInCU: 0x16696, offset: 0x16696, size: 0x8, addend: 0x0, symName: __ZNSt3__122__compressed_pair_elemINS_9allocatorINS_12basic_stringIcNS_11char_traitsIcEENS1_IcEEEEEELi1ELb1EEC2B8ue170006ENS_18__default_init_tagE, symObjAddr: 0xA120, symBinAddr: 0x10000D8B8, symSize: 0x7C }
  - { offsetInCU: 0x167BC, offset: 0x167BC, size: 0x8, addend: 0x0, symName: __ZNKSt3__16vectorINS_12basic_stringIcNS_11char_traitsIcEENS_9allocatorIcEEEENS4_IS6_EEE8capacityB8ue170006Ev, symObjAddr: 0xA830, symBinAddr: 0x10000DFC8, symSize: 0x98 }
  - { offsetInCU: 0x167F7, offset: 0x167F7, size: 0x8, addend: 0x0, symName: __ZNKSt3__117__compressed_pairIPNS_12basic_stringIcNS_11char_traitsIcEENS_9allocatorIcEEEENS4_IS6_EEE6secondB8ue170006Ev, symObjAddr: 0xA5BC, symBinAddr: 0x10000DD54, symSize: 0xD4 }
  - { offsetInCU: 0x16882, offset: 0x16882, size: 0x8, addend: 0x0, symName: __ZNKSt3__16vectorINS_12basic_stringIcNS_11char_traitsIcEENS_9allocatorIcEEEENS4_IS6_EEE9__end_capB8ue170006Ev, symObjAddr: 0xA8C8, symBinAddr: 0x10000E060, symSize: 0x70 }
  - { offsetInCU: 0x168B7, offset: 0x168B7, size: 0x8, addend: 0x0, symName: __ZNKSt3__117__compressed_pairIPNS_12basic_stringIcNS_11char_traitsIcEENS_9allocatorIcEEEENS4_IS6_EEE5firstB8ue170006Ev, symObjAddr: 0xA938, symBinAddr: 0x10000E0D0, symSize: 0xCC }
  - { offsetInCU: 0x16917, offset: 0x16917, size: 0x8, addend: 0x0, symName: __ZNKSt3__16vectorINS_12basic_stringIcNS_11char_traitsIcEENS_9allocatorIcEEEENS4_IS6_EEE19__annotate_increaseB8ue170006Em, symObjAddr: 0xABA8, symBinAddr: 0x10000E340, symSize: 0x30C }
  - { offsetInCU: 0x16A21, offset: 0x16A21, size: 0x8, addend: 0x0, symName: __ZNKSt3__16vectorINS_12basic_stringIcNS_11char_traitsIcEENS_9allocatorIcEEEENS4_IS6_EEE4sizeB8ue170006Ev, symObjAddr: 0xAEB4, symBinAddr: 0x10000E64C, symSize: 0x98 }
  - { offsetInCU: 0x16A5E, offset: 0x16A5E, size: 0x8, addend: 0x0, symName: __ZNKSt3__16vectorINS_12basic_stringIcNS_11char_traitsIcEENS_9allocatorIcEEEENS4_IS6_EEE17__annotate_shrinkB8ue170006Em, symObjAddr: 0xB390, symBinAddr: 0x10000EB28, symSize: 0x284 }
  - { offsetInCU: 0x16BC2, offset: 0x16BC2, size: 0x8, addend: 0x0, symName: __ZNSt3__16vectorINS_12basic_stringIcNS_11char_traitsIcEENS_9allocatorIcEEEENS4_IS6_EEE22__base_destruct_at_endB8ue170006EPS6_, symObjAddr: 0xBBD0, symBinAddr: 0x10000F368, symSize: 0x130 }
  - { offsetInCU: 0x16C61, offset: 0x16C61, size: 0x8, addend: 0x0, symName: __ZNKSt3__16vectorINS_12basic_stringIcNS_11char_traitsIcEENS_9allocatorIcEEEENS4_IS6_EEE17__annotate_deleteB8ue170006Ev, symObjAddr: 0xB938, symBinAddr: 0x10000F0D0, symSize: 0x298 }
  - { offsetInCU: 0x16E3E, offset: 0x16E3E, size: 0x8, addend: 0x0, symName: __ZNSt3__114__split_bufferIP4vertNS_9allocatorIS2_EEEC1B8ue170006Ev, symObjAddr: 0xCC98, symBinAddr: 0x100010430, symSize: 0x204 }
  - { offsetInCU: 0x16EBB, offset: 0x16EBB, size: 0x8, addend: 0x0, symName: __ZNSt3__117__compressed_pairImNS_9allocatorI4vertEEEC2B8ue170006IiNS_18__default_init_tagEEEOT_OT0_, symObjAddr: 0xCFC8, symBinAddr: 0x100010760, symSize: 0xE8 }
  - { offsetInCU: 0x16F9F, offset: 0x16F9F, size: 0x8, addend: 0x0, symName: __ZNSt3__117__compressed_pairIPP4vertNS_9allocatorIS2_EEEC2B8ue170006IDnNS_18__default_init_tagEEEOT_OT0_, symObjAddr: 0xCE9C, symBinAddr: 0x100010634, symSize: 0xB0 }
  - { offsetInCU: 0x1704D, offset: 0x1704D, size: 0x8, addend: 0x0, symName: __ZNSt3__122__compressed_pair_elemINS_9allocatorIP4vertEELi1ELb1EEC2B8ue170006ENS_18__default_init_tagE, symObjAddr: 0xCF4C, symBinAddr: 0x1000106E4, symSize: 0x7C }
  - { offsetInCU: 0x17125, offset: 0x17125, size: 0x8, addend: 0x0, symName: __ZNSt3__122__compressed_pair_elemINS_9allocatorI4vertEELi1ELb1EEC2B8ue170006ENS_18__default_init_tagE, symObjAddr: 0xD0B0, symBinAddr: 0x100010848, symSize: 0x7C }
  - { offsetInCU: 0x17255, offset: 0x17255, size: 0x8, addend: 0x0, symName: __ZNKSt3__15dequeI4vertNS_9allocatorIS1_EEE12__back_spareB8ue170006Ev, symObjAddr: 0xD224, symBinAddr: 0x1000109BC, symSize: 0xC4 }
  - { offsetInCU: 0x172BB, offset: 0x172BB, size: 0x8, addend: 0x0, symName: __ZNSt3__15dequeI4vertNS_9allocatorIS1_EEE19__add_back_capacityEv, symObjAddr: 0xD2E8, symBinAddr: 0x100010A80, symSize: 0xAE0 }
  - { offsetInCU: 0x1792E, offset: 0x1792E, size: 0x8, addend: 0x0, symName: __ZNKSt3__15dequeI4vertNS_9allocatorIS1_EEE24__annotate_increase_backB8ue170006Em, symObjAddr: 0xDDC8, symBinAddr: 0x100011560, symSize: 0x128 }
  - { offsetInCU: 0x179D9, offset: 0x179D9, size: 0x8, addend: 0x0, symName: __ZNKSt3__15dequeI4vertNS_9allocatorIS1_EEE10__capacityB8ue170006Ev, symObjAddr: 0xDEF0, symBinAddr: 0x100011688, symSize: 0x88 }
  - { offsetInCU: 0x17C56, offset: 0x17C56, size: 0x8, addend: 0x0, symName: __ZNSt3__114__split_bufferIP4vertNS_9allocatorIS2_EEE9push_backB8ue170006ERKS2_, symObjAddr: 0xDF78, symBinAddr: 0x100011710, symSize: 0x8F8 }
  - { offsetInCU: 0x1816A, offset: 0x1816A, size: 0x8, addend: 0x0, symName: __ZNKSt3__114__split_bufferIP4vertNS_9allocatorIS2_EEE12__back_spareB8ue170006Ev, symObjAddr: 0xE870, symBinAddr: 0x100012008, symSize: 0x90 }
  - { offsetInCU: 0x181A5, offset: 0x181A5, size: 0x8, addend: 0x0, symName: __ZNSt3__114__split_bufferIP4vertNS_9allocatorIS2_EEE9push_backEOS2_, symObjAddr: 0xE900, symBinAddr: 0x100012098, symSize: 0x8F8 }
  - { offsetInCU: 0x186B9, offset: 0x186B9, size: 0x8, addend: 0x0, symName: __ZNSt3__114__split_bufferIP4vertRNS_9allocatorIS2_EEEC2EmmS5_, symObjAddr: 0x11B30, symBinAddr: 0x1000152C8, symSize: 0x35C }
  - { offsetInCU: 0x187C6, offset: 0x187C6, size: 0x8, addend: 0x0, symName: __ZNSt3__110unique_ptrIP4vertNS_22__allocator_destructorINS_9allocatorIS1_EEEEEC1B8ue170006ILb1EvEES2_NS_16__dependent_typeINS_27__unique_ptr_deleter_sfinaeIS6_EEXT_EE20__good_rval_ref_typeE, symObjAddr: 0xFC1C, symBinAddr: 0x1000133B4, symSize: 0x20C }
  - { offsetInCU: 0x1887C, offset: 0x1887C, size: 0x8, addend: 0x0, symName: __ZNKSt3__117__compressed_pairIP4vertNS_22__allocator_destructorINS_9allocatorIS1_EEEEE5firstB8ue170006Ev, symObjAddr: 0x120D0, symBinAddr: 0x100015868, symSize: 0xCC }
  - { offsetInCU: 0x188C0, offset: 0x188C0, size: 0x8, addend: 0x0, symName: __ZNSt3__114__split_bufferIP4vertRNS_9allocatorIS2_EEE9push_backEOS2_, symObjAddr: 0xFE28, symBinAddr: 0x1000135C0, symSize: 0x8F8 }
  - { offsetInCU: 0x18DD4, offset: 0x18DD4, size: 0x8, addend: 0x0, symName: __ZNSt3__110unique_ptrIP4vertNS_22__allocator_destructorINS_9allocatorIS1_EEEEE7releaseB8ue170006Ev, symObjAddr: 0x10720, symBinAddr: 0x100013EB8, symSize: 0xC0 }
  - { offsetInCU: 0x18E33, offset: 0x18E33, size: 0x8, addend: 0x0, symName: __ZNSt3__114__split_bufferIP4vertRNS_9allocatorIS2_EEE10push_frontERKS2_, symObjAddr: 0x107E0, symBinAddr: 0x100013F78, symSize: 0xA24 }
  - { offsetInCU: 0x1936A, offset: 0x1936A, size: 0x8, addend: 0x0, symName: __ZNSt3__117__compressed_pairIPP4vertNS_9allocatorIS2_EEE5firstB8ue170006Ev, symObjAddr: 0x12268, symBinAddr: 0x100015A00, symSize: 0xCC }
  - { offsetInCU: 0x193AE, offset: 0x193AE, size: 0x8, addend: 0x0, symName: __ZNSt3__117__compressed_pairIPP4vertRNS_9allocatorIS2_EEE5firstB8ue170006Ev, symObjAddr: 0x12334, symBinAddr: 0x100015ACC, symSize: 0xCC }
  - { offsetInCU: 0x193F2, offset: 0x193F2, size: 0x8, addend: 0x0, symName: __ZNSt3__110unique_ptrIP4vertNS_22__allocator_destructorINS_9allocatorIS1_EEEEE5resetB8ue170006ES2_, symObjAddr: 0x12400, symBinAddr: 0x100015B98, symSize: 0x104 }
  - { offsetInCU: 0x19489, offset: 0x19489, size: 0x8, addend: 0x0, symName: __ZNSt3__114__split_bufferIP4vertRNS_9allocatorIS2_EEED2Ev, symObjAddr: 0x1264C, symBinAddr: 0x100015DE4, symSize: 0xF4 }
  - { offsetInCU: 0x19598, offset: 0x19598, size: 0x8, addend: 0x0, symName: __ZNSt3__114__split_bufferIP4vertNS_9allocatorIS2_EEE10push_frontEOS2_, symObjAddr: 0xF1F8, symBinAddr: 0x100012990, symSize: 0xA24 }
  - { offsetInCU: 0x19ACF, offset: 0x19ACF, size: 0x8, addend: 0x0, symName: __ZNSt3__110unique_ptrIP4vertNS_22__allocator_destructorINS_9allocatorIS1_EEEEED1B8ue170006Ev, symObjAddr: 0x112E4, symBinAddr: 0x100014A7C, symSize: 0x5C }
  - { offsetInCU: 0x19B21, offset: 0x19B21, size: 0x8, addend: 0x0, symName: __ZNSt3__114__split_bufferIP4vertRNS_9allocatorIS2_EEED1Ev, symObjAddr: 0x11340, symBinAddr: 0x100014AD8, symSize: 0x48 }
  - { offsetInCU: 0x19CAB, offset: 0x19CAB, size: 0x8, addend: 0x0, symName: __ZNSt3__114__split_bufferIP4vertNS_9allocatorIS2_EEE9__end_capB8ue170006Ev, symObjAddr: 0x11204, symBinAddr: 0x10001499C, symSize: 0x70 }
  - { offsetInCU: 0x19CDB, offset: 0x19CDB, size: 0x8, addend: 0x0, symName: __ZNSt3__114__split_bufferIP4vertRNS_9allocatorIS2_EEE28__construct_at_end_with_sizeINS_13move_iteratorIPS2_EEEEvT_m, symObjAddr: 0x11388, symBinAddr: 0x100014B20, symSize: 0x39C }
  - { offsetInCU: 0x19F78, offset: 0x19F78, size: 0x8, addend: 0x0, symName: __ZNSt3__117__compressed_pairIP4vertNS_22__allocator_destructorINS_9allocatorIS1_EEEEEC2B8ue170006IRS2_S6_EEOT_OT0_, symObjAddr: 0x11FCC, symBinAddr: 0x100015764, symSize: 0x104 }
  - { offsetInCU: 0x1A027, offset: 0x1A027, size: 0x8, addend: 0x0, symName: __ZNSt3__114__split_bufferIP4vertRNS_9allocatorIS2_EEE9__end_capB8ue170006Ev, symObjAddr: 0x11274, symBinAddr: 0x100014A0C, symSize: 0x70 }
  - { offsetInCU: 0x1A057, offset: 0x1A057, size: 0x8, addend: 0x0, symName: __ZNSt3__117__compressed_pairIPP4vertRNS_9allocatorIS2_EEE6secondB8ue170006Ev, symObjAddr: 0x11948, symBinAddr: 0x1000150E0, symSize: 0x100 }
  - { offsetInCU: 0x1A094, offset: 0x1A094, size: 0x8, addend: 0x0, symName: __ZNSt3__114__split_bufferIP4vertRNS_9allocatorIS2_EEE7__allocB8ue170006Ev, symObjAddr: 0x11724, symBinAddr: 0x100014EBC, symSize: 0x70 }
  - { offsetInCU: 0x1A0C4, offset: 0x1A0C4, size: 0x8, addend: 0x0, symName: __ZNSt3__117__compressed_pairIP4vertNS_22__allocator_destructorINS_9allocatorIS1_EEEEE5firstB8ue170006Ev, symObjAddr: 0x1219C, symBinAddr: 0x100015934, symSize: 0xCC }
  - { offsetInCU: 0x1A19C, offset: 0x1A19C, size: 0x8, addend: 0x0, symName: __ZNSt3__114__split_bufferIP4vertRNS_9allocatorIS2_EEE21_ConstructTransactionC2B8ue170006EPPS2_m, symObjAddr: 0x11794, symBinAddr: 0x100014F2C, symSize: 0x1B4 }
  - { offsetInCU: 0x1A1E5, offset: 0x1A1E5, size: 0x8, addend: 0x0, symName: __ZNSt3__114__split_bufferIP4vertRNS_9allocatorIS2_EEE21_ConstructTransactionD2B8ue170006Ev, symObjAddr: 0x11A48, symBinAddr: 0x1000151E0, symSize: 0xE8 }
  - { offsetInCU: 0x1A268, offset: 0x1A268, size: 0x8, addend: 0x0, symName: __ZNSt3__117__compressed_pairIPP4vertRNS_9allocatorIS2_EEEC2B8ue170006IDnS6_EEOT_OT0_, symObjAddr: 0x11ED0, symBinAddr: 0x100015668, symSize: 0xFC }
  - { offsetInCU: 0x1A3EE, offset: 0x1A3EE, size: 0x8, addend: 0x0, symName: __ZNSt3__117__compressed_pairIP4vertNS_22__allocator_destructorINS_9allocatorIS1_EEEEE6secondB8ue170006Ev, symObjAddr: 0x12504, symBinAddr: 0x100015C9C, symSize: 0xB0 }
  - { offsetInCU: 0x1A432, offset: 0x1A432, size: 0x8, addend: 0x0, symName: __ZNSt3__122__allocator_destructorINS_9allocatorI4vertEEEclB8ue170006EPS2_, symObjAddr: 0x125B4, symBinAddr: 0x100015D4C, symSize: 0x98 }
  - { offsetInCU: 0x1A513, offset: 0x1A513, size: 0x8, addend: 0x0, symName: __ZNSt3__114__split_bufferIP4vertRNS_9allocatorIS2_EEE5clearB8ue170006Ev, symObjAddr: 0x12740, symBinAddr: 0x100015ED8, symSize: 0xAC }
  - { offsetInCU: 0x1A567, offset: 0x1A567, size: 0x8, addend: 0x0, symName: __ZNKSt3__114__split_bufferIP4vertRNS_9allocatorIS2_EEE8capacityB8ue170006Ev, symObjAddr: 0x127EC, symBinAddr: 0x100015F84, symSize: 0x8C }
  - { offsetInCU: 0x1A5C3, offset: 0x1A5C3, size: 0x8, addend: 0x0, symName: __ZNSt3__114__split_bufferIP4vertRNS_9allocatorIS2_EEE17__destruct_at_endB8ue170006EPS2_NS_17integral_constantIbLb0EEE, symObjAddr: 0x12878, symBinAddr: 0x100016010, symSize: 0x100 }
  - { offsetInCU: 0x1A617, offset: 0x1A617, size: 0x8, addend: 0x0, symName: __ZNKSt3__114__split_bufferIP4vertRNS_9allocatorIS2_EEE9__end_capB8ue170006Ev, symObjAddr: 0x12978, symBinAddr: 0x100016110, symSize: 0x70 }
  - { offsetInCU: 0x1A64C, offset: 0x1A64C, size: 0x8, addend: 0x0, symName: __ZNKSt3__117__compressed_pairIPP4vertRNS_9allocatorIS2_EEE5firstB8ue170006Ev, symObjAddr: 0x129E8, symBinAddr: 0x100016180, symSize: 0xCC }
  - { offsetInCU: 0x1A752, offset: 0x1A752, size: 0x8, addend: 0x0, symName: __ZNSt3__117__compressed_pairIPNS_5arrayINS1_IbLm4EEELm4EEENS_9allocatorIS3_EEEC2B8ue170006IDnNS_18__default_init_tagEEEOT_OT0_, symObjAddr: 0x132BC, symBinAddr: 0x100016A54, symSize: 0xB0 }
  - { offsetInCU: 0x1A7D1, offset: 0x1A7D1, size: 0x8, addend: 0x0, symName: __ZNSt3__16vectorINS_5arrayINS1_IbLm4EEELm4EEENS_9allocatorIS3_EEE11__vallocateB8ue170006Em, symObjAddr: 0x12DEC, symBinAddr: 0x100016584, symSize: 0x1A0 }
  - { offsetInCU: 0x1A8BC, offset: 0x1A8BC, size: 0x8, addend: 0x0, symName: __ZNSt3__16vectorINS_5arrayINS1_IbLm4EEELm4EEENS_9allocatorIS3_EEE18__construct_at_endEm, symObjAddr: 0x12F8C, symBinAddr: 0x100016724, symSize: 0x2E8 }
  - { offsetInCU: 0x1A9F8, offset: 0x1A9F8, size: 0x8, addend: 0x0, symName: __ZNSt3__128__exception_guard_exceptionsINS_6vectorINS_5arrayINS2_IbLm4EEELm4EEENS_9allocatorIS4_EEE16__destroy_vectorEED2B8ue170006Ev, symObjAddr: 0x14574, symBinAddr: 0x100017D0C, symSize: 0xE4 }
  - { offsetInCU: 0x1AA37, offset: 0x1AA37, size: 0x8, addend: 0x0, symName: __ZNSt3__128__exception_guard_exceptionsINS_6vectorINS_5arrayINS2_IbLm4EEELm4EEENS_9allocatorIS4_EEE16__destroy_vectorEED1B8ue170006Ev, symObjAddr: 0x13274, symBinAddr: 0x100016A0C, symSize: 0x48 }
  - { offsetInCU: 0x1AA95, offset: 0x1AA95, size: 0x8, addend: 0x0, symName: __ZNKSt3__16vectorINS_5arrayINS1_IbLm4EEELm4EEENS_9allocatorIS3_EEE7__allocB8ue170006Ev, symObjAddr: 0x13760, symBinAddr: 0x100016EF8, symSize: 0x70 }
  - { offsetInCU: 0x1AAC5, offset: 0x1AAC5, size: 0x8, addend: 0x0, symName: __ZNSt3__16vectorINS_5arrayINS1_IbLm4EEELm4EEENS_9allocatorIS3_EEE7__allocB8ue170006Ev, symObjAddr: 0x13470, symBinAddr: 0x100016C08, symSize: 0x70 }
  - { offsetInCU: 0x1AAF5, offset: 0x1AAF5, size: 0x8, addend: 0x0, symName: __ZNSt3__117__compressed_pairIPNS_5arrayINS1_IbLm4EEELm4EEENS_9allocatorIS3_EEE5firstB8ue170006Ev, symObjAddr: 0x13978, symBinAddr: 0x100017110, symSize: 0xCC }
  - { offsetInCU: 0x1AB39, offset: 0x1AB39, size: 0x8, addend: 0x0, symName: __ZNKSt3__16vectorINS_5arrayINS1_IbLm4EEELm4EEENS_9allocatorIS3_EEE14__annotate_newB8ue170006Em, symObjAddr: 0x134E0, symBinAddr: 0x100016C78, symSize: 0x280 }
  - { offsetInCU: 0x1AC2F, offset: 0x1AC2F, size: 0x8, addend: 0x0, symName: __ZNKSt3__16vectorINS_5arrayINS1_IbLm4EEELm4EEENS_9allocatorIS3_EEE20__throw_length_errorB8ue170006Ev, symObjAddr: 0x133E8, symBinAddr: 0x100016B80, symSize: 0x44 }
  - { offsetInCU: 0x1AD4B, offset: 0x1AD4B, size: 0x8, addend: 0x0, symName: __ZNSt3__16vectorINS_5arrayINS1_IbLm4EEELm4EEENS_9allocatorIS3_EEE21_ConstructTransactionC2B8ue170006ERS6_m, symObjAddr: 0x13C0C, symBinAddr: 0x1000173A4, symSize: 0x194 }
  - { offsetInCU: 0x1ADA3, offset: 0x1ADA3, size: 0x8, addend: 0x0, symName: __ZNSt3__117__compressed_pairIPNS_5arrayINS1_IbLm4EEELm4EEENS_9allocatorIS3_EEE6secondB8ue170006Ev, symObjAddr: 0x138A4, symBinAddr: 0x10001703C, symSize: 0xD4 }
  - { offsetInCU: 0x1ADE6, offset: 0x1ADE6, size: 0x8, addend: 0x0, symName: __ZNSt3__16vectorINS_5arrayINS1_IbLm4EEELm4EEENS_9allocatorIS3_EEE21_ConstructTransactionD2B8ue170006Ev, symObjAddr: 0x14104, symBinAddr: 0x10001789C, symSize: 0x214 }
  - { offsetInCU: 0x1AE4D, offset: 0x1AE4D, size: 0x8, addend: 0x0, symName: __ZNSt3__122__compressed_pair_elemINS_9allocatorINS_5arrayINS2_IbLm4EEELm4EEEEELi1ELb1EEC2B8ue170006ENS_18__default_init_tagE, symObjAddr: 0x1336C, symBinAddr: 0x100016B04, symSize: 0x7C }
  - { offsetInCU: 0x1AF73, offset: 0x1AF73, size: 0x8, addend: 0x0, symName: __ZNKSt3__16vectorINS_5arrayINS1_IbLm4EEELm4EEENS_9allocatorIS3_EEE8capacityB8ue170006Ev, symObjAddr: 0x13A44, symBinAddr: 0x1000171DC, symSize: 0x8C }
  - { offsetInCU: 0x1AFAE, offset: 0x1AFAE, size: 0x8, addend: 0x0, symName: __ZNKSt3__117__compressed_pairIPNS_5arrayINS1_IbLm4EEELm4EEENS_9allocatorIS3_EEE6secondB8ue170006Ev, symObjAddr: 0x137D0, symBinAddr: 0x100016F68, symSize: 0xD4 }
  - { offsetInCU: 0x1B039, offset: 0x1B039, size: 0x8, addend: 0x0, symName: __ZNKSt3__16vectorINS_5arrayINS1_IbLm4EEELm4EEENS_9allocatorIS3_EEE9__end_capB8ue170006Ev, symObjAddr: 0x13AD0, symBinAddr: 0x100017268, symSize: 0x70 }
  - { offsetInCU: 0x1B06E, offset: 0x1B06E, size: 0x8, addend: 0x0, symName: __ZNKSt3__117__compressed_pairIPNS_5arrayINS1_IbLm4EEELm4EEENS_9allocatorIS3_EEE5firstB8ue170006Ev, symObjAddr: 0x13B40, symBinAddr: 0x1000172D8, symSize: 0xCC }
  - { offsetInCU: 0x1B0CE, offset: 0x1B0CE, size: 0x8, addend: 0x0, symName: __ZNKSt3__16vectorINS_5arrayINS1_IbLm4EEELm4EEENS_9allocatorIS3_EEE19__annotate_increaseB8ue170006Em, symObjAddr: 0x13DA0, symBinAddr: 0x100017538, symSize: 0x2D8 }
  - { offsetInCU: 0x1B1D8, offset: 0x1B1D8, size: 0x8, addend: 0x0, symName: __ZNKSt3__16vectorINS_5arrayINS1_IbLm4EEELm4EEENS_9allocatorIS3_EEE4sizeB8ue170006Ev, symObjAddr: 0x14078, symBinAddr: 0x100017810, symSize: 0x8C }
  - { offsetInCU: 0x1B1FF, offset: 0x1B1FF, size: 0x8, addend: 0x0, symName: __ZNKSt3__16vectorINS_5arrayINS1_IbLm4EEELm4EEENS_9allocatorIS3_EEE17__annotate_shrinkB8ue170006Em, symObjAddr: 0x14318, symBinAddr: 0x100017AB0, symSize: 0x25C }
  - { offsetInCU: 0x1B363, offset: 0x1B363, size: 0x8, addend: 0x0, symName: __ZNSt3__16vectorINS_5arrayINS1_IbLm4EEELm4EEENS_9allocatorIS3_EEE22__base_destruct_at_endB8ue170006EPS3_, symObjAddr: 0x14B08, symBinAddr: 0x1000182A0, symSize: 0xE8 }
  - { offsetInCU: 0x1B3BE, offset: 0x1B3BE, size: 0x8, addend: 0x0, symName: __ZNKSt3__16vectorINS_5arrayINS1_IbLm4EEELm4EEENS_9allocatorIS3_EEE17__annotate_deleteB8ue170006Ev, symObjAddr: 0x14898, symBinAddr: 0x100018030, symSize: 0x270 }
  - { offsetInCU: 0x1B57A, offset: 0x1B57A, size: 0x8, addend: 0x0, symName: __ZNSt3__117__compressed_pairIPNS_6vectorINS_5arrayINS2_IbLm4EEELm4EEENS_9allocatorIS4_EEEENS5_IS7_EEEC2B8ue170006IDnNS_18__default_init_tagEEEOT_OT0_, symObjAddr: 0x15478, symBinAddr: 0x100018C10, symSize: 0xB0 }
  - { offsetInCU: 0x1B5F9, offset: 0x1B5F9, size: 0x8, addend: 0x0, symName: __ZNSt3__16vectorINS0_INS_5arrayINS1_IbLm4EEELm4EEENS_9allocatorIS3_EEEENS4_IS6_EEE11__vallocateB8ue170006Em, symObjAddr: 0x14F30, symBinAddr: 0x1000186C8, symSize: 0x1BC }
  - { offsetInCU: 0x1B6E4, offset: 0x1B6E4, size: 0x8, addend: 0x0, symName: __ZNSt3__16vectorINS0_INS_5arrayINS1_IbLm4EEELm4EEENS_9allocatorIS3_EEEENS4_IS6_EEE18__construct_at_endEmRKS6_, symObjAddr: 0x150EC, symBinAddr: 0x100018884, symSize: 0x344 }
  - { offsetInCU: 0x1B839, offset: 0x1B839, size: 0x8, addend: 0x0, symName: __ZNSt3__128__exception_guard_exceptionsINS_6vectorINS1_INS_5arrayINS2_IbLm4EEELm4EEENS_9allocatorIS4_EEEENS5_IS7_EEE16__destroy_vectorEED2B8ue170006Ev, symObjAddr: 0x17128, symBinAddr: 0x10001A8C0, symSize: 0xE4 }
  - { offsetInCU: 0x1B878, offset: 0x1B878, size: 0x8, addend: 0x0, symName: __ZNSt3__128__exception_guard_exceptionsINS_6vectorINS1_INS_5arrayINS2_IbLm4EEELm4EEENS_9allocatorIS4_EEEENS5_IS7_EEE16__destroy_vectorEED1B8ue170006Ev, symObjAddr: 0x15430, symBinAddr: 0x100018BC8, symSize: 0x48 }
  - { offsetInCU: 0x1B8DC, offset: 0x1B8DC, size: 0x8, addend: 0x0, symName: __ZNKSt3__16vectorINS0_INS_5arrayINS1_IbLm4EEELm4EEENS_9allocatorIS3_EEEENS4_IS6_EEE7__allocB8ue170006Ev, symObjAddr: 0x15954, symBinAddr: 0x1000190EC, symSize: 0x70 }
  - { offsetInCU: 0x1B911, offset: 0x1B911, size: 0x8, addend: 0x0, symName: __ZNSt3__16vectorINS0_INS_5arrayINS1_IbLm4EEELm4EEENS_9allocatorIS3_EEEENS4_IS6_EEE7__allocB8ue170006Ev, symObjAddr: 0x1563C, symBinAddr: 0x100018DD4, symSize: 0x70 }
  - { offsetInCU: 0x1B941, offset: 0x1B941, size: 0x8, addend: 0x0, symName: __ZNSt3__117__compressed_pairIPNS_6vectorINS_5arrayINS2_IbLm4EEELm4EEENS_9allocatorIS4_EEEENS5_IS7_EEE5firstB8ue170006Ev, symObjAddr: 0x15B6C, symBinAddr: 0x100019304, symSize: 0xCC }
  - { offsetInCU: 0x1B985, offset: 0x1B985, size: 0x8, addend: 0x0, symName: __ZNKSt3__16vectorINS0_INS_5arrayINS1_IbLm4EEELm4EEENS_9allocatorIS3_EEEENS4_IS6_EEE14__annotate_newB8ue170006Em, symObjAddr: 0x156AC, symBinAddr: 0x100018E44, symSize: 0x2A8 }
  - { offsetInCU: 0x1BA7B, offset: 0x1BA7B, size: 0x8, addend: 0x0, symName: __ZNKSt3__16vectorINS0_INS_5arrayINS1_IbLm4EEELm4EEENS_9allocatorIS3_EEEENS4_IS6_EEE20__throw_length_errorB8ue170006Ev, symObjAddr: 0x155A4, symBinAddr: 0x100018D3C, symSize: 0x44 }
  - { offsetInCU: 0x1BB33, offset: 0x1BB33, size: 0x8, addend: 0x0, symName: __ZNSt3__16vectorINS0_INS_5arrayINS1_IbLm4EEELm4EEENS_9allocatorIS3_EEEENS4_IS6_EEE21_ConstructTransactionC2B8ue170006ERS8_m, symObjAddr: 0x15EA8, symBinAddr: 0x100019640, symSize: 0x1A4 }
  - { offsetInCU: 0x1BB8B, offset: 0x1BB8B, size: 0x8, addend: 0x0, symName: __ZNSt3__117__compressed_pairIPNS_6vectorINS_5arrayINS2_IbLm4EEELm4EEENS_9allocatorIS4_EEEENS5_IS7_EEE6secondB8ue170006Ev, symObjAddr: 0x15A98, symBinAddr: 0x100019230, symSize: 0xD4 }
  - { offsetInCU: 0x1BBCE, offset: 0x1BBCE, size: 0x8, addend: 0x0, symName: __ZNSt3__116allocator_traitsINS_9allocatorINS_6vectorINS_5arrayINS3_IbLm4EEELm4EEENS1_IS5_EEEEEEE9constructB8ue170006IS7_JRKS7_EvEEvRS8_PT_DpOT0_, symObjAddr: 0x15E0C, symBinAddr: 0x1000195A4, symSize: 0x54 }
  - { offsetInCU: 0x1BC74, offset: 0x1BC74, size: 0x8, addend: 0x0, symName: __ZNSt3__16vectorINS0_INS_5arrayINS1_IbLm4EEELm4EEENS_9allocatorIS3_EEEENS4_IS6_EEE21_ConstructTransactionD2B8ue170006Ev, symObjAddr: 0x16C84, symBinAddr: 0x10001A41C, symSize: 0x220 }
  - { offsetInCU: 0x1BCAC, offset: 0x1BCAC, size: 0x8, addend: 0x0, symName: __ZNSt3__16vectorINS0_INS_5arrayINS1_IbLm4EEELm4EEENS_9allocatorIS3_EEEENS4_IS6_EEE21_ConstructTransactionD1B8ue170006Ev, symObjAddr: 0x15E60, symBinAddr: 0x1000195F8, symSize: 0x48 }
  - { offsetInCU: 0x1BD0B, offset: 0x1BD0B, size: 0x8, addend: 0x0, symName: __ZNSt3__122__compressed_pair_elemINS_9allocatorINS_6vectorINS_5arrayINS3_IbLm4EEELm4EEENS1_IS5_EEEEEELi1ELb1EEC2B8ue170006ENS_18__default_init_tagE, symObjAddr: 0x15528, symBinAddr: 0x100018CC0, symSize: 0x7C }
  - { offsetInCU: 0x1BE37, offset: 0x1BE37, size: 0x8, addend: 0x0, symName: __ZNKSt3__16vectorINS0_INS_5arrayINS1_IbLm4EEELm4EEENS_9allocatorIS3_EEEENS4_IS6_EEE8capacityB8ue170006Ev, symObjAddr: 0x15C38, symBinAddr: 0x1000193D0, symSize: 0x98 }
  - { offsetInCU: 0x1BE72, offset: 0x1BE72, size: 0x8, addend: 0x0, symName: __ZNKSt3__117__compressed_pairIPNS_6vectorINS_5arrayINS2_IbLm4EEELm4EEENS_9allocatorIS4_EEEENS5_IS7_EEE6secondB8ue170006Ev, symObjAddr: 0x159C4, symBinAddr: 0x10001915C, symSize: 0xD4 }
  - { offsetInCU: 0x1BEFD, offset: 0x1BEFD, size: 0x8, addend: 0x0, symName: __ZNKSt3__16vectorINS0_INS_5arrayINS1_IbLm4EEELm4EEENS_9allocatorIS3_EEEENS4_IS6_EEE9__end_capB8ue170006Ev, symObjAddr: 0x15CD0, symBinAddr: 0x100019468, symSize: 0x70 }
  - { offsetInCU: 0x1BF32, offset: 0x1BF32, size: 0x8, addend: 0x0, symName: __ZNKSt3__117__compressed_pairIPNS_6vectorINS_5arrayINS2_IbLm4EEELm4EEENS_9allocatorIS4_EEEENS5_IS7_EEE5firstB8ue170006Ev, symObjAddr: 0x15D40, symBinAddr: 0x1000194D8, symSize: 0xCC }
  - { offsetInCU: 0x1BFFA, offset: 0x1BFFA, size: 0x8, addend: 0x0, symName: __ZNSt3__16vectorINS_5arrayINS1_IbLm4EEELm4EEENS_9allocatorIS3_EEEC2ERKS6_, symObjAddr: 0x163F0, symBinAddr: 0x100019B88, symSize: 0x240 }
  - { offsetInCU: 0x1C0D9, offset: 0x1C0D9, size: 0x8, addend: 0x0, symName: __ZNKSt3__16vectorINS0_INS_5arrayINS1_IbLm4EEELm4EEENS_9allocatorIS3_EEEENS4_IS6_EEE19__annotate_increaseB8ue170006Em, symObjAddr: 0x1604C, symBinAddr: 0x1000197E4, symSize: 0x30C }
  - { offsetInCU: 0x1C1E3, offset: 0x1C1E3, size: 0x8, addend: 0x0, symName: __ZNKSt3__16vectorINS0_INS_5arrayINS1_IbLm4EEELm4EEENS_9allocatorIS3_EEEENS4_IS6_EEE4sizeB8ue170006Ev, symObjAddr: 0x16358, symBinAddr: 0x100019AF0, symSize: 0x98 }
  - { offsetInCU: 0x1C268, offset: 0x1C268, size: 0x8, addend: 0x0, symName: __ZNSt3__117__compressed_pairIPNS_5arrayINS1_IbLm4EEELm4EEENS_9allocatorIS3_EEEC2B8ue170006IDnS6_EEOT_OT0_, symObjAddr: 0x168E4, symBinAddr: 0x10001A07C, symSize: 0xB0 }
  - { offsetInCU: 0x1C2D9, offset: 0x1C2D9, size: 0x8, addend: 0x0, symName: __ZNSt3__16vectorINS_5arrayINS1_IbLm4EEELm4EEENS_9allocatorIS3_EEE16__init_with_sizeB8ue170006IPS3_S8_EEvT_T0_m, symObjAddr: 0x16630, symBinAddr: 0x100019DC8, symSize: 0x2B4 }
  - { offsetInCU: 0x1C420, offset: 0x1C420, size: 0x8, addend: 0x0, symName: __ZNSt3__16vectorINS_5arrayINS1_IbLm4EEELm4EEENS_9allocatorIS3_EEE18__construct_at_endIPS3_S8_EEvT_T0_m, symObjAddr: 0x16994, symBinAddr: 0x10001A12C, symSize: 0x2F0 }
  - { offsetInCU: 0x1C7F5, offset: 0x1C7F5, size: 0x8, addend: 0x0, symName: __ZNKSt3__16vectorINS0_INS_5arrayINS1_IbLm4EEELm4EEENS_9allocatorIS3_EEEENS4_IS6_EEE17__annotate_shrinkB8ue170006Em, symObjAddr: 0x16EA4, symBinAddr: 0x10001A63C, symSize: 0x284 }
  - { offsetInCU: 0x1C959, offset: 0x1C959, size: 0x8, addend: 0x0, symName: __ZNSt3__16vectorINS0_INS_5arrayINS1_IbLm4EEELm4EEENS_9allocatorIS3_EEEENS4_IS6_EEE22__base_destruct_at_endB8ue170006EPS6_, symObjAddr: 0x176E4, symBinAddr: 0x10001AE7C, symSize: 0x100 }
  - { offsetInCU: 0x1C9EC, offset: 0x1C9EC, size: 0x8, addend: 0x0, symName: __ZNKSt3__16vectorINS0_INS_5arrayINS1_IbLm4EEELm4EEENS_9allocatorIS3_EEEENS4_IS6_EEE17__annotate_deleteB8ue170006Ev, symObjAddr: 0x1744C, symBinAddr: 0x10001ABE4, symSize: 0x298 }
  - { offsetInCU: 0x1CB10, offset: 0x1CB10, size: 0x8, addend: 0x0, symName: __ZNSt3__19allocatorINS_6vectorINS_5arrayINS2_IbLm4EEELm4EEENS0_IS4_EEEEE7destroyB8ue170006EPS6_, symObjAddr: 0x177E4, symBinAddr: 0x10001AF7C, symSize: 0x1D4 }
  - { offsetInCU: 0x1CB98, offset: 0x1CB98, size: 0x8, addend: 0x0, symName: __ZNKSt3__15dequeI4vertNS_9allocatorIS1_EEE23__annotate_shrink_frontB8ue170006Emm, symObjAddr: 0x17E74, symBinAddr: 0x10001B60C, symSize: 0xA0 }
  - { offsetInCU: 0x1CC2E, offset: 0x1CC2E, size: 0x8, addend: 0x0, symName: __ZNSt3__15dequeI4vertNS_9allocatorIS1_EEE26__maybe_remove_front_spareB8ue170006Eb, symObjAddr: 0x17F14, symBinAddr: 0x10001B6AC, symSize: 0x164 }
  - { offsetInCU: 0x1CD89, offset: 0x1CD89, size: 0x8, addend: 0x0, symName: __ZNKSt3__15dequeI4vertNS_9allocatorIS1_EEE20__front_spare_blocksB8ue170006Ev, symObjAddr: 0x18078, symBinAddr: 0x10001B810, symSize: 0x94 }
...
