---
triple:          'arm64-apple-darwin'
binary-path:     '/Users/eric/Workspace/compprog/misc/ACLIT2425/comp/H_Smash_Bros_and_Volleyball.bin'
relocations:
  - { offsetInCU: 0x3C, offset: 0x3C, size: 0x8, addend: 0x0, symName: _.str, symObjAddr: 0x18320, symBinAddr: 0x100016360, symSize: 0x0 }
  - { offsetInCU: 0x6D, offset: 0x6D, size: 0x8, addend: 0x0, symName: _.str.21, symObjAddr: 0x18340, symBinAddr: 0x100016380, symSize: 0x0 }
  - { offsetInCU: 0x5D0D, offset: 0x5D0D, size: 0x8, addend: 0x0, symName: __ZNSt3__124__put_character_sequenceB8ue170006IcNS_11char_traitsIcEEEERNS_13basic_ostreamIT_T0_EES7_PKS4_m, symObjAddr: 0xD19C, symBinAddr: 0x100011238, symSize: 0x910 }
  - { offsetInCU: 0x849F, offset: 0x849F, size: 0x8, addend: 0x0, symName: __ZNSt3__119__allocate_at_leastB8ue170006INS_9allocatorIxEEEENS_19__allocation_resultINS_16allocator_traitsIT_E7pointerEEERS5_m, symObjAddr: 0x1D64, symBinAddr: 0x100005E00, symSize: 0x44 }
  - { offsetInCU: 0x853D, offset: 0x853D, size: 0x8, addend: 0x0, symName: __ZNSt3__120__throw_length_errorB8ue170006EPKc, symObjAddr: 0x21E8, symBinAddr: 0x100006284, symSize: 0x78 }
  - { offsetInCU: 0x8691, offset: 0x8691, size: 0x8, addend: 0x0, symName: __ZNSt3__127__tree_balance_after_insertB8ue170006IPNS_16__tree_node_baseIPvEEEEvT_S5_, symObjAddr: 0x5868, symBinAddr: 0x100009904, symSize: 0x11B8 }
  - { offsetInCU: 0x88E2, offset: 0x88E2, size: 0x8, addend: 0x0, symName: __ZNSt3__119__tree_right_rotateB8ue170006IPNS_16__tree_node_baseIPvEEEEvT_, symObjAddr: 0x7134, symBinAddr: 0x10000B1D0, symSize: 0x834 }
  - { offsetInCU: 0x8994, offset: 0x8994, size: 0x8, addend: 0x0, symName: __ZNSt3__118__tree_left_rotateB8ue170006IPNS_16__tree_node_baseIPvEEEEvT_, symObjAddr: 0x6B2C, symBinAddr: 0x10000ABC8, symSize: 0x608 }
  - { offsetInCU: 0x8A9A, offset: 0x8A9A, size: 0x8, addend: 0x0, symName: __ZNSt3__113__tree_removeB8ue170006IPNS_16__tree_node_baseIPvEEEEvT_S5_, symObjAddr: 0x8AD8, symBinAddr: 0x10000CB74, symSize: 0x3EC8 }
  - { offsetInCU: 0x8DF3, offset: 0x8DF3, size: 0x8, addend: 0x0, symName: __ZNSt3__116__tree_next_iterB8ue170006IPNS_15__tree_end_nodeIPNS_16__tree_node_baseIPvEEEES5_EET_T0_, symObjAddr: 0xC9A0, symBinAddr: 0x100010A3C, symSize: 0x41C }
  - { offsetInCU: 0x8E74, offset: 0x8E74, size: 0x8, addend: 0x0, symName: __ZNSt3__111__tree_nextB8ue170006IPNS_16__tree_node_baseIPvEEEET_S5_, symObjAddr: 0xCDBC, symBinAddr: 0x100010E58, symSize: 0x3E0 }
  - { offsetInCU: 0x8F27, offset: 0x8F27, size: 0x8, addend: 0x0, symName: __ZNSt3__116__pad_and_outputB8ue170006IcNS_11char_traitsIcEEEENS_19ostreambuf_iteratorIT_T0_EES6_PKS4_S8_S8_RNS_8ios_baseES4_, symObjAddr: 0xDAAC, symBinAddr: 0x100011B48, symSize: 0x800 }
  - { offsetInCU: 0x961E, offset: 0x961E, size: 0x8, addend: 0x0, symName: __ZNSt3__19use_facetB8ue170006INS_5ctypeIcEEEERKT_RKNS_6localeE, symObjAddr: 0xF2CC, symBinAddr: 0x100013368, symSize: 0x100 }
  - { offsetInCU: 0x992E, offset: 0x992E, size: 0x8, addend: 0x0, symName: __ZSt28__throw_bad_array_new_lengthB8ue170006v, symObjAddr: 0x230C, symBinAddr: 0x1000063A8, symSize: 0x5C }
  - { offsetInCU: 0xCB86, offset: 0xCB86, size: 0x8, addend: 0x0, symName: _main, symObjAddr: 0x0, symBinAddr: 0x10000409C, symSize: 0x1030 }
  - { offsetInCU: 0xD115, offset: 0xD115, size: 0x8, addend: 0x0, symName: __ZNSt3__16vectorIxNS_9allocatorIxEEEC2Em, symObjAddr: 0x13D4, symBinAddr: 0x100005470, symSize: 0x338 }
  - { offsetInCU: 0xD26D, offset: 0xD26D, size: 0x8, addend: 0x0, symName: __ZNSt3__16__treeIxNS_4lessIxEENS_9allocatorIxEEEC2ERKS2_, symObjAddr: 0x36B4, symBinAddr: 0x100007750, symSize: 0x258 }
  - { offsetInCU: 0xD338, offset: 0xD338, size: 0x8, addend: 0x0, symName: __ZNSt3__18multisetIxNS_4lessIxEENS_9allocatorIxEEE6insertB8ue170006ERKx, symObjAddr: 0x1030, symBinAddr: 0x1000050CC, symSize: 0x68 }
  - { offsetInCU: 0xD39D, offset: 0xD39D, size: 0x8, addend: 0x0, symName: __ZNKSt3__117__compressed_pairImNS_4lessIxEEE5firstB8ue170006Ev, symObjAddr: 0x7DCC, symBinAddr: 0x10000BE68, symSize: 0xCC }
  - { offsetInCU: 0xD3E1, offset: 0xD3E1, size: 0x8, addend: 0x0, symName: __ZNSt3__16__treeIxNS_4lessIxEENS_9allocatorIxEEE5beginB8ue170006Ev, symObjAddr: 0x7E98, symBinAddr: 0x10000BF34, symSize: 0x8C }
  - { offsetInCU: 0xD427, offset: 0xD427, size: 0x8, addend: 0x0, symName: __ZNKSt3__121__tree_const_iteratorIxPNS_11__tree_nodeIxPvEElEdeB8ue170006Ev, symObjAddr: 0x1098, symBinAddr: 0x100005134, symSize: 0xDC }
  - { offsetInCU: 0xD465, offset: 0xD465, size: 0x8, addend: 0x0, symName: __ZNSt3__16__treeIxNS_4lessIxEENS_9allocatorIxEEE4findIxEENS_15__tree_iteratorIxPNS_11__tree_nodeIxPvEElEERKT_, symObjAddr: 0x7F24, symBinAddr: 0x10000BFC0, symSize: 0x2B8 }
  - { offsetInCU: 0xD611, offset: 0xD611, size: 0x8, addend: 0x0, symName: __ZNSt3__18multisetIxNS_4lessIxEENS_9allocatorIxEEE3endB8ue170006Ev, symObjAddr: 0x1174, symBinAddr: 0x100005210, symSize: 0x68 }
  - { offsetInCU: 0xD65D, offset: 0xD65D, size: 0x8, addend: 0x0, symName: __ZNSt3__16__treeIxNS_4lessIxEENS_9allocatorIxEEE5eraseENS_21__tree_const_iteratorIxPNS_11__tree_nodeIxPvEElEE, symObjAddr: 0x84DC, symBinAddr: 0x10000C578, symSize: 0x1DC }
  - { offsetInCU: 0xD7C5, offset: 0xD7C5, size: 0x8, addend: 0x0, symName: __ZNSt3__16vectorIxNS_9allocatorIxEEE16__destroy_vectorclB8ue170006Ev, symObjAddr: 0x311C, symBinAddr: 0x1000071B8, symSize: 0x240 }
  - { offsetInCU: 0xD8F3, offset: 0xD8F3, size: 0x8, addend: 0x0, symName: __ZNSt3__16__treeIxNS_4lessIxEENS_9allocatorIxEEED1Ev, symObjAddr: 0x3C7C, symBinAddr: 0x100007D18, symSize: 0x64 }
  - { offsetInCU: 0xD95F, offset: 0xD95F, size: 0x8, addend: 0x0, symName: __ZNSt3__16vectorIxNS_9allocatorIxEEED1B8ue170006Ev, symObjAddr: 0x11DC, symBinAddr: 0x100005278, symSize: 0x1A0 }
  - { offsetInCU: 0xD9C0, offset: 0xD9C0, size: 0x8, addend: 0x0, symName: __ZNSt3__18multisetIxNS_4lessIxEENS_9allocatorIxEEED1B8ue170006Ev, symObjAddr: 0x137C, symBinAddr: 0x100005418, symSize: 0x58 }
  - { offsetInCU: 0xDA32, offset: 0xDA32, size: 0x8, addend: 0x0, symName: __ZNSt3__16__treeIxNS_4lessIxEENS_9allocatorIxEEE15__emplace_multiIJRKxEEENS_15__tree_iteratorIxPNS_11__tree_nodeIxPvEElEEDpOT_, symObjAddr: 0x4214, symBinAddr: 0x1000082B0, symSize: 0x31C }
  - { offsetInCU: 0xDC23, offset: 0xDC23, size: 0x8, addend: 0x0, symName: __ZNSt3__16__treeIxNS_4lessIxEENS_9allocatorIxEEE10__end_nodeB8ue170006Ev, symObjAddr: 0x390C, symBinAddr: 0x1000079A8, symSize: 0x70 }
  - { offsetInCU: 0xDD26, offset: 0xDD26, size: 0x8, addend: 0x0, symName: __ZNSt3__117__compressed_pairIPxNS_9allocatorIxEEEC2B8ue170006IDnNS_18__default_init_tagEEEOT_OT0_, symObjAddr: 0x1BF4, symBinAddr: 0x100005C90, symSize: 0xB0 }
  - { offsetInCU: 0xDDA5, offset: 0xDDA5, size: 0x8, addend: 0x0, symName: __ZNSt3__16vectorIxNS_9allocatorIxEEE11__vallocateB8ue170006Em, symObjAddr: 0x170C, symBinAddr: 0x1000057A8, symSize: 0x1A0 }
  - { offsetInCU: 0xDE90, offset: 0xDE90, size: 0x8, addend: 0x0, symName: __ZNSt3__16vectorIxNS_9allocatorIxEEE18__construct_at_endEm, symObjAddr: 0x18AC, symBinAddr: 0x100005948, symSize: 0x300 }
  - { offsetInCU: 0xDFCC, offset: 0xDFCC, size: 0x8, addend: 0x0, symName: __ZNSt3__128__exception_guard_exceptionsINS_6vectorIxNS_9allocatorIxEEE16__destroy_vectorEED2B8ue170006Ev, symObjAddr: 0x3038, symBinAddr: 0x1000070D4, symSize: 0xE4 }
  - { offsetInCU: 0xE00B, offset: 0xE00B, size: 0x8, addend: 0x0, symName: __ZNSt3__128__exception_guard_exceptionsINS_6vectorIxNS_9allocatorIxEEE16__destroy_vectorEED1B8ue170006Ev, symObjAddr: 0x1BAC, symBinAddr: 0x100005C48, symSize: 0x48 }
  - { offsetInCU: 0xE06F, offset: 0xE06F, size: 0x8, addend: 0x0, symName: __ZNKSt3__16vectorIxNS_9allocatorIxEEE7__allocB8ue170006Ev, symObjAddr: 0x2098, symBinAddr: 0x100006134, symSize: 0x70 }
  - { offsetInCU: 0xE0A4, offset: 0xE0A4, size: 0x8, addend: 0x0, symName: __ZNSt3__16vectorIxNS_9allocatorIxEEE7__allocB8ue170006Ev, symObjAddr: 0x1DA8, symBinAddr: 0x100005E44, symSize: 0x70 }
  - { offsetInCU: 0xE0D4, offset: 0xE0D4, size: 0x8, addend: 0x0, symName: __ZNSt3__117__compressed_pairIPxNS_9allocatorIxEEE5firstB8ue170006Ev, symObjAddr: 0x243C, symBinAddr: 0x1000064D8, symSize: 0xCC }
  - { offsetInCU: 0xE118, offset: 0xE118, size: 0x8, addend: 0x0, symName: __ZNKSt3__16vectorIxNS_9allocatorIxEEE14__annotate_newB8ue170006Em, symObjAddr: 0x1E18, symBinAddr: 0x100005EB4, symSize: 0x280 }
  - { offsetInCU: 0xE20E, offset: 0xE20E, size: 0x8, addend: 0x0, symName: __ZNKSt3__16vectorIxNS_9allocatorIxEEE20__throw_length_errorB8ue170006Ev, symObjAddr: 0x1D20, symBinAddr: 0x100005DBC, symSize: 0x44 }
  - { offsetInCU: 0xE324, offset: 0xE324, size: 0x8, addend: 0x0, symName: __ZNSt3__16vectorIxNS_9allocatorIxEEE21_ConstructTransactionC2B8ue170006ERS3_m, symObjAddr: 0x26D0, symBinAddr: 0x10000676C, symSize: 0x194 }
  - { offsetInCU: 0xE37C, offset: 0xE37C, size: 0x8, addend: 0x0, symName: __ZNSt3__117__compressed_pairIPxNS_9allocatorIxEEE6secondB8ue170006Ev, symObjAddr: 0x2368, symBinAddr: 0x100006404, symSize: 0xD4 }
  - { offsetInCU: 0xE3BF, offset: 0xE3BF, size: 0x8, addend: 0x0, symName: __ZNSt3__16vectorIxNS_9allocatorIxEEE21_ConstructTransactionD2B8ue170006Ev, symObjAddr: 0x2BC8, symBinAddr: 0x100006C64, symSize: 0x214 }
  - { offsetInCU: 0xE426, offset: 0xE426, size: 0x8, addend: 0x0, symName: __ZNSt3__122__compressed_pair_elemINS_9allocatorIxEELi1ELb1EEC2B8ue170006ENS_18__default_init_tagE, symObjAddr: 0x1CA4, symBinAddr: 0x100005D40, symSize: 0x7C }
  - { offsetInCU: 0xE551, offset: 0xE551, size: 0x8, addend: 0x0, symName: __ZNKSt3__16vectorIxNS_9allocatorIxEEE8capacityB8ue170006Ev, symObjAddr: 0x2508, symBinAddr: 0x1000065A4, symSize: 0x8C }
  - { offsetInCU: 0xE58C, offset: 0xE58C, size: 0x8, addend: 0x0, symName: __ZNKSt3__117__compressed_pairIPxNS_9allocatorIxEEE6secondB8ue170006Ev, symObjAddr: 0x2114, symBinAddr: 0x1000061B0, symSize: 0xD4 }
  - { offsetInCU: 0xE5EB, offset: 0xE5EB, size: 0x8, addend: 0x0, symName: __ZNSt12length_errorC1B8ue170006EPKc, symObjAddr: 0x2260, symBinAddr: 0x1000062FC, symSize: 0xAC }
  - { offsetInCU: 0xE69B, offset: 0xE69B, size: 0x8, addend: 0x0, symName: __ZNKSt3__16vectorIxNS_9allocatorIxEEE9__end_capB8ue170006Ev, symObjAddr: 0x2594, symBinAddr: 0x100006630, symSize: 0x70 }
  - { offsetInCU: 0xE6D0, offset: 0xE6D0, size: 0x8, addend: 0x0, symName: __ZNKSt3__117__compressed_pairIPxNS_9allocatorIxEEE5firstB8ue170006Ev, symObjAddr: 0x2604, symBinAddr: 0x1000066A0, symSize: 0xCC }
  - { offsetInCU: 0xE730, offset: 0xE730, size: 0x8, addend: 0x0, symName: __ZNKSt3__16vectorIxNS_9allocatorIxEEE19__annotate_increaseB8ue170006Em, symObjAddr: 0x2864, symBinAddr: 0x100006900, symSize: 0x2D8 }
  - { offsetInCU: 0xE83A, offset: 0xE83A, size: 0x8, addend: 0x0, symName: __ZNKSt3__16vectorIxNS_9allocatorIxEEE4sizeB8ue170006Ev, symObjAddr: 0x2B3C, symBinAddr: 0x100006BD8, symSize: 0x8C }
  - { offsetInCU: 0xE861, offset: 0xE861, size: 0x8, addend: 0x0, symName: __ZNKSt3__16vectorIxNS_9allocatorIxEEE17__annotate_shrinkB8ue170006Em, symObjAddr: 0x2DDC, symBinAddr: 0x100006E78, symSize: 0x25C }
  - { offsetInCU: 0xE9C5, offset: 0xE9C5, size: 0x8, addend: 0x0, symName: __ZNSt3__16vectorIxNS_9allocatorIxEEE22__base_destruct_at_endB8ue170006EPx, symObjAddr: 0x35CC, symBinAddr: 0x100007668, symSize: 0xE8 }
  - { offsetInCU: 0xEA20, offset: 0xEA20, size: 0x8, addend: 0x0, symName: __ZNKSt3__16vectorIxNS_9allocatorIxEEE17__annotate_deleteB8ue170006Ev, symObjAddr: 0x335C, symBinAddr: 0x1000073F8, symSize: 0x270 }
  - { offsetInCU: 0xEB9D, offset: 0xEB9D, size: 0x8, addend: 0x0, symName: __ZNSt3__117__compressed_pairINS_15__tree_end_nodeIPNS_16__tree_node_baseIPvEEEENS_9allocatorINS_11__tree_nodeIxS3_EEEEEC2B8ue170006ILb1EvEEv, symObjAddr: 0x397C, symBinAddr: 0x100007A18, symSize: 0xD0 }
  - { offsetInCU: 0xEC24, offset: 0xEC24, size: 0x8, addend: 0x0, symName: __ZNSt3__117__compressed_pairImNS_4lessIxEEEC2B8ue170006IiRKS2_EEOT_OT0_, symObjAddr: 0x3AC8, symBinAddr: 0x100007B64, symSize: 0xE8 }
  - { offsetInCU: 0xEC9E, offset: 0xEC9E, size: 0x8, addend: 0x0, symName: __ZNSt3__117__compressed_pairINS_15__tree_end_nodeIPNS_16__tree_node_baseIPvEEEENS_9allocatorINS_11__tree_nodeIxS3_EEEEE5firstB8ue170006Ev, symObjAddr: 0x3BB0, symBinAddr: 0x100007C4C, symSize: 0xCC }
  - { offsetInCU: 0xED38, offset: 0xED38, size: 0x8, addend: 0x0, symName: __ZNSt3__122__compressed_pair_elemINS_9allocatorINS_11__tree_nodeIxPvEEEELi1ELb1EEC2B8ue170006ENS_16__value_init_tagE, symObjAddr: 0x3A4C, symBinAddr: 0x100007AE8, symSize: 0x7C }
  - { offsetInCU: 0xEE48, offset: 0xEE48, size: 0x8, addend: 0x0, symName: __ZNKSt3__16__treeIxNS_4lessIxEENS_9allocatorIxEEE6__rootB8ue170006Ev, symObjAddr: 0x3EB0, symBinAddr: 0x100007F4C, symSize: 0xE4 }
  - { offsetInCU: 0xEE7C, offset: 0xEE7C, size: 0x8, addend: 0x0, symName: __ZNSt3__16__treeIxNS_4lessIxEENS_9allocatorIxEEE7destroyEPNS_11__tree_nodeIxPvEE, symObjAddr: 0x3CE0, symBinAddr: 0x100007D7C, symSize: 0x1D0 }
  - { offsetInCU: 0xF00E, offset: 0xF00E, size: 0x8, addend: 0x0, symName: __ZNSt3__16__treeIxNS_4lessIxEENS_9allocatorIxEEE12__node_allocB8ue170006Ev, symObjAddr: 0x3F94, symBinAddr: 0x100008030, symSize: 0x70 }
  - { offsetInCU: 0xF043, offset: 0xF043, size: 0x8, addend: 0x0, symName: __ZNKSt3__16__treeIxNS_4lessIxEENS_9allocatorIxEEE10__end_nodeB8ue170006Ev, symObjAddr: 0x40D8, symBinAddr: 0x100008174, symSize: 0x70 }
  - { offsetInCU: 0xF078, offset: 0xF078, size: 0x8, addend: 0x0, symName: __ZNSt3__117__compressed_pairINS_15__tree_end_nodeIPNS_16__tree_node_baseIPvEEEENS_9allocatorINS_11__tree_nodeIxS3_EEEEE6secondB8ue170006Ev, symObjAddr: 0x4004, symBinAddr: 0x1000080A0, symSize: 0xD4 }
  - { offsetInCU: 0xF0D1, offset: 0xF0D1, size: 0x8, addend: 0x0, symName: __ZNKSt3__117__compressed_pairINS_15__tree_end_nodeIPNS_16__tree_node_baseIPvEEEENS_9allocatorINS_11__tree_nodeIxS3_EEEEE5firstB8ue170006Ev, symObjAddr: 0x4148, symBinAddr: 0x1000081E4, symSize: 0xCC }
  - { offsetInCU: 0xF1EF, offset: 0xF1EF, size: 0x8, addend: 0x0, symName: __ZNSt3__16__treeIxNS_4lessIxEENS_9allocatorIxEEE16__construct_nodeIJRKxEEENS_10unique_ptrINS_11__tree_nodeIxPvEENS_22__tree_node_destructorINS3_ISC_EEEEEEDpOT_, symObjAddr: 0x4530, symBinAddr: 0x1000085CC, symSize: 0x338 }
  - { offsetInCU: 0xF3DE, offset: 0xF3DE, size: 0x8, addend: 0x0, symName: __ZNKSt3__117__compressed_pairIPNS_11__tree_nodeIxPvEENS_22__tree_node_destructorINS_9allocatorIS3_EEEEE5firstB8ue170006Ev, symObjAddr: 0x579C, symBinAddr: 0x100009838, symSize: 0xCC }
  - { offsetInCU: 0xF422, offset: 0xF422, size: 0x8, addend: 0x0, symName: __ZNSt3__16__treeIxNS_4lessIxEENS_9allocatorIxEEE16__find_leaf_highERPNS_15__tree_end_nodeIPNS_16__tree_node_baseIPvEEEERKx, symObjAddr: 0x4868, symBinAddr: 0x100008904, symSize: 0x458 }
  - { offsetInCU: 0xF4D7, offset: 0xF4D7, size: 0x8, addend: 0x0, symName: __ZNSt3__16__treeIxNS_4lessIxEENS_9allocatorIxEEE16__insert_node_atEPNS_15__tree_end_nodeIPNS_16__tree_node_baseIPvEEEERSA_SA_, symObjAddr: 0x4CC0, symBinAddr: 0x100008D5C, symSize: 0x4BC }
  - { offsetInCU: 0xF5BC, offset: 0xF5BC, size: 0x8, addend: 0x0, symName: __ZNSt3__110unique_ptrINS_11__tree_nodeIxPvEENS_22__tree_node_destructorINS_9allocatorIS3_EEEEE7releaseB8ue170006Ev, symObjAddr: 0x517C, symBinAddr: 0x100009218, symSize: 0xC0 }
  - { offsetInCU: 0xF61B, offset: 0xF61B, size: 0x8, addend: 0x0, symName: __ZNSt3__110unique_ptrINS_11__tree_nodeIxPvEENS_22__tree_node_destructorINS_9allocatorIS3_EEEEE5resetB8ue170006EPS3_, symObjAddr: 0x7B00, symBinAddr: 0x10000BB9C, symSize: 0x104 }
  - { offsetInCU: 0xF6B2, offset: 0xF6B2, size: 0x8, addend: 0x0, symName: __ZNSt3__110unique_ptrINS_11__tree_nodeIxPvEENS_22__tree_node_destructorINS_9allocatorIS3_EEEEED1B8ue170006Ev, symObjAddr: 0x523C, symBinAddr: 0x1000092D8, symSize: 0x5C }
  - { offsetInCU: 0xF84C, offset: 0xF84C, size: 0x8, addend: 0x0, symName: __ZNSt3__110unique_ptrINS_11__tree_nodeIxPvEENS_22__tree_node_destructorINS_9allocatorIS3_EEEEEC1B8ue170006ILb1EvEEPS3_NS_16__dependent_typeINS_27__unique_ptr_deleter_sfinaeIS7_EEXT_EE20__good_rval_ref_typeE, symObjAddr: 0x5298, symBinAddr: 0x100009334, symSize: 0x20C }
  - { offsetInCU: 0xF902, offset: 0xF902, size: 0x8, addend: 0x0, symName: __ZNSt3__117__compressed_pairIPNS_11__tree_nodeIxPvEENS_22__tree_node_destructorINS_9allocatorIS3_EEEEE6secondB8ue170006Ev, symObjAddr: 0x55A8, symBinAddr: 0x100009644, symSize: 0xB0 }
  - { offsetInCU: 0xF97B, offset: 0xF97B, size: 0x8, addend: 0x0, symName: __ZNSt3__16__treeIxNS_4lessIxEENS_9allocatorIxEEE10value_compB8ue170006Ev, symObjAddr: 0x5658, symBinAddr: 0x1000096F4, symSize: 0x70 }
  - { offsetInCU: 0xF9B0, offset: 0xF9B0, size: 0x8, addend: 0x0, symName: __ZNSt3__16__treeIxNS_4lessIxEENS_9allocatorIxEEE4sizeB8ue170006Ev, symObjAddr: 0x6A20, symBinAddr: 0x10000AABC, symSize: 0x70 }
  - { offsetInCU: 0xF9E5, offset: 0xF9E5, size: 0x8, addend: 0x0, symName: __ZNSt3__117__compressed_pairIPNS_11__tree_nodeIxPvEENS_22__tree_node_destructorINS_9allocatorIS3_EEEEE5firstB8ue170006Ev, symObjAddr: 0x7A34, symBinAddr: 0x10000BAD0, symSize: 0xCC }
  - { offsetInCU: 0xFAA6, offset: 0xFAA6, size: 0x8, addend: 0x0, symName: __ZNSt3__117__compressed_pairIPNS_11__tree_nodeIxPvEENS_22__tree_node_destructorINS_9allocatorIS3_EEEEEC2B8ue170006IRS4_S8_EEOT_OT0_, symObjAddr: 0x54A4, symBinAddr: 0x100009540, symSize: 0x104 }
  - { offsetInCU: 0xFBB3, offset: 0xFBB3, size: 0x8, addend: 0x0, symName: __ZNSt3__117__compressed_pairImNS_4lessIxEEE6secondB8ue170006Ev, symObjAddr: 0x56C8, symBinAddr: 0x100009764, symSize: 0xD4 }
  - { offsetInCU: 0xFC44, offset: 0xFC44, size: 0x8, addend: 0x0, symName: __ZNSt3__117__compressed_pairImNS_4lessIxEEE5firstB8ue170006Ev, symObjAddr: 0x7968, symBinAddr: 0x10000BA04, symSize: 0xCC }
  - { offsetInCU: 0xFC88, offset: 0xFC88, size: 0x8, addend: 0x0, symName: __ZNKSt3__116__tree_node_baseIPvE15__parent_unsafeB8ue170006Ev, symObjAddr: 0x6A90, symBinAddr: 0x10000AB2C, symSize: 0x9C }
  - { offsetInCU: 0xFCF8, offset: 0xFCF8, size: 0x8, addend: 0x0, symName: __ZNSt3__122__tree_node_destructorINS_9allocatorINS_11__tree_nodeIxPvEEEEEclB8ue170006EPS4_, symObjAddr: 0x7C04, symBinAddr: 0x10000BCA0, symSize: 0x1C8 }
  - { offsetInCU: 0xFDFC, offset: 0xFDFC, size: 0x8, addend: 0x0, symName: __ZNSt3__16__treeIxNS_4lessIxEENS_9allocatorIxEEE13__lower_boundIxEENS_15__tree_iteratorIxPNS_11__tree_nodeIxPvEElEERKT_SB_PNS_15__tree_end_nodeIPNS_16__tree_node_baseIS9_EEEE, symObjAddr: 0x81DC, symBinAddr: 0x10000C278, symSize: 0x224 }
  - { offsetInCU: 0xFE92, offset: 0xFE92, size: 0x8, addend: 0x0, symName: __ZNKSt3__115__tree_iteratorIxPNS_11__tree_nodeIxPvEElEdeB8ue170006Ev, symObjAddr: 0x8400, symBinAddr: 0x10000C49C, symSize: 0xDC }
  - { offsetInCU: 0xFEEC, offset: 0xFEEC, size: 0x8, addend: 0x0, symName: __ZNSt3__16__treeIxNS_4lessIxEENS_9allocatorIxEEE21__remove_node_pointerEPNS_11__tree_nodeIxPvEE, symObjAddr: 0x86B8, symBinAddr: 0x10000C754, symSize: 0x348 }
  - { offsetInCU: 0xFFF0, offset: 0xFFF0, size: 0x8, addend: 0x0, symName: __ZNSt3__115__tree_iteratorIxPNS_11__tree_nodeIxPvEElEppB8ue170006Ev, symObjAddr: 0x8A00, symBinAddr: 0x10000CA9C, symSize: 0xD8 }
  - { offsetInCU: 0x100A6, offset: 0x100A6, size: 0x8, addend: 0x0, symName: __ZNSt3__119ostreambuf_iteratorIcNS_11char_traitsIcEEEC2B8ue170006ERNS_13basic_ostreamIcS2_EE, symObjAddr: 0xEC14, symBinAddr: 0x100012CB0, symSize: 0x298 }
  - { offsetInCU: 0x10103, offset: 0x10103, size: 0x8, addend: 0x0, symName: __ZNKSt3__19basic_iosIcNS_11char_traitsIcEEE4fillB8ue170006Ev, symObjAddr: 0xE2AC, symBinAddr: 0x100012348, symSize: 0x248 }
  - { offsetInCU: 0x10146, offset: 0x10146, size: 0x8, addend: 0x0, symName: __ZNSt3__19basic_iosIcNS_11char_traitsIcEEE8setstateB8ue170006Ej, symObjAddr: 0xE4F4, symBinAddr: 0x100012590, symSize: 0xFC }
  - { offsetInCU: 0x1024F, offset: 0x1024F, size: 0x8, addend: 0x0, symName: __ZNSt3__117__compressed_pairINS_12basic_stringIcNS_11char_traitsIcEENS_9allocatorIcEEE5__repES5_EC1B8ue170006INS_18__default_init_tagESA_EEOT_OT0_, symObjAddr: 0xE790, symBinAddr: 0x10001282C, symSize: 0x98 }
  - { offsetInCU: 0x102EC, offset: 0x102EC, size: 0x8, addend: 0x0, symName: __ZNSt3__112basic_stringIcNS_11char_traitsIcEENS_9allocatorIcEEE13__get_pointerB8ue170006Ev, symObjAddr: 0xE9C8, symBinAddr: 0x100012A64, symSize: 0x5C }
  - { offsetInCU: 0x1034F, offset: 0x1034F, size: 0x8, addend: 0x0, symName: __ZNSt3__18ios_base5widthB8ue170006El, symObjAddr: 0xE5F0, symBinAddr: 0x10001268C, symSize: 0x1A0 }
  - { offsetInCU: 0x10398, offset: 0x10398, size: 0x8, addend: 0x0, symName: __ZNKSt3__19basic_iosIcNS_11char_traitsIcEEE5widenB8ue170006Ec, symObjAddr: 0xEF8C, symBinAddr: 0x100013028, symSize: 0x340 }
  - { offsetInCU: 0x1041B, offset: 0x1041B, size: 0x8, addend: 0x0, symName: __ZNSt3__18ios_base8setstateB8ue170006Ej, symObjAddr: 0xF3CC, symBinAddr: 0x100013468, symSize: 0x19C }
  - { offsetInCU: 0x104B8, offset: 0x104B8, size: 0x8, addend: 0x0, symName: __ZNSt3__122__compressed_pair_elemINS_9allocatorIcEELi1ELb1EEC2B8ue170006ENS_18__default_init_tagE, symObjAddr: 0xE828, symBinAddr: 0x1000128C4, symSize: 0x7C }
  - { offsetInCU: 0x10567, offset: 0x10567, size: 0x8, addend: 0x0, symName: __ZNSt3__112basic_stringIcNS_11char_traitsIcEENS_9allocatorIcEEE19__get_short_pointerB8ue170006Ev, symObjAddr: 0xE8A4, symBinAddr: 0x100012940, symSize: 0x58 }
  - { offsetInCU: 0x1059C, offset: 0x1059C, size: 0x8, addend: 0x0, symName: __ZNSt3__117__compressed_pairINS_12basic_stringIcNS_11char_traitsIcEENS_9allocatorIcEEE5__repES5_E5firstB8ue170006Ev, symObjAddr: 0xE8FC, symBinAddr: 0x100012998, symSize: 0xCC }
  - { offsetInCU: 0x105F6, offset: 0x105F6, size: 0x8, addend: 0x0, symName: __ZNKSt3__112basic_stringIcNS_11char_traitsIcEENS_9allocatorIcEEE9__is_longB8ue170006Ev, symObjAddr: 0xEA24, symBinAddr: 0x100012AC0, symSize: 0x9C }
  - { offsetInCU: 0x1062A, offset: 0x1062A, size: 0x8, addend: 0x0, symName: __ZNSt3__112basic_stringIcNS_11char_traitsIcEENS_9allocatorIcEEE18__get_long_pointerB8ue170006Ev, symObjAddr: 0xEAC0, symBinAddr: 0x100012B5C, symSize: 0x88 }
  - { offsetInCU: 0x1065E, offset: 0x1065E, size: 0x8, addend: 0x0, symName: __ZNKSt3__117__compressed_pairINS_12basic_stringIcNS_11char_traitsIcEENS_9allocatorIcEEE5__repES5_E5firstB8ue170006Ev, symObjAddr: 0xEB48, symBinAddr: 0x100012BE4, symSize: 0xCC }
  - { offsetInCU: 0x106DC, offset: 0x106DC, size: 0x8, addend: 0x0, symName: __ZNKSt3__18ios_base5rdbufB8ue170006Ev, symObjAddr: 0xEEAC, symBinAddr: 0x100012F48, symSize: 0xE0 }
...
