---
triple:          'arm64-apple-darwin'
binary-path:     D. Counting Points
relocations:
  - { offsetInCU: 0x3B, offset: 0x3B, size: 0x8, addend: 0x0, symName: _.str, symObjAddr: 0x1CCA0, symBinAddr: 0x100021000, symSize: 0x0 }
  - { offsetInCU: 0x6B, offset: 0x6B, size: 0x8, addend: 0x0, symName: _.str.1, symObjAddr: 0x1CCC0, symBinAddr: 0x100021020, symSize: 0x0 }
  - { offsetInCU: 0x7C, offset: 0x7C, size: 0x8, addend: 0x0, symName: _.str.2, symObjAddr: 0x1CCE0, symBinAddr: 0x100021040, symSize: 0x0 }
  - { offsetInCU: 0x8D, offset: 0x8D, size: 0x8, addend: 0x0, symName: _.str.3, symObjAddr: 0x19DE0, symBinAddr: 0x10001E100, symSize: 0x0 }
  - { offsetInCU: 0xAA, offset: 0xAA, size: 0x8, addend: 0x0, symName: _.str.4, symObjAddr: 0x1CD00, symBinAddr: 0x100021060, symSize: 0x0 }
  - { offsetInCU: 0xBB, offset: 0xBB, size: 0x8, addend: 0x0, symName: _.str.6, symObjAddr: 0x1CD20, symBinAddr: 0x100021080, symSize: 0x0 }
  - { offsetInCU: 0xD8, offset: 0xD8, size: 0x8, addend: 0x0, symName: _.str.7, symObjAddr: 0x1CD40, symBinAddr: 0x1000210A0, symSize: 0x0 }
  - { offsetInCU: 0xE9, offset: 0xE9, size: 0x8, addend: 0x0, symName: _.str.8, symObjAddr: 0x1CD60, symBinAddr: 0x1000210C0, symSize: 0x0 }
  - { offsetInCU: 0xFB, offset: 0xFB, size: 0x8, addend: 0x0, symName: _.str.21, symObjAddr: 0x1CD80, symBinAddr: 0x1000210E0, symSize: 0x0 }
  - { offsetInCU: 0x119, offset: 0x119, size: 0x8, addend: 0x0, symName: _.str.33, symObjAddr: 0x1CDA0, symBinAddr: 0x100021100, symSize: 0x0 }
  - { offsetInCU: 0x136, offset: 0x136, size: 0x8, addend: 0x0, symName: _.str.49, symObjAddr: 0x1CDC0, symBinAddr: 0x100021120, symSize: 0x0 }
  - { offsetInCU: 0x147, offset: 0x147, size: 0x8, addend: 0x0, symName: _.str.50, symObjAddr: 0x1CDE0, symBinAddr: 0x100021140, symSize: 0x0 }
  - { offsetInCU: 0x341F, offset: 0x341F, size: 0x8, addend: 0x0, symName: __ZNSt3__124__put_character_sequenceB8ue170006IcNS_11char_traitsIcEEEERNS_13basic_ostreamIT_T0_EES7_PKS4_m, symObjAddr: 0x4288, symBinAddr: 0x100008278, symSize: 0x910 }
  - { offsetInCU: 0x6783, offset: 0x6783, size: 0x8, addend: 0x0, symName: '__ZNSt3__111__introsortINS_17_ClassicAlgPolicyERZ5solvevE3$_0P4circLb0EEEvT1_S6_T0_NS_15iterator_traitsIS6_E15difference_typeEb', symObjAddr: 0x8DAC, symBinAddr: 0x10000CD9C, symSize: 0x4BC0 }
  - { offsetInCU: 0x715A, offset: 0x715A, size: 0x8, addend: 0x0, symName: '__ZNSt3__127__insertion_sort_incompleteB8ue170006INS_17_ClassicAlgPolicyERZ5solvevE3$_0P4circEEbT1_S6_T0_', symObjAddr: 0xE948, symBinAddr: 0x100012938, symSize: 0xE20 }
  - { offsetInCU: 0x91EF, offset: 0x91EF, size: 0x8, addend: 0x0, symName: __ZNSt3__111__introsortINS_17_ClassicAlgPolicyERNS_6__lessIvvEEPNS_4pairIiiEELb0EEEvT1_S8_T0_NS_15iterator_traitsIS8_E15difference_typeEb, symObjAddr: 0x13B08, symBinAddr: 0x100017AF8, symSize: 0xF50 }
  - { offsetInCU: 0x95D9, offset: 0x95D9, size: 0x8, addend: 0x0, symName: __ZNSt3__126__insertion_sort_unguardedB8ue170006INS_17_ClassicAlgPolicyERNS_6__lessIvvEEPNS_4pairIiiEEEEvT1_S8_T0_, symObjAddr: 0x15030, symBinAddr: 0x100019020, symSize: 0x420 }
  - { offsetInCU: 0x9741, offset: 0x9741, size: 0x8, addend: 0x0, symName: __ZNSt3__111__sift_downB8ue170006INS_17_ClassicAlgPolicyERNS_6__lessIvvEEPNS_4pairIiiEEEEvT1_OT0_NS_15iterator_traitsIS8_E15difference_typeES8_, symObjAddr: 0x18228, symBinAddr: 0x10001C218, symSize: 0x5FC }
  - { offsetInCU: 0x98C7, offset: 0x98C7, size: 0x8, addend: 0x0, symName: __ZNSt3__117__floyd_sift_downB8ue170006INS_17_ClassicAlgPolicyERNS_6__lessIvvEEPNS_4pairIiiEEEET1_S8_OT0_NS_15iterator_traitsIS8_E15difference_typeE, symObjAddr: 0x18B4C, symBinAddr: 0x10001CB3C, symSize: 0x2BC }
  - { offsetInCU: 0x99AD, offset: 0x99AD, size: 0x8, addend: 0x0, symName: __ZNSt3__131__partition_with_equals_on_leftB8ue170006INS_17_ClassicAlgPolicyEPNS_4pairIiiEERNS_6__lessIvvEEEET0_S8_S8_T1_, symObjAddr: 0x15988, symBinAddr: 0x100019978, symSize: 0x764 }
  - { offsetInCU: 0x9B9B, offset: 0x9B9B, size: 0x8, addend: 0x0, symName: __ZNSt3__132__partition_with_equals_on_rightB8ue170006INS_17_ClassicAlgPolicyEPNS_4pairIiiEERNS_6__lessIvvEEEENS2_IT0_bEES8_S8_T1_, symObjAddr: 0x160EC, symBinAddr: 0x10001A0DC, symSize: 0x7D8 }
  - { offsetInCU: 0x9DBE, offset: 0x9DBE, size: 0x8, addend: 0x0, symName: __ZNSt3__127__insertion_sort_incompleteB8ue170006INS_17_ClassicAlgPolicyERNS_6__lessIvvEEPNS_4pairIiiEEEEbT1_S8_T0_, symObjAddr: 0x168C4, symBinAddr: 0x10001A8B4, symSize: 0x978 }
  - { offsetInCU: 0xACCC, offset: 0xACCC, size: 0x8, addend: 0x0, symName: __ZNSt3__1lsB8ue170006IcNS_11char_traitsIcEENS_9allocatorIcEEEERNS_13basic_ostreamIT_T0_EES9_RKNS_12basic_stringIS6_S7_T1_EE, symObjAddr: 0xB8C, symBinAddr: 0x100004B7C, symSize: 0x48 }
  - { offsetInCU: 0xAD86, offset: 0xAD86, size: 0x8, addend: 0x0, symName: __ZNSt3__1neB8ue170006ERKNS_14__bit_iteratorINS_6vectorIbNS_9allocatorIbEEEELb0ELm0EEES7_, symObjAddr: 0x1104, symBinAddr: 0x1000050F4, symSize: 0xC4 }
  - { offsetInCU: 0xB171, offset: 0xB171, size: 0x8, addend: 0x0, symName: __ZNSt3__1eqB8ue170006IPNS_4pairIiiEEEEbRKNS_11__wrap_iterIT_EES8_, symObjAddr: 0x4230, symBinAddr: 0x100008220, symSize: 0x58 }
  - { offsetInCU: 0xB1CE, offset: 0xB1CE, size: 0x8, addend: 0x0, symName: __ZNSt3__116__pad_and_outputB8ue170006IcNS_11char_traitsIcEEEENS_19ostreambuf_iteratorIT_T0_EES6_PKS4_S8_S8_RNS_8ios_baseES4_, symObjAddr: 0x4B98, symBinAddr: 0x100008B88, symSize: 0x800 }
  - { offsetInCU: 0xB431, offset: 0xB431, size: 0x8, addend: 0x0, symName: __ZNSt3__120__throw_length_errorB8ue170006EPKc, symObjAddr: 0x59F4, symBinAddr: 0x1000099E4, symSize: 0x78 }
  - { offsetInCU: 0xB90E, offset: 0xB90E, size: 0x8, addend: 0x0, symName: __ZNSt3__19use_facetB8ue170006INS_5ctypeIcEEEERKT_RKNS_6localeE, symObjAddr: 0x6544, symBinAddr: 0x10000A534, symSize: 0x100 }
  - { offsetInCU: 0xB969, offset: 0xB969, size: 0x8, addend: 0x0, symName: __ZNSt3__119__allocate_at_leastB8ue170006INS_9allocatorI4circEEEENS_19__allocation_resultINS_16allocator_traitsIT_E7pointerEEERS6_m, symObjAddr: 0x75E8, symBinAddr: 0x10000B5D8, symSize: 0x44 }
  - { offsetInCU: 0xC424, offset: 0xC424, size: 0x8, addend: 0x0, symName: '__ZNSt3__17__sort3B8ue170006INS_17_ClassicAlgPolicyERZ5solvevE3$_0P4circEEjT1_S6_S6_T0_', symObjAddr: 0xE120, symBinAddr: 0x100012110, symSize: 0x66C }
  - { offsetInCU: 0xC56D, offset: 0xC56D, size: 0x8, addend: 0x0, symName: '__ZNSt3__124__sort5_maybe_branchlessB8ue170006INS_17_ClassicAlgPolicyERZ5solvevE3$_0P4circEENS_9enable_ifIXntsr21__use_branchless_sortIT0_T1_EE5valueEvE4typeES8_S8_S8_S8_S8_S7_', symObjAddr: 0xDB28, symBinAddr: 0x100011B18, symSize: 0x5F8 }
  - { offsetInCU: 0xC731, offset: 0xC731, size: 0x8, addend: 0x0, symName: '__ZNSt3__17__sort4B8ue170006INS_17_ClassicAlgPolicyERZ5solvevE3$_0P4circEEvT1_S6_S6_S6_T0_', symObjAddr: 0xF768, symBinAddr: 0x100013758, symSize: 0x4C0 }
  - { offsetInCU: 0xC9A3, offset: 0xC9A3, size: 0x8, addend: 0x0, symName: __ZNSt3__142__uninitialized_allocator_move_if_noexceptB8ue170006INS_9allocatorINS_4pairIiiEEEENS_16reverse_iteratorIPS3_EES7_S7_EET2_RT_T0_T1_S8_, symObjAddr: 0x12578, symBinAddr: 0x100016568, symSize: 0x4C4 }
  - { offsetInCU: 0xCBB8, offset: 0xCBB8, size: 0x8, addend: 0x0, symName: __ZNSt3__119__allocate_at_leastB8ue170006INS_9allocatorINS_4pairIiiEEEEEENS_19__allocation_resultINS_16allocator_traitsIT_E7pointerEEERS7_m, symObjAddr: 0x121FC, symBinAddr: 0x1000161EC, symSize: 0x44 }
  - { offsetInCU: 0xCD06, offset: 0xCD06, size: 0x8, addend: 0x0, symName: __ZNSt3__119__allocator_destroyB8ue170006INS_9allocatorINS_4pairIiiEEEENS_16reverse_iteratorINS5_IPS3_EEEES8_EEvRT_T0_T1_, symObjAddr: 0x131A4, symBinAddr: 0x100017194, symSize: 0x140 }
  - { offsetInCU: 0xCEA3, offset: 0xCEA3, size: 0x8, addend: 0x0, symName: __ZNSt3__112__to_addressB8ue170006INS_16reverse_iteratorINS1_IPNS_4pairIiiEEEEEEvEEu7__decayIDTclsr19__to_address_helperIT_EE6__callclsr3stdE7declvalIRKS7_EEEEES9_, symObjAddr: 0x132E4, symBinAddr: 0x1000172D4, symSize: 0x2C }
  - { offsetInCU: 0xD08D, offset: 0xD08D, size: 0x8, addend: 0x0, symName: __ZNSt3__17__sort3B8ue170006INS_17_ClassicAlgPolicyERNS_6__lessIvvEEPNS_4pairIiiEEEEjT1_S8_S8_T0_, symObjAddr: 0x15450, symBinAddr: 0x100019440, symSize: 0x48C }
  - { offsetInCU: 0xD214, offset: 0xD214, size: 0x8, addend: 0x0, symName: __ZNSt3__17__sort5B8ue170006INS_17_ClassicAlgPolicyERNS_6__lessIvvEEPNS_4pairIiiEEEEvT1_S8_S8_S8_S8_T0_, symObjAddr: 0x177E4, symBinAddr: 0x10001B7D4, symSize: 0x498 }
  - { offsetInCU: 0xD3C0, offset: 0xD3C0, size: 0x8, addend: 0x0, symName: __ZNSt3__17__sort4B8ue170006INS_17_ClassicAlgPolicyERNS_6__lessIvvEEPNS_4pairIiiEEEEvT1_S8_S8_S8_T0_, symObjAddr: 0x17420, symBinAddr: 0x10001B410, symSize: 0x3C4 }
  - { offsetInCU: 0xD512, offset: 0xD512, size: 0x8, addend: 0x0, symName: __ZNSt3__116__insertion_sortB8ue170006INS_17_ClassicAlgPolicyERNS_6__lessIvvEEPNS_4pairIiiEEEEvT1_S8_T0_, symObjAddr: 0x14C2C, symBinAddr: 0x100018C1C, symSize: 0x404 }
  - { offsetInCU: 0xD654, offset: 0xD654, size: 0x8, addend: 0x0, symName: __ZNSt3__119__partial_sort_implB8ue170006INS_17_ClassicAlgPolicyERNS_6__lessIvvEEPNS_4pairIiiEES7_EET1_S8_S8_T2_OT0_, symObjAddr: 0x17DB4, symBinAddr: 0x10001BDA4, symSize: 0x474 }
  - { offsetInCU: 0xDB42, offset: 0xDB42, size: 0x8, addend: 0x0, symName: __ZNSt3__110__pop_heapB8ue170006INS_17_ClassicAlgPolicyENS_6__lessIvvEEPNS_4pairIiiEEEEvT1_S7_RT0_NS_15iterator_traitsIS7_E15difference_typeE, symObjAddr: 0x18824, symBinAddr: 0x10001C814, symSize: 0x328 }
  - { offsetInCU: 0xDC97, offset: 0xDC97, size: 0x8, addend: 0x0, symName: __ZNSt3__19__sift_upB8ue170006INS_17_ClassicAlgPolicyERNS_6__lessIvvEEPNS_4pairIiiEEEEvT1_S8_OT0_NS_15iterator_traitsIS8_E15difference_typeE, symObjAddr: 0x18E08, symBinAddr: 0x10001CDF8, symSize: 0x3F4 }
  - { offsetInCU: 0xE19E, offset: 0xE19E, size: 0x8, addend: 0x0, symName: __ZSt28__throw_bad_array_new_lengthB8ue170006v, symObjAddr: 0x5BE4, symBinAddr: 0x100009BD4, symSize: 0x5C }
  - { offsetInCU: 0xEB78, offset: 0xEB78, size: 0x8, addend: 0x0, symName: __ZNSt3__16vectorINS_4pairIiiEENS_9allocatorIS2_EEE26__swap_out_circular_bufferERNS_14__split_bufferIS2_RS4_EE, symObjAddr: 0x119E8, symBinAddr: 0x1000159D8, symSize: 0x2E8 }
  - { offsetInCU: 0x1132F, offset: 0x1132F, size: 0x8, addend: 0x0, symName: __ZN14__DEBUG_UTIL__5printEPKc, symObjAddr: 0x0, symBinAddr: 0x100003FF0, symSize: 0x30 }
  - { offsetInCU: 0x113BD, offset: 0x113BD, size: 0x8, addend: 0x0, symName: __ZN14__DEBUG_UTIL__5printEb, symObjAddr: 0x30, symBinAddr: 0x100004020, symSize: 0x28 }
  - { offsetInCU: 0x11418, offset: 0x11418, size: 0x8, addend: 0x0, symName: __ZN14__DEBUG_UTIL__5printEc, symObjAddr: 0x58, symBinAddr: 0x100004048, symSize: 0x21C }
  - { offsetInCU: 0x114F1, offset: 0x114F1, size: 0x8, addend: 0x0, symName: __ZN14__DEBUG_UTIL__5printEs, symObjAddr: 0x274, symBinAddr: 0x100004264, symSize: 0xA8 }
  - { offsetInCU: 0x1151A, offset: 0x1151A, size: 0x8, addend: 0x0, symName: __ZN14__DEBUG_UTIL__5printEt, symObjAddr: 0x31C, symBinAddr: 0x10000430C, symSize: 0xA8 }
  - { offsetInCU: 0x11544, offset: 0x11544, size: 0x8, addend: 0x0, symName: __ZN14__DEBUG_UTIL__5printEi, symObjAddr: 0x3C4, symBinAddr: 0x1000043B4, symSize: 0xA8 }
  - { offsetInCU: 0x11561, offset: 0x11561, size: 0x8, addend: 0x0, symName: __ZN14__DEBUG_UTIL__5printEj, symObjAddr: 0x46C, symBinAddr: 0x10000445C, symSize: 0xA8 }
  - { offsetInCU: 0x1158A, offset: 0x1158A, size: 0x8, addend: 0x0, symName: __ZN14__DEBUG_UTIL__5printEl, symObjAddr: 0x514, symBinAddr: 0x100004504, symSize: 0xA8 }
  - { offsetInCU: 0x115B3, offset: 0x115B3, size: 0x8, addend: 0x0, symName: __ZN14__DEBUG_UTIL__5printEm, symObjAddr: 0x5BC, symBinAddr: 0x1000045AC, symSize: 0xA8 }
  - { offsetInCU: 0x115DD, offset: 0x115DD, size: 0x8, addend: 0x0, symName: __ZN14__DEBUG_UTIL__5printEx, symObjAddr: 0x664, symBinAddr: 0x100004654, symSize: 0xA8 }
  - { offsetInCU: 0x115FA, offset: 0x115FA, size: 0x8, addend: 0x0, symName: __ZN14__DEBUG_UTIL__5printEy, symObjAddr: 0x70C, symBinAddr: 0x1000046FC, symSize: 0xA8 }
  - { offsetInCU: 0x11623, offset: 0x11623, size: 0x8, addend: 0x0, symName: __ZN14__DEBUG_UTIL__5printEf, symObjAddr: 0x7B4, symBinAddr: 0x1000047A4, symSize: 0xA0 }
  - { offsetInCU: 0x1164C, offset: 0x1164C, size: 0x8, addend: 0x0, symName: __ZN14__DEBUG_UTIL__5printEd, symObjAddr: 0x854, symBinAddr: 0x100004844, symSize: 0xA0 }
  - { offsetInCU: 0x11675, offset: 0x11675, size: 0x8, addend: 0x0, symName: __ZN14__DEBUG_UTIL__5printEe, symObjAddr: 0x8F4, symBinAddr: 0x1000048E4, symSize: 0xA0 }
  - { offsetInCU: 0x1169E, offset: 0x1169E, size: 0x8, addend: 0x0, symName: __ZN14__DEBUG_UTIL__5printENSt3__112basic_stringIcNS0_11char_traitsIcEENS0_9allocatorIcEEEE, symObjAddr: 0x994, symBinAddr: 0x100004984, symSize: 0x1F8 }
  - { offsetInCU: 0x1174A, offset: 0x1174A, size: 0x8, addend: 0x0, symName: __ZN14__DEBUG_UTIL__5printENSt3__16vectorIbNS0_9allocatorIbEEEE, symObjAddr: 0xBD4, symBinAddr: 0x100004BC4, symSize: 0x4E4 }
  - { offsetInCU: 0x119BB, offset: 0x119BB, size: 0x8, addend: 0x0, symName: __ZN14__DEBUG_UTIL__7printerEPKc, symObjAddr: 0x1518, symBinAddr: 0x100005508, symSize: 0x4 }
  - { offsetInCU: 0x119E0, offset: 0x119E0, size: 0x8, addend: 0x0, symName: __ZN14__DEBUG_UTIL__10printerArrEPKc, symObjAddr: 0x151C, symBinAddr: 0x10000550C, symSize: 0x4 }
  - { offsetInCU: 0x11A04, offset: 0x11A04, size: 0x8, addend: 0x0, symName: __ZN14__DEBUG_UTIL__7printerIRNSt3__16vectorINS1_4pairIiiEENS1_9allocatorIS4_EEEEJEEEvPKcOT_DpOT0_, symObjAddr: 0x2DA8, symBinAddr: 0x100006D98, symSize: 0x578 }
  - { offsetInCU: 0x11AD8, offset: 0x11AD8, size: 0x8, addend: 0x0, symName: __ZN14__DEBUG_UTIL__7printerIRxJEEEvPKcOT_DpOT0_, symObjAddr: 0x3320, symBinAddr: 0x100007310, symSize: 0x69C }
  - { offsetInCU: 0x11BAE, offset: 0x11BAE, size: 0x8, addend: 0x0, symName: __ZN14__DEBUG_UTIL__5printIRNSt3__16vectorINS1_4pairIiiEENS1_9allocatorIS4_EEEEEEvOT_, symObjAddr: 0x1932C, symBinAddr: 0x10001D31C, symSize: 0x3C0 }
  - { offsetInCU: 0x11D8D, offset: 0x11D8D, size: 0x8, addend: 0x0, symName: __ZN14__DEBUG_UTIL__5printIiiEEvNSt3__14pairIT_T0_EE, symObjAddr: 0x196EC, symBinAddr: 0x10001D6DC, symSize: 0x328 }
  - { offsetInCU: 0x11EFB, offset: 0x11EFB, size: 0x8, addend: 0x0, symName: __ZNKSt3__112basic_stringIcNS_11char_traitsIcEENS_9allocatorIcEEE13__get_pointerB8ue170006Ev, symObjAddr: 0x683C, symBinAddr: 0x10000A82C, symSize: 0x5C }
  - { offsetInCU: 0x11F5E, offset: 0x11F5E, size: 0x8, addend: 0x0, symName: __ZNKSt3__112basic_stringIcNS_11char_traitsIcEENS_9allocatorIcEEE4sizeB8ue170006Ev, symObjAddr: 0x67E0, symBinAddr: 0x10000A7D0, symSize: 0x5C }
  - { offsetInCU: 0x1207F, offset: 0x1207F, size: 0x8, addend: 0x0, symName: __ZNKSt3__114__bit_iteratorINS_6vectorIbNS_9allocatorIbEEEELb0ELm0EEdeB8ue170006Ev, symObjAddr: 0x11C8, symBinAddr: 0x1000051B8, symSize: 0xCC }
  - { offsetInCU: 0x120A6, offset: 0x120A6, size: 0x8, addend: 0x0, symName: __ZNKSt3__115__bit_referenceINS_6vectorIbNS_9allocatorIbEEEELb1EEcvbB8ue170006Ev, symObjAddr: 0x1294, symBinAddr: 0x100005284, symSize: 0xE4 }
  - { offsetInCU: 0x120CD, offset: 0x120CD, size: 0x8, addend: 0x0, symName: __ZNSt3__114__bit_iteratorINS_6vectorIbNS_9allocatorIbEEEELb0ELm0EEppB8ue170006Ev, symObjAddr: 0x1378, symBinAddr: 0x100005368, symSize: 0x1A0 }
  - { offsetInCU: 0x120F4, offset: 0x120F4, size: 0x8, addend: 0x0, symName: __ZNSt3__16vectorIbNS_9allocatorIbEEE5beginB8ue170006Ev, symObjAddr: 0x10B8, symBinAddr: 0x1000050A8, symSize: 0x4C }
  - { offsetInCU: 0x12129, offset: 0x12129, size: 0x8, addend: 0x0, symName: __ZNSt3__16vectorIbNS_9allocatorIbEEE11__make_iterB8ue170006Em, symObjAddr: 0x6AA0, symBinAddr: 0x10000AA90, symSize: 0x168 }
  - { offsetInCU: 0x12227, offset: 0x12227, size: 0x8, addend: 0x0, symName: __Z5solvev, symObjAddr: 0x1520, symBinAddr: 0x100005510, symSize: 0x17C8 }
  - { offsetInCU: 0x12C61, offset: 0x12C61, size: 0x8, addend: 0x0, symName: __ZNSt3__16vectorI4circNS_9allocatorIS1_EEEC2Em, symObjAddr: 0x6C08, symBinAddr: 0x10000ABF8, symSize: 0x338 }
  - { offsetInCU: 0x12DB9, offset: 0x12DB9, size: 0x8, addend: 0x0, symName: __ZNSt3__117__compressed_pairIPNS_4pairIiiEENS_9allocatorIS2_EEEC2B8ue170006IDnNS_18__default_init_tagEEEOT_OT0_, symObjAddr: 0xFD58, symBinAddr: 0x100013D48, symSize: 0xB0 }
  - { offsetInCU: 0x12E3E, offset: 0x12E3E, size: 0x8, addend: 0x0, symName: __ZNSt3__16vectorINS_4pairIiiEENS_9allocatorIS2_EEE12emplace_backIJiiEEERS2_DpOT_, symObjAddr: 0x2CE8, symBinAddr: 0x100006CD8, symSize: 0xC0 }
  - { offsetInCU: 0x12ED9, offset: 0x12ED9, size: 0x8, addend: 0x0, symName: __ZNSt3__16vectorINS_4pairIiiEENS_9allocatorIS2_EEE16__destroy_vectorclB8ue170006Ev, symObjAddr: 0xFE84, symBinAddr: 0x100013E74, symSize: 0x240 }
  - { offsetInCU: 0x13009, offset: 0x13009, size: 0x8, addend: 0x0, symName: __ZNSt3__16vectorI4circNS_9allocatorIS1_EEE16__destroy_vectorclB8ue170006Ev, symObjAddr: 0x8814, symBinAddr: 0x10000C804, symSize: 0x240 }
  - { offsetInCU: 0x13139, offset: 0x13139, size: 0x8, addend: 0x0, symName: __ZNSt3__16vectorINS_4pairIiiEENS_9allocatorIS2_EEED1B8ue170006Ev, symObjAddr: 0x39BC, symBinAddr: 0x1000079AC, symSize: 0x1A0 }
  - { offsetInCU: 0x1319A, offset: 0x1319A, size: 0x8, addend: 0x0, symName: __ZNSt3__16vectorI4circNS_9allocatorIS1_EEED1B8ue170006Ev, symObjAddr: 0x3B5C, symBinAddr: 0x100007B4C, symSize: 0x1A0 }
  - { offsetInCU: 0x131FB, offset: 0x131FB, size: 0x8, addend: 0x0, symName: __ZNSt3__16vectorINS_4pairIiiEENS_9allocatorIS2_EEE9__end_capB8ue170006Ev, symObjAddr: 0x107B4, symBinAddr: 0x1000147A4, symSize: 0x70 }
  - { offsetInCU: 0x1322B, offset: 0x1322B, size: 0x8, addend: 0x0, symName: __ZNSt3__16vectorINS_4pairIiiEENS_9allocatorIS2_EEE22__construct_one_at_endB8ue170006IJiiEEEvDpOT_, symObjAddr: 0x10824, symBinAddr: 0x100014814, symSize: 0x298 }
  - { offsetInCU: 0x1339B, offset: 0x1339B, size: 0x8, addend: 0x0, symName: __ZNSt3__16vectorINS_4pairIiiEENS_9allocatorIS2_EEE24__emplace_back_slow_pathIJiiEEEvDpOT_, symObjAddr: 0x10ABC, symBinAddr: 0x100014AAC, symSize: 0x2D0 }
  - { offsetInCU: 0x13564, offset: 0x13564, size: 0x8, addend: 0x0, symName: __ZNSt3__16vectorINS_4pairIiiEENS_9allocatorIS2_EEE4backB8ue170006Ev, symObjAddr: 0x10D8C, symBinAddr: 0x100014D7C, symSize: 0xC0 }
  - { offsetInCU: 0x1358B, offset: 0x1358B, size: 0x8, addend: 0x0, symName: _main, symObjAddr: 0x3CFC, symBinAddr: 0x100007CEC, symSize: 0x394 }
  - { offsetInCU: 0x135E8, offset: 0x135E8, size: 0x8, addend: 0x0, symName: __ZNSt3__19basic_iosIcNS_11char_traitsIcEEE3tieB8ue170006EPNS_13basic_ostreamIcS2_EE, symObjAddr: 0x4090, symBinAddr: 0x100008080, symSize: 0x1A0 }
  - { offsetInCU: 0x136C9, offset: 0x136C9, size: 0x8, addend: 0x0, symName: __ZNSt3__119ostreambuf_iteratorIcNS_11char_traitsIcEEEC2B8ue170006ERNS_13basic_ostreamIcS2_EE, symObjAddr: 0x5E8C, symBinAddr: 0x100009E7C, symSize: 0x298 }
  - { offsetInCU: 0x13726, offset: 0x13726, size: 0x8, addend: 0x0, symName: __ZNKSt3__19basic_iosIcNS_11char_traitsIcEEE4fillB8ue170006Ev, symObjAddr: 0x5398, symBinAddr: 0x100009388, symSize: 0x248 }
  - { offsetInCU: 0x13769, offset: 0x13769, size: 0x8, addend: 0x0, symName: __ZNSt3__19basic_iosIcNS_11char_traitsIcEEE8setstateB8ue170006Ej, symObjAddr: 0x55E0, symBinAddr: 0x1000095D0, symSize: 0xFC }
  - { offsetInCU: 0x13872, offset: 0x13872, size: 0x8, addend: 0x0, symName: __ZNSt3__117__compressed_pairINS_12basic_stringIcNS_11char_traitsIcEENS_9allocatorIcEEE5__repES5_EC1B8ue170006INS_18__default_init_tagESA_EEOT_OT0_, symObjAddr: 0x5888, symBinAddr: 0x100009878, symSize: 0x98 }
  - { offsetInCU: 0x13910, offset: 0x13910, size: 0x8, addend: 0x0, symName: __ZNSt3__112basic_stringIcNS_11char_traitsIcEENS_9allocatorIcEEE13__get_pointerB8ue170006Ev, symObjAddr: 0x5C40, symBinAddr: 0x100009C30, symSize: 0x5C }
  - { offsetInCU: 0x13973, offset: 0x13973, size: 0x8, addend: 0x0, symName: __ZNSt3__18ios_base5widthB8ue170006El, symObjAddr: 0x56E8, symBinAddr: 0x1000096D8, symSize: 0x1A0 }
  - { offsetInCU: 0x139BC, offset: 0x139BC, size: 0x8, addend: 0x0, symName: __ZNKSt3__19basic_iosIcNS_11char_traitsIcEEE5widenB8ue170006Ec, symObjAddr: 0x6204, symBinAddr: 0x10000A1F4, symSize: 0x340 }
  - { offsetInCU: 0x13A40, offset: 0x13A40, size: 0x8, addend: 0x0, symName: __ZNSt3__18ios_base8setstateB8ue170006Ej, symObjAddr: 0x6644, symBinAddr: 0x10000A634, symSize: 0x19C }
  - { offsetInCU: 0x13ADD, offset: 0x13ADD, size: 0x8, addend: 0x0, symName: __ZNSt3__122__compressed_pair_elemINS_9allocatorIcEELi1ELb1EEC2B8ue170006ENS_18__default_init_tagE, symObjAddr: 0x5920, symBinAddr: 0x100009910, symSize: 0x7C }
  - { offsetInCU: 0x13B8E, offset: 0x13B8E, size: 0x8, addend: 0x0, symName: __ZNSt3__112basic_stringIcNS_11char_traitsIcEENS_9allocatorIcEEE19__get_short_pointerB8ue170006Ev, symObjAddr: 0x599C, symBinAddr: 0x10000998C, symSize: 0x58 }
  - { offsetInCU: 0x13BC3, offset: 0x13BC3, size: 0x8, addend: 0x0, symName: __ZNSt3__117__compressed_pairINS_12basic_stringIcNS_11char_traitsIcEENS_9allocatorIcEEE5__repES5_E5firstB8ue170006Ev, symObjAddr: 0x5B18, symBinAddr: 0x100009B08, symSize: 0xCC }
  - { offsetInCU: 0x13C08, offset: 0x13C08, size: 0x8, addend: 0x0, symName: __ZNSt12length_errorC1B8ue170006EPKc, symObjAddr: 0x5A6C, symBinAddr: 0x100009A5C, symSize: 0xAC }
  - { offsetInCU: 0x13CA2, offset: 0x13CA2, size: 0x8, addend: 0x0, symName: __ZNKSt3__112basic_stringIcNS_11char_traitsIcEENS_9allocatorIcEEE9__is_longB8ue170006Ev, symObjAddr: 0x5C9C, symBinAddr: 0x100009C8C, symSize: 0x9C }
  - { offsetInCU: 0x13CD6, offset: 0x13CD6, size: 0x8, addend: 0x0, symName: __ZNSt3__112basic_stringIcNS_11char_traitsIcEENS_9allocatorIcEEE18__get_long_pointerB8ue170006Ev, symObjAddr: 0x5D38, symBinAddr: 0x100009D28, symSize: 0x88 }
  - { offsetInCU: 0x13D0A, offset: 0x13D0A, size: 0x8, addend: 0x0, symName: __ZNKSt3__117__compressed_pairINS_12basic_stringIcNS_11char_traitsIcEENS_9allocatorIcEEE5__repES5_E5firstB8ue170006Ev, symObjAddr: 0x5DC0, symBinAddr: 0x100009DB0, symSize: 0xCC }
  - { offsetInCU: 0x13D89, offset: 0x13D89, size: 0x8, addend: 0x0, symName: __ZNKSt3__18ios_base5rdbufB8ue170006Ev, symObjAddr: 0x6124, symBinAddr: 0x10000A114, symSize: 0xE0 }
  - { offsetInCU: 0x13E16, offset: 0x13E16, size: 0x8, addend: 0x0, symName: __ZNKSt3__112basic_stringIcNS_11char_traitsIcEENS_9allocatorIcEEE15__get_long_sizeB8ue170006Ev, symObjAddr: 0x6978, symBinAddr: 0x10000A968, symSize: 0x8C }
  - { offsetInCU: 0x13E4A, offset: 0x13E4A, size: 0x8, addend: 0x0, symName: __ZNKSt3__112basic_stringIcNS_11char_traitsIcEENS_9allocatorIcEEE16__get_short_sizeB8ue170006Ev, symObjAddr: 0x6A04, symBinAddr: 0x10000A9F4, symSize: 0x9C }
  - { offsetInCU: 0x13E7E, offset: 0x13E7E, size: 0x8, addend: 0x0, symName: __ZNKSt3__112basic_stringIcNS_11char_traitsIcEENS_9allocatorIcEEE18__get_long_pointerB8ue170006Ev, symObjAddr: 0x6898, symBinAddr: 0x10000A888, symSize: 0x88 }
  - { offsetInCU: 0x13EB2, offset: 0x13EB2, size: 0x8, addend: 0x0, symName: __ZNKSt3__112basic_stringIcNS_11char_traitsIcEENS_9allocatorIcEEE19__get_short_pointerB8ue170006Ev, symObjAddr: 0x6920, symBinAddr: 0x10000A910, symSize: 0x58 }
  - { offsetInCU: 0x13FA9, offset: 0x13FA9, size: 0x8, addend: 0x0, symName: __ZNSt3__117__compressed_pairIP4circNS_9allocatorIS1_EEEC2B8ue170006IDnNS_18__default_init_tagEEEOT_OT0_, symObjAddr: 0x7478, symBinAddr: 0x10000B468, symSize: 0xB0 }
  - { offsetInCU: 0x14028, offset: 0x14028, size: 0x8, addend: 0x0, symName: __ZNSt3__16vectorI4circNS_9allocatorIS1_EEE11__vallocateB8ue170006Em, symObjAddr: 0x6F40, symBinAddr: 0x10000AF30, symSize: 0x1A0 }
  - { offsetInCU: 0x14113, offset: 0x14113, size: 0x8, addend: 0x0, symName: __ZNSt3__16vectorI4circNS_9allocatorIS1_EEE18__construct_at_endEm, symObjAddr: 0x70E0, symBinAddr: 0x10000B0D0, symSize: 0x350 }
  - { offsetInCU: 0x14253, offset: 0x14253, size: 0x8, addend: 0x0, symName: __ZNSt3__128__exception_guard_exceptionsINS_6vectorI4circNS_9allocatorIS2_EEE16__destroy_vectorEED2B8ue170006Ev, symObjAddr: 0x8730, symBinAddr: 0x10000C720, symSize: 0xE4 }
  - { offsetInCU: 0x14292, offset: 0x14292, size: 0x8, addend: 0x0, symName: __ZNSt3__128__exception_guard_exceptionsINS_6vectorI4circNS_9allocatorIS2_EEE16__destroy_vectorEED1B8ue170006Ev, symObjAddr: 0x7430, symBinAddr: 0x10000B420, symSize: 0x48 }
  - { offsetInCU: 0x142F6, offset: 0x142F6, size: 0x8, addend: 0x0, symName: __ZNKSt3__16vectorI4circNS_9allocatorIS1_EEE7__allocB8ue170006Ev, symObjAddr: 0x791C, symBinAddr: 0x10000B90C, symSize: 0x70 }
  - { offsetInCU: 0x1432B, offset: 0x1432B, size: 0x8, addend: 0x0, symName: __ZNSt3__16vectorI4circNS_9allocatorIS1_EEE7__allocB8ue170006Ev, symObjAddr: 0x762C, symBinAddr: 0x10000B61C, symSize: 0x70 }
  - { offsetInCU: 0x1435B, offset: 0x1435B, size: 0x8, addend: 0x0, symName: __ZNSt3__117__compressed_pairIP4circNS_9allocatorIS1_EEE5firstB8ue170006Ev, symObjAddr: 0x7B34, symBinAddr: 0x10000BB24, symSize: 0xCC }
  - { offsetInCU: 0x143A0, offset: 0x143A0, size: 0x8, addend: 0x0, symName: __ZNKSt3__16vectorI4circNS_9allocatorIS1_EEE14__annotate_newB8ue170006Em, symObjAddr: 0x769C, symBinAddr: 0x10000B68C, symSize: 0x280 }
  - { offsetInCU: 0x14496, offset: 0x14496, size: 0x8, addend: 0x0, symName: __ZNKSt3__16vectorI4circNS_9allocatorIS1_EEE20__throw_length_errorB8ue170006Ev, symObjAddr: 0x75A4, symBinAddr: 0x10000B594, symSize: 0x44 }
  - { offsetInCU: 0x145B2, offset: 0x145B2, size: 0x8, addend: 0x0, symName: __ZNSt3__16vectorI4circNS_9allocatorIS1_EEE21_ConstructTransactionC2B8ue170006ERS4_m, symObjAddr: 0x7DC8, symBinAddr: 0x10000BDB8, symSize: 0x194 }
  - { offsetInCU: 0x1460A, offset: 0x1460A, size: 0x8, addend: 0x0, symName: __ZNSt3__117__compressed_pairIP4circNS_9allocatorIS1_EEE6secondB8ue170006Ev, symObjAddr: 0x7A60, symBinAddr: 0x10000BA50, symSize: 0xD4 }
  - { offsetInCU: 0x1464E, offset: 0x1464E, size: 0x8, addend: 0x0, symName: __ZNSt3__16vectorI4circNS_9allocatorIS1_EEE21_ConstructTransactionD2B8ue170006Ev, symObjAddr: 0x82C0, symBinAddr: 0x10000C2B0, symSize: 0x214 }
  - { offsetInCU: 0x146B5, offset: 0x146B5, size: 0x8, addend: 0x0, symName: __ZNSt3__122__compressed_pair_elemINS_9allocatorI4circEELi1ELb1EEC2B8ue170006ENS_18__default_init_tagE, symObjAddr: 0x7528, symBinAddr: 0x10000B518, symSize: 0x7C }
  - { offsetInCU: 0x147E2, offset: 0x147E2, size: 0x8, addend: 0x0, symName: __ZNKSt3__16vectorI4circNS_9allocatorIS1_EEE8capacityB8ue170006Ev, symObjAddr: 0x7C00, symBinAddr: 0x10000BBF0, symSize: 0x8C }
  - { offsetInCU: 0x1481D, offset: 0x1481D, size: 0x8, addend: 0x0, symName: __ZNKSt3__117__compressed_pairIP4circNS_9allocatorIS1_EEE6secondB8ue170006Ev, symObjAddr: 0x798C, symBinAddr: 0x10000B97C, symSize: 0xD4 }
  - { offsetInCU: 0x148A9, offset: 0x148A9, size: 0x8, addend: 0x0, symName: __ZNKSt3__16vectorI4circNS_9allocatorIS1_EEE9__end_capB8ue170006Ev, symObjAddr: 0x7C8C, symBinAddr: 0x10000BC7C, symSize: 0x70 }
  - { offsetInCU: 0x148DE, offset: 0x148DE, size: 0x8, addend: 0x0, symName: __ZNKSt3__117__compressed_pairIP4circNS_9allocatorIS1_EEE5firstB8ue170006Ev, symObjAddr: 0x7CFC, symBinAddr: 0x10000BCEC, symSize: 0xCC }
  - { offsetInCU: 0x1493F, offset: 0x1493F, size: 0x8, addend: 0x0, symName: __ZNKSt3__16vectorI4circNS_9allocatorIS1_EEE19__annotate_increaseB8ue170006Em, symObjAddr: 0x7F5C, symBinAddr: 0x10000BF4C, symSize: 0x2D8 }
  - { offsetInCU: 0x14A49, offset: 0x14A49, size: 0x8, addend: 0x0, symName: __ZNKSt3__16vectorI4circNS_9allocatorIS1_EEE4sizeB8ue170006Ev, symObjAddr: 0x8234, symBinAddr: 0x10000C224, symSize: 0x8C }
  - { offsetInCU: 0x14A70, offset: 0x14A70, size: 0x8, addend: 0x0, symName: __ZNKSt3__16vectorI4circNS_9allocatorIS1_EEE17__annotate_shrinkB8ue170006Em, symObjAddr: 0x84D4, symBinAddr: 0x10000C4C4, symSize: 0x25C }
  - { offsetInCU: 0x14BD4, offset: 0x14BD4, size: 0x8, addend: 0x0, symName: __ZNSt3__16vectorI4circNS_9allocatorIS1_EEE22__base_destruct_at_endB8ue170006EPS1_, symObjAddr: 0x8CC4, symBinAddr: 0x10000CCB4, symSize: 0xE8 }
  - { offsetInCU: 0x14C2F, offset: 0x14C2F, size: 0x8, addend: 0x0, symName: __ZNKSt3__16vectorI4circNS_9allocatorIS1_EEE17__annotate_deleteB8ue170006Ev, symObjAddr: 0x8A54, symBinAddr: 0x10000CA44, symSize: 0x270 }
  - { offsetInCU: 0x14DAF, offset: 0x14DAF, size: 0x8, addend: 0x0, symName: __ZNSt3__18_IterOpsINS_17_ClassicAlgPolicyEE9iter_swapB8ue170006IRP4circS5_EEvOT_OT0_, symObjAddr: 0xE78C, symBinAddr: 0x10001277C, symSize: 0x1BC }
  - { offsetInCU: 0x14E3B, offset: 0x14E3B, size: 0x8, addend: 0x0, symName: __ZNSt3__18_IterOpsINS_17_ClassicAlgPolicyEE9iter_swapB8ue170006IRP4circS6_EEvOT_OT0_, symObjAddr: 0xD96C, symBinAddr: 0x10001195C, symSize: 0x1BC }
  - { offsetInCU: 0x14EC7, offset: 0x14EC7, size: 0x8, addend: 0x0, symName: __ZNSt3__14pairIP4circbEC1B8ue170006IRS2_RbLPv0EEEOT_OT0_, symObjAddr: 0xFC28, symBinAddr: 0x100013C18, symSize: 0x130 }
  - { offsetInCU: 0x14FCD, offset: 0x14FCD, size: 0x8, addend: 0x0, symName: __ZNSt3__122__compressed_pair_elemINS_9allocatorINS_4pairIiiEEEELi1ELb1EEC2B8ue170006ENS_18__default_init_tagE, symObjAddr: 0xFE08, symBinAddr: 0x100013DF8, symSize: 0x7C }
  - { offsetInCU: 0x150EC, offset: 0x150EC, size: 0x8, addend: 0x0, symName: __ZNSt3__16vectorINS_4pairIiiEENS_9allocatorIS2_EEE22__base_destruct_at_endB8ue170006EPS2_, symObjAddr: 0x10430, symBinAddr: 0x100014420, symSize: 0xE8 }
  - { offsetInCU: 0x15147, offset: 0x15147, size: 0x8, addend: 0x0, symName: __ZNKSt3__16vectorINS_4pairIiiEENS_9allocatorIS2_EEE17__annotate_deleteB8ue170006Ev, symObjAddr: 0x100C4, symBinAddr: 0x1000140B4, symSize: 0x270 }
  - { offsetInCU: 0x15241, offset: 0x15241, size: 0x8, addend: 0x0, symName: __ZNSt3__16vectorINS_4pairIiiEENS_9allocatorIS2_EEE7__allocB8ue170006Ev, symObjAddr: 0x10334, symBinAddr: 0x100014324, symSize: 0x70 }
  - { offsetInCU: 0x15271, offset: 0x15271, size: 0x8, addend: 0x0, symName: __ZNKSt3__16vectorINS_4pairIiiEENS_9allocatorIS2_EEE8capacityB8ue170006Ev, symObjAddr: 0x103A4, symBinAddr: 0x100014394, symSize: 0x8C }
  - { offsetInCU: 0x1530E, offset: 0x1530E, size: 0x8, addend: 0x0, symName: __ZNKSt3__16vectorINS_4pairIiiEENS_9allocatorIS2_EEE4sizeB8ue170006Ev, symObjAddr: 0x10518, symBinAddr: 0x100014508, symSize: 0x8C }
  - { offsetInCU: 0x15335, offset: 0x15335, size: 0x8, addend: 0x0, symName: __ZNSt3__117__compressed_pairIPNS_4pairIiiEENS_9allocatorIS2_EEE6secondB8ue170006Ev, symObjAddr: 0x105A4, symBinAddr: 0x100014594, symSize: 0xD4 }
  - { offsetInCU: 0x15379, offset: 0x15379, size: 0x8, addend: 0x0, symName: __ZNKSt3__16vectorINS_4pairIiiEENS_9allocatorIS2_EEE9__end_capB8ue170006Ev, symObjAddr: 0x10678, symBinAddr: 0x100014668, symSize: 0x70 }
  - { offsetInCU: 0x153C4, offset: 0x153C4, size: 0x8, addend: 0x0, symName: __ZNKSt3__117__compressed_pairIPNS_4pairIiiEENS_9allocatorIS2_EEE5firstB8ue170006Ev, symObjAddr: 0x106E8, symBinAddr: 0x1000146D8, symSize: 0xCC }
  - { offsetInCU: 0x15425, offset: 0x15425, size: 0x8, addend: 0x0, symName: __ZNSt3__117__compressed_pairIPNS_4pairIiiEENS_9allocatorIS2_EEE5firstB8ue170006Ev, symObjAddr: 0x10E4C, symBinAddr: 0x100014E3C, symSize: 0xCC }
  - { offsetInCU: 0x15540, offset: 0x15540, size: 0x8, addend: 0x0, symName: __ZNSt3__16vectorINS_4pairIiiEENS_9allocatorIS2_EEE21_ConstructTransactionC2B8ue170006ERS5_m, symObjAddr: 0x10F18, symBinAddr: 0x100014F08, symSize: 0x194 }
  - { offsetInCU: 0x15598, offset: 0x15598, size: 0x8, addend: 0x0, symName: __ZNSt3__19allocatorINS_4pairIiiEEE9constructB8ue170006IS2_JiiEEEvPT_DpOT0_, symObjAddr: 0x11384, symBinAddr: 0x100015374, symSize: 0x158 }
  - { offsetInCU: 0x15655, offset: 0x15655, size: 0x8, addend: 0x0, symName: __ZNSt3__16vectorINS_4pairIiiEENS_9allocatorIS2_EEE21_ConstructTransactionD2B8ue170006Ev, symObjAddr: 0x114DC, symBinAddr: 0x1000154CC, symSize: 0x214 }
  - { offsetInCU: 0x156EC, offset: 0x156EC, size: 0x8, addend: 0x0, symName: __ZNKSt3__16vectorINS_4pairIiiEENS_9allocatorIS2_EEE11__recommendB8ue170006Em, symObjAddr: 0x1194C, symBinAddr: 0x10001593C, symSize: 0x9C }
  - { offsetInCU: 0x15798, offset: 0x15798, size: 0x8, addend: 0x0, symName: __ZNSt3__114__split_bufferINS_4pairIiiEERNS_9allocatorIS2_EEEC2EmmS5_, symObjAddr: 0x11EA0, symBinAddr: 0x100015E90, symSize: 0x35C }
  - { offsetInCU: 0x1589F, offset: 0x1589F, size: 0x8, addend: 0x0, symName: __ZNSt3__114__split_bufferINS_4pairIiiEERNS_9allocatorIS2_EEED2Ev, symObjAddr: 0x136A0, symBinAddr: 0x100017690, symSize: 0xF4 }
  - { offsetInCU: 0x159B0, offset: 0x159B0, size: 0x8, addend: 0x0, symName: __ZNSt3__114__split_bufferINS_4pairIiiEERNS_9allocatorIS2_EEED1Ev, symObjAddr: 0x11CD0, symBinAddr: 0x100015CC0, symSize: 0x48 }
  - { offsetInCU: 0x159F6, offset: 0x159F6, size: 0x8, addend: 0x0, symName: __ZNKSt3__16vectorINS_4pairIiiEENS_9allocatorIS2_EEE19__annotate_increaseB8ue170006Em, symObjAddr: 0x110AC, symBinAddr: 0x10001509C, symSize: 0x2D8 }
  - { offsetInCU: 0x15B90, offset: 0x15B90, size: 0x8, addend: 0x0, symName: __ZNKSt3__16vectorINS_4pairIiiEENS_9allocatorIS2_EEE17__annotate_shrinkB8ue170006Em, symObjAddr: 0x116F0, symBinAddr: 0x1000156E0, symSize: 0x25C }
  - { offsetInCU: 0x15C9E, offset: 0x15C9E, size: 0x8, addend: 0x0, symName: __ZNKSt3__16vectorINS_4pairIiiEENS_9allocatorIS2_EEE7__allocB8ue170006Ev, symObjAddr: 0x11D5C, symBinAddr: 0x100015D4C, symSize: 0x70 }
  - { offsetInCU: 0x15CD3, offset: 0x15CD3, size: 0x8, addend: 0x0, symName: __ZNKSt3__16vectorINS_4pairIiiEENS_9allocatorIS2_EEE20__throw_length_errorB8ue170006Ev, symObjAddr: 0x11D18, symBinAddr: 0x100015D08, symSize: 0x44 }
  - { offsetInCU: 0x15D33, offset: 0x15D33, size: 0x8, addend: 0x0, symName: __ZNSt3__117__compressed_pairIPNS_4pairIiiEERNS_9allocatorIS2_EEE5firstB8ue170006Ev, symObjAddr: 0x124AC, symBinAddr: 0x10001649C, symSize: 0xCC }
  - { offsetInCU: 0x15D78, offset: 0x15D78, size: 0x8, addend: 0x0, symName: __ZNKSt3__16vectorINS_4pairIiiEENS_9allocatorIS2_EEE14__annotate_newB8ue170006Em, symObjAddr: 0x12A3C, symBinAddr: 0x100016A2C, symSize: 0x280 }
  - { offsetInCU: 0x15E6E, offset: 0x15E6E, size: 0x8, addend: 0x0, symName: __ZNKSt3__117__compressed_pairIPNS_4pairIiiEENS_9allocatorIS2_EEE6secondB8ue170006Ev, symObjAddr: 0x11DCC, symBinAddr: 0x100015DBC, symSize: 0xD4 }
  - { offsetInCU: 0x15F10, offset: 0x15F10, size: 0x8, addend: 0x0, symName: __ZNSt3__117__compressed_pairIPNS_4pairIiiEERNS_9allocatorIS2_EEEC2B8ue170006IDnS6_EEOT_OT0_, symObjAddr: 0x122B0, symBinAddr: 0x1000162A0, symSize: 0xFC }
  - { offsetInCU: 0x15FA0, offset: 0x15FA0, size: 0x8, addend: 0x0, symName: __ZNSt3__114__split_bufferINS_4pairIiiEERNS_9allocatorIS2_EEE7__allocB8ue170006Ev, symObjAddr: 0x12240, symBinAddr: 0x100016230, symSize: 0x70 }
  - { offsetInCU: 0x15FF1, offset: 0x15FF1, size: 0x8, addend: 0x0, symName: __ZNSt3__117__compressed_pairIPNS_4pairIiiEERNS_9allocatorIS2_EEE6secondB8ue170006Ev, symObjAddr: 0x123AC, symBinAddr: 0x10001639C, symSize: 0x100 }
  - { offsetInCU: 0x161DB, offset: 0x161DB, size: 0x8, addend: 0x0, symName: __ZNKSt3__116reverse_iteratorIPNS_4pairIiiEEEdeB8ue170006Ev, symObjAddr: 0x12CBC, symBinAddr: 0x100016CAC, symSize: 0xC0 }
  - { offsetInCU: 0x16211, offset: 0x16211, size: 0x8, addend: 0x0, symName: __ZNSt3__128__exception_guard_exceptionsINS_29_AllocatorDestroyRangeReverseINS_9allocatorINS_4pairIiiEEEENS_16reverse_iteratorIPS4_EEEEED2B8ue170006Ev, symObjAddr: 0x12D7C, symBinAddr: 0x100016D6C, symSize: 0xF4 }
  - { offsetInCU: 0x16250, offset: 0x16250, size: 0x8, addend: 0x0, symName: __ZNKSt3__129_AllocatorDestroyRangeReverseINS_9allocatorINS_4pairIiiEEEENS_16reverse_iteratorIPS3_EEEclB8ue170006Ev, symObjAddr: 0x12E70, symBinAddr: 0x100016E60, symSize: 0x334 }
  - { offsetInCU: 0x16379, offset: 0x16379, size: 0x8, addend: 0x0, symName: __ZNKSt3__116reverse_iteratorINS0_IPNS_4pairIiiEEEEEdeB8ue170006Ev, symObjAddr: 0x134B0, symBinAddr: 0x1000174A0, symSize: 0x1F0 }
  - { offsetInCU: 0x163DB, offset: 0x163DB, size: 0x8, addend: 0x0, symName: __ZNSt3__116reverse_iteratorINS0_IPNS_4pairIiiEEEEEppB8ue170006Ev, symObjAddr: 0x13310, symBinAddr: 0x100017300, symSize: 0x1A0 }
  - { offsetInCU: 0x16444, offset: 0x16444, size: 0x8, addend: 0x0, symName: __ZNSt3__114__split_bufferINS_4pairIiiEERNS_9allocatorIS2_EEE5clearB8ue170006Ev, symObjAddr: 0x13794, symBinAddr: 0x100017784, symSize: 0xAC }
  - { offsetInCU: 0x16498, offset: 0x16498, size: 0x8, addend: 0x0, symName: __ZNKSt3__114__split_bufferINS_4pairIiiEERNS_9allocatorIS2_EEE8capacityB8ue170006Ev, symObjAddr: 0x13840, symBinAddr: 0x100017830, symSize: 0x8C }
  - { offsetInCU: 0x164F4, offset: 0x164F4, size: 0x8, addend: 0x0, symName: __ZNSt3__114__split_bufferINS_4pairIiiEERNS_9allocatorIS2_EEE17__destruct_at_endB8ue170006EPS2_NS_17integral_constantIbLb0EEE, symObjAddr: 0x138CC, symBinAddr: 0x1000178BC, symSize: 0x100 }
  - { offsetInCU: 0x16548, offset: 0x16548, size: 0x8, addend: 0x0, symName: __ZNKSt3__114__split_bufferINS_4pairIiiEERNS_9allocatorIS2_EEE9__end_capB8ue170006Ev, symObjAddr: 0x139CC, symBinAddr: 0x1000179BC, symSize: 0x70 }
  - { offsetInCU: 0x1657D, offset: 0x1657D, size: 0x8, addend: 0x0, symName: __ZNKSt3__117__compressed_pairIPNS_4pairIiiEERNS_9allocatorIS2_EEE5firstB8ue170006Ev, symObjAddr: 0x13A3C, symBinAddr: 0x100017A2C, symSize: 0xCC }
  - { offsetInCU: 0x165C8, offset: 0x165C8, size: 0x8, addend: 0x0, symName: __ZNSt3__18_IterOpsINS_17_ClassicAlgPolicyEE9iter_swapB8ue170006IRPNS_4pairIiiEES6_EEvOT_OT0_, symObjAddr: 0x158DC, symBinAddr: 0x1000198CC, symSize: 0xAC }
  - { offsetInCU: 0x16667, offset: 0x16667, size: 0x8, addend: 0x0, symName: __ZNKSt3__16__lessIvvEclB8ue170006INS_4pairIiiEES4_EEbRKT_RKT0_, symObjAddr: 0x14A58, symBinAddr: 0x100018A48, symSize: 0x128 }
  - { offsetInCU: 0x166DD, offset: 0x166DD, size: 0x8, addend: 0x0, symName: __ZNSt3__18_IterOpsINS_17_ClassicAlgPolicyEE9iter_swapB8ue170006IRPNS_4pairIiiEES7_EEvOT_OT0_, symObjAddr: 0x14B80, symBinAddr: 0x100018B70, symSize: 0xAC }
  - { offsetInCU: 0x1677C, offset: 0x1677C, size: 0x8, addend: 0x0, symName: __ZNSt3__14pairIiiE4swapB8ue170006ERS1_, symObjAddr: 0x1723C, symBinAddr: 0x10001B22C, symSize: 0x1E4 }
  - { offsetInCU: 0x16821, offset: 0x16821, size: 0x8, addend: 0x0, symName: __ZNSt3__14pairIiiEaSB8ue170006EOS1_, symObjAddr: 0x17C7C, symBinAddr: 0x10001BC6C, symSize: 0x138 }
  - { offsetInCU: 0x16875, offset: 0x16875, size: 0x8, addend: 0x0, symName: __ZNSt3__14pairIPNS0_IiiEEbEC1B8ue170006IRS2_RbLPv0EEEOT_OT0_, symObjAddr: 0x191FC, symBinAddr: 0x10001D1EC, symSize: 0x130 }
...
