---
triple:          'arm64-apple-darwin'
binary-path:     '2'
relocations:
  - { offsetInCU: 0x3B, offset: 0x3B, size: 0x8, addend: 0x0, symName: _.str, symObjAddr: 0xED40, symBinAddr: 0x100012160, symSize: 0x0 }
  - { offsetInCU: 0x6B, offset: 0x6B, size: 0x8, addend: 0x0, symName: _.str.1, symObjAddr: 0xED60, symBinAddr: 0x100012180, symSize: 0x0 }
  - { offsetInCU: 0x7C, offset: 0x7C, size: 0x8, addend: 0x0, symName: _.str.2, symObjAddr: 0xED80, symBinAddr: 0x1000121A0, symSize: 0x0 }
  - { offsetInCU: 0x8D, offset: 0x8D, size: 0x8, addend: 0x0, symName: _.str.3, symObjAddr: 0xC900, symBinAddr: 0x10000FCE0, symSize: 0x0 }
  - { offsetInCU: 0xAA, offset: 0xAA, size: 0x8, addend: 0x0, symName: _.str.4, symObjAddr: 0xEDA0, symBinAddr: 0x1000121C0, symSize: 0x0 }
  - { offsetInCU: 0xBC, offset: 0xBC, size: 0x8, addend: 0x0, symName: _.str.17, symObjAddr: 0xEDC0, symBinAddr: 0x1000121E0, symSize: 0x0 }
  - { offsetInCU: 0xE7, offset: 0xE7, size: 0x8, addend: 0x0, symName: __ZNSt3__119piecewise_constructE, symObjAddr: 0xDC84, symBinAddr: 0x100011064, symSize: 0x0 }
  - { offsetInCU: 0x33C4, offset: 0x33C4, size: 0x8, addend: 0x0, symName: __ZNSt3__124__put_character_sequenceB8ue170006IcNS_11char_traitsIcEEEERNS_13basic_ostreamIT_T0_EES7_PKS4_m, symObjAddr: 0x345C, symBinAddr: 0x1000065B0, symSize: 0x910 }
  - { offsetInCU: 0x8E59, offset: 0x8E59, size: 0x8, addend: 0x0, symName: __ZNSt3__1lsB8ue170006IcNS_11char_traitsIcEENS_9allocatorIcEEEERNS_13basic_ostreamIT_T0_EES9_RKNS_12basic_stringIS6_S7_T1_EE, symObjAddr: 0xB8C, symBinAddr: 0x100003CE0, symSize: 0x48 }
  - { offsetInCU: 0x8F13, offset: 0x8F13, size: 0x8, addend: 0x0, symName: __ZNSt3__1neB8ue170006ERKNS_14__bit_iteratorINS_6vectorIbNS_9allocatorIbEEEELb0ELm0EEES7_, symObjAddr: 0x1104, symBinAddr: 0x100004258, symSize: 0xC4 }
  - { offsetInCU: 0x90AE, offset: 0x90AE, size: 0x8, addend: 0x0, symName: __ZNSt3__1neB8ue170006ERKNS_14__map_iteratorINS_15__tree_iteratorINS_12__value_typeIiiEEPNS_11__tree_nodeIS3_PvEElEEEESB_, symObjAddr: 0x2CD4, symBinAddr: 0x100005E28, symSize: 0x58 }
  - { offsetInCU: 0x91A6, offset: 0x91A6, size: 0x8, addend: 0x0, symName: __ZNSt3__116__pad_and_outputB8ue170006IcNS_11char_traitsIcEEEENS_19ostreambuf_iteratorIT_T0_EES6_PKS4_S8_S8_RNS_8ios_baseES4_, symObjAddr: 0x3D6C, symBinAddr: 0x100006EC0, symSize: 0x800 }
  - { offsetInCU: 0x989D, offset: 0x989D, size: 0x8, addend: 0x0, symName: __ZNSt3__19use_facetB8ue170006INS_5ctypeIcEEEERKT_RKNS_6localeE, symObjAddr: 0x5598, symBinAddr: 0x1000086EC, symSize: 0x100 }
  - { offsetInCU: 0x99E2, offset: 0x99E2, size: 0x8, addend: 0x0, symName: __ZNSt3__127__tree_balance_after_insertB8ue170006IPNS_16__tree_node_baseIPvEEEEvT_S5_, symObjAddr: 0x8518, symBinAddr: 0x10000B66C, symSize: 0x11B8 }
  - { offsetInCU: 0x9C71, offset: 0x9C71, size: 0x8, addend: 0x0, symName: __ZNSt3__119__tree_right_rotateB8ue170006IPNS_16__tree_node_baseIPvEEEEvT_, symObjAddr: 0x9D48, symBinAddr: 0x10000CE9C, symSize: 0x834 }
  - { offsetInCU: 0x9D23, offset: 0x9D23, size: 0x8, addend: 0x0, symName: __ZNSt3__118__tree_left_rotateB8ue170006IPNS_16__tree_node_baseIPvEEEEvT_, symObjAddr: 0x9740, symBinAddr: 0x10000C894, symSize: 0x608 }
  - { offsetInCU: 0x9DD5, offset: 0x9DD5, size: 0x8, addend: 0x0, symName: __ZNSt3__116__tree_next_iterB8ue170006IPNS_15__tree_end_nodeIPNS_16__tree_node_baseIPvEEEES5_EET_T0_, symObjAddr: 0xAB44, symBinAddr: 0x10000DC98, symSize: 0x41C }
  - { offsetInCU: 0xD0F7, offset: 0xD0F7, size: 0x8, addend: 0x0, symName: __ZN14__DEBUG_UTIL__5printEPKc, symObjAddr: 0x0, symBinAddr: 0x100003154, symSize: 0x30 }
  - { offsetInCU: 0xD185, offset: 0xD185, size: 0x8, addend: 0x0, symName: __ZN14__DEBUG_UTIL__5printEb, symObjAddr: 0x30, symBinAddr: 0x100003184, symSize: 0x28 }
  - { offsetInCU: 0xD1E1, offset: 0xD1E1, size: 0x8, addend: 0x0, symName: __ZN14__DEBUG_UTIL__5printEc, symObjAddr: 0x58, symBinAddr: 0x1000031AC, symSize: 0x21C }
  - { offsetInCU: 0xD2BB, offset: 0xD2BB, size: 0x8, addend: 0x0, symName: __ZN14__DEBUG_UTIL__5printEs, symObjAddr: 0x274, symBinAddr: 0x1000033C8, symSize: 0xA8 }
  - { offsetInCU: 0xD2E5, offset: 0xD2E5, size: 0x8, addend: 0x0, symName: __ZN14__DEBUG_UTIL__5printEt, symObjAddr: 0x31C, symBinAddr: 0x100003470, symSize: 0xA8 }
  - { offsetInCU: 0xD30F, offset: 0xD30F, size: 0x8, addend: 0x0, symName: __ZN14__DEBUG_UTIL__5printEi, symObjAddr: 0x3C4, symBinAddr: 0x100003518, symSize: 0xA8 }
  - { offsetInCU: 0xD339, offset: 0xD339, size: 0x8, addend: 0x0, symName: __ZN14__DEBUG_UTIL__5printEj, symObjAddr: 0x46C, symBinAddr: 0x1000035C0, symSize: 0xA8 }
  - { offsetInCU: 0xD363, offset: 0xD363, size: 0x8, addend: 0x0, symName: __ZN14__DEBUG_UTIL__5printEl, symObjAddr: 0x514, symBinAddr: 0x100003668, symSize: 0xA8 }
  - { offsetInCU: 0xD38D, offset: 0xD38D, size: 0x8, addend: 0x0, symName: __ZN14__DEBUG_UTIL__5printEm, symObjAddr: 0x5BC, symBinAddr: 0x100003710, symSize: 0xA8 }
  - { offsetInCU: 0xD3B7, offset: 0xD3B7, size: 0x8, addend: 0x0, symName: __ZN14__DEBUG_UTIL__5printEx, symObjAddr: 0x664, symBinAddr: 0x1000037B8, symSize: 0xA8 }
  - { offsetInCU: 0xD3E1, offset: 0xD3E1, size: 0x8, addend: 0x0, symName: __ZN14__DEBUG_UTIL__5printEy, symObjAddr: 0x70C, symBinAddr: 0x100003860, symSize: 0xA8 }
  - { offsetInCU: 0xD40B, offset: 0xD40B, size: 0x8, addend: 0x0, symName: __ZN14__DEBUG_UTIL__5printEf, symObjAddr: 0x7B4, symBinAddr: 0x100003908, symSize: 0xA0 }
  - { offsetInCU: 0xD435, offset: 0xD435, size: 0x8, addend: 0x0, symName: __ZN14__DEBUG_UTIL__5printEd, symObjAddr: 0x854, symBinAddr: 0x1000039A8, symSize: 0xA0 }
  - { offsetInCU: 0xD45F, offset: 0xD45F, size: 0x8, addend: 0x0, symName: __ZN14__DEBUG_UTIL__5printEe, symObjAddr: 0x8F4, symBinAddr: 0x100003A48, symSize: 0xA0 }
  - { offsetInCU: 0xD489, offset: 0xD489, size: 0x8, addend: 0x0, symName: __ZN14__DEBUG_UTIL__5printENSt3__112basic_stringIcNS0_11char_traitsIcEENS0_9allocatorIcEEEE, symObjAddr: 0x994, symBinAddr: 0x100003AE8, symSize: 0x1F8 }
  - { offsetInCU: 0xD536, offset: 0xD536, size: 0x8, addend: 0x0, symName: __ZN14__DEBUG_UTIL__5printENSt3__16vectorIbNS0_9allocatorIbEEEE, symObjAddr: 0xBD4, symBinAddr: 0x100003D28, symSize: 0x4E4 }
  - { offsetInCU: 0xD7A9, offset: 0xD7A9, size: 0x8, addend: 0x0, symName: __ZN14__DEBUG_UTIL__7printerEPKc, symObjAddr: 0x1518, symBinAddr: 0x10000466C, symSize: 0x4 }
  - { offsetInCU: 0xD7CE, offset: 0xD7CE, size: 0x8, addend: 0x0, symName: __ZN14__DEBUG_UTIL__10printerArrEPKc, symObjAddr: 0x151C, symBinAddr: 0x100004670, symSize: 0x4 }
  - { offsetInCU: 0xD829, offset: 0xD829, size: 0x8, addend: 0x0, symName: __ZNKSt3__112basic_stringIcNS_11char_traitsIcEENS_9allocatorIcEEE13__get_pointerB8ue170006Ev, symObjAddr: 0x5890, symBinAddr: 0x1000089E4, symSize: 0x5C }
  - { offsetInCU: 0xD88C, offset: 0xD88C, size: 0x8, addend: 0x0, symName: __ZNKSt3__112basic_stringIcNS_11char_traitsIcEENS_9allocatorIcEEE4sizeB8ue170006Ev, symObjAddr: 0x5834, symBinAddr: 0x100008988, symSize: 0x5C }
  - { offsetInCU: 0xD9AD, offset: 0xD9AD, size: 0x8, addend: 0x0, symName: __ZNKSt3__114__bit_iteratorINS_6vectorIbNS_9allocatorIbEEEELb0ELm0EEdeB8ue170006Ev, symObjAddr: 0x11C8, symBinAddr: 0x10000431C, symSize: 0xCC }
  - { offsetInCU: 0xD9D4, offset: 0xD9D4, size: 0x8, addend: 0x0, symName: __ZNKSt3__115__bit_referenceINS_6vectorIbNS_9allocatorIbEEEELb1EEcvbB8ue170006Ev, symObjAddr: 0x1294, symBinAddr: 0x1000043E8, symSize: 0xE4 }
  - { offsetInCU: 0xD9FB, offset: 0xD9FB, size: 0x8, addend: 0x0, symName: __ZNSt3__114__bit_iteratorINS_6vectorIbNS_9allocatorIbEEEELb0ELm0EEppB8ue170006Ev, symObjAddr: 0x1378, symBinAddr: 0x1000044CC, symSize: 0x1A0 }
  - { offsetInCU: 0xDA22, offset: 0xDA22, size: 0x8, addend: 0x0, symName: __ZNSt3__16vectorIbNS_9allocatorIbEEE5beginB8ue170006Ev, symObjAddr: 0x10B8, symBinAddr: 0x10000420C, symSize: 0x4C }
  - { offsetInCU: 0xDA57, offset: 0xDA57, size: 0x8, addend: 0x0, symName: __ZNSt3__16vectorIbNS_9allocatorIbEEE11__make_iterB8ue170006Em, symObjAddr: 0x5AF4, symBinAddr: 0x100008C48, symSize: 0x168 }
  - { offsetInCU: 0xDBFD, offset: 0xDBFD, size: 0x8, addend: 0x0, symName: __Z5solvev, symObjAddr: 0x1520, symBinAddr: 0x100004674, symSize: 0x14E8 }
  - { offsetInCU: 0xE1A9, offset: 0xE1A9, size: 0x8, addend: 0x0, symName: __ZNSt3__16__treeINS_12__value_typeIiiEENS_19__map_value_compareIiS2_NS_7greaterIiEELb1EEENS_9allocatorIS2_EEEC2ERKS6_, symObjAddr: 0x5C5C, symBinAddr: 0x100008DB0, symSize: 0x258 }
  - { offsetInCU: 0xE274, offset: 0xE274, size: 0x8, addend: 0x0, symName: __ZNSt3__13mapIiiNS_7greaterIiEENS_9allocatorINS_4pairIKiiEEEEEixERS5_, symObjAddr: 0x2A08, symBinAddr: 0x100005B5C, symSize: 0x264 }
  - { offsetInCU: 0xE2FB, offset: 0xE2FB, size: 0x8, addend: 0x0, symName: __ZNSt3__16__treeINS_12__value_typeIiiEENS_19__map_value_compareIiS2_NS_7greaterIiEELb1EEENS_9allocatorIS2_EEE5beginB8ue170006Ev, symObjAddr: 0xA9E0, symBinAddr: 0x10000DB34, symSize: 0x8C }
  - { offsetInCU: 0xE341, offset: 0xE341, size: 0x8, addend: 0x0, symName: __ZNSt3__13mapIiiNS_7greaterIiEENS_9allocatorINS_4pairIKiiEEEEE3endB8ue170006Ev, symObjAddr: 0x2C6C, symBinAddr: 0x100005DC0, symSize: 0x68 }
  - { offsetInCU: 0xE38D, offset: 0xE38D, size: 0x8, addend: 0x0, symName: __ZNSt3__114__map_iteratorINS_15__tree_iteratorINS_12__value_typeIiiEEPNS_11__tree_nodeIS3_PvEElEEEppB8ue170006Ev, symObjAddr: 0x303C, symBinAddr: 0x100006190, symSize: 0x70 }
  - { offsetInCU: 0xE3DC, offset: 0xE3DC, size: 0x8, addend: 0x0, symName: __ZNKSt3__114__map_iteratorINS_15__tree_iteratorINS_12__value_typeIiiEEPNS_11__tree_nodeIS3_PvEElEEEdeB8ue170006Ev, symObjAddr: 0x2D2C, symBinAddr: 0x100005E80, symSize: 0xAC }
  - { offsetInCU: 0xE42E, offset: 0xE42E, size: 0x8, addend: 0x0, symName: __ZNKSt3__16__treeINS_12__value_typeIiiEENS_19__map_value_compareIiS2_NS_7greaterIiEELb1EEENS_9allocatorIS2_EEE14__count_uniqueIiEEmRKT_, symObjAddr: 0xAF60, symBinAddr: 0x10000E0B4, symSize: 0x228 }
  - { offsetInCU: 0xE4FC, offset: 0xE4FC, size: 0x8, addend: 0x0, symName: __ZNSt3__13mapIiiNS_7greaterIiEENS_9allocatorINS_4pairIKiiEEEEEixEOi, symObjAddr: 0x2DD8, symBinAddr: 0x100005F2C, symSize: 0x264 }
  - { offsetInCU: 0xE583, offset: 0xE583, size: 0x8, addend: 0x0, symName: __ZNSt3__16__treeINS_12__value_typeIiiEENS_19__map_value_compareIiS2_NS_7greaterIiEELb1EEENS_9allocatorIS2_EEED1Ev, symObjAddr: 0x6224, symBinAddr: 0x100009378, symSize: 0x64 }
  - { offsetInCU: 0xE5EF, offset: 0xE5EF, size: 0x8, addend: 0x0, symName: __ZNSt3__13mapIiiNS_7greaterIiEENS_9allocatorINS_4pairIKiiEEEEED1B8ue170006Ev, symObjAddr: 0x30AC, symBinAddr: 0x100006200, symSize: 0x58 }
  - { offsetInCU: 0xE664, offset: 0xE664, size: 0x8, addend: 0x0, symName: __ZNSt3__16__treeINS_12__value_typeIiiEENS_19__map_value_compareIiS2_NS_7greaterIiEELb1EEENS_9allocatorIS2_EEE25__emplace_unique_key_argsIiJRKNS_21piecewise_construct_tENS_5tupleIJRKiEEENSE_IJEEEEEENS_4pairINS_15__tree_iteratorIS2_PNS_11__tree_nodeIS2_PvEElEEbEERKT_DpOT0_, symObjAddr: 0x67BC, symBinAddr: 0x100009910, symSize: 0x2D8 }
  - { offsetInCU: 0xE857, offset: 0xE857, size: 0x8, addend: 0x0, symName: __ZNKSt3__115__tree_iteratorINS_12__value_typeIiiEEPNS_11__tree_nodeIS2_PvEElEptB8ue170006Ev, symObjAddr: 0x6A94, symBinAddr: 0x100009BE8, symSize: 0xDC }
  - { offsetInCU: 0xE8AB, offset: 0xE8AB, size: 0x8, addend: 0x0, symName: __ZNSt3__16__treeINS_12__value_typeIiiEENS_19__map_value_compareIiS2_NS_7greaterIiEELb1EEENS_9allocatorIS2_EEE10__end_nodeB8ue170006Ev, symObjAddr: 0x5EB4, symBinAddr: 0x100009008, symSize: 0x70 }
  - { offsetInCU: 0xE8E6, offset: 0xE8E6, size: 0x8, addend: 0x0, symName: __ZNSt3__16__treeINS_12__value_typeIiiEENS_19__map_value_compareIiS2_NS_7greaterIiEELb1EEENS_9allocatorIS2_EEE25__emplace_unique_key_argsIiJRKNS_21piecewise_construct_tENS_5tupleIJOiEEENSE_IJEEEEEENS_4pairINS_15__tree_iteratorIS2_PNS_11__tree_nodeIS2_PvEElEEbEERKT_DpOT0_, symObjAddr: 0xB2CC, symBinAddr: 0x10000E420, symSize: 0x2D8 }
  - { offsetInCU: 0xEAD9, offset: 0xEAD9, size: 0x8, addend: 0x0, symName: __ZNSt3__115__tree_iteratorINS_12__value_typeIiiEEPNS_11__tree_nodeIS2_PvEElEppB8ue170006Ev, symObjAddr: 0xAA6C, symBinAddr: 0x10000DBC0, symSize: 0xD8 }
  - { offsetInCU: 0xEB0D, offset: 0xEB0D, size: 0x8, addend: 0x0, symName: _main, symObjAddr: 0x3104, symBinAddr: 0x100006258, symSize: 0x1B8 }
  - { offsetInCU: 0xEB48, offset: 0xEB48, size: 0x8, addend: 0x0, symName: __ZNSt3__19basic_iosIcNS_11char_traitsIcEEE3tieB8ue170006EPNS_13basic_ostreamIcS2_EE, symObjAddr: 0x32BC, symBinAddr: 0x100006410, symSize: 0x1A0 }
  - { offsetInCU: 0xEC13, offset: 0xEC13, size: 0x8, addend: 0x0, symName: __ZNSt3__119ostreambuf_iteratorIcNS_11char_traitsIcEEEC2B8ue170006ERNS_13basic_ostreamIcS2_EE, symObjAddr: 0x4EE0, symBinAddr: 0x100008034, symSize: 0x298 }
  - { offsetInCU: 0xEC70, offset: 0xEC70, size: 0x8, addend: 0x0, symName: __ZNKSt3__19basic_iosIcNS_11char_traitsIcEEE4fillB8ue170006Ev, symObjAddr: 0x456C, symBinAddr: 0x1000076C0, symSize: 0x248 }
  - { offsetInCU: 0xECB3, offset: 0xECB3, size: 0x8, addend: 0x0, symName: __ZNSt3__19basic_iosIcNS_11char_traitsIcEEE8setstateB8ue170006Ej, symObjAddr: 0x47B4, symBinAddr: 0x100007908, symSize: 0xFC }
  - { offsetInCU: 0xEDC2, offset: 0xEDC2, size: 0x8, addend: 0x0, symName: __ZNSt3__117__compressed_pairINS_12basic_stringIcNS_11char_traitsIcEENS_9allocatorIcEEE5__repES5_EC1B8ue170006INS_18__default_init_tagESA_EEOT_OT0_, symObjAddr: 0x4A5C, symBinAddr: 0x100007BB0, symSize: 0x98 }
  - { offsetInCU: 0xEE60, offset: 0xEE60, size: 0x8, addend: 0x0, symName: __ZNSt3__112basic_stringIcNS_11char_traitsIcEENS_9allocatorIcEEE13__get_pointerB8ue170006Ev, symObjAddr: 0x4C94, symBinAddr: 0x100007DE8, symSize: 0x5C }
  - { offsetInCU: 0xEEC3, offset: 0xEEC3, size: 0x8, addend: 0x0, symName: __ZNSt3__18ios_base5widthB8ue170006El, symObjAddr: 0x48BC, symBinAddr: 0x100007A10, symSize: 0x1A0 }
  - { offsetInCU: 0xEF0C, offset: 0xEF0C, size: 0x8, addend: 0x0, symName: __ZNKSt3__19basic_iosIcNS_11char_traitsIcEEE5widenB8ue170006Ec, symObjAddr: 0x5258, symBinAddr: 0x1000083AC, symSize: 0x340 }
  - { offsetInCU: 0xEF8F, offset: 0xEF8F, size: 0x8, addend: 0x0, symName: __ZNSt3__18ios_base8setstateB8ue170006Ej, symObjAddr: 0x5698, symBinAddr: 0x1000087EC, symSize: 0x19C }
  - { offsetInCU: 0xF02C, offset: 0xF02C, size: 0x8, addend: 0x0, symName: __ZNSt3__122__compressed_pair_elemINS_9allocatorIcEELi1ELb1EEC2B8ue170006ENS_18__default_init_tagE, symObjAddr: 0x4AF4, symBinAddr: 0x100007C48, symSize: 0x7C }
  - { offsetInCU: 0xF0DD, offset: 0xF0DD, size: 0x8, addend: 0x0, symName: __ZNSt3__112basic_stringIcNS_11char_traitsIcEENS_9allocatorIcEEE19__get_short_pointerB8ue170006Ev, symObjAddr: 0x4B70, symBinAddr: 0x100007CC4, symSize: 0x58 }
  - { offsetInCU: 0xF112, offset: 0xF112, size: 0x8, addend: 0x0, symName: __ZNSt3__117__compressed_pairINS_12basic_stringIcNS_11char_traitsIcEENS_9allocatorIcEEE5__repES5_E5firstB8ue170006Ev, symObjAddr: 0x4BC8, symBinAddr: 0x100007D1C, symSize: 0xCC }
  - { offsetInCU: 0xF16D, offset: 0xF16D, size: 0x8, addend: 0x0, symName: __ZNKSt3__112basic_stringIcNS_11char_traitsIcEENS_9allocatorIcEEE9__is_longB8ue170006Ev, symObjAddr: 0x4CF0, symBinAddr: 0x100007E44, symSize: 0x9C }
  - { offsetInCU: 0xF1A1, offset: 0xF1A1, size: 0x8, addend: 0x0, symName: __ZNSt3__112basic_stringIcNS_11char_traitsIcEENS_9allocatorIcEEE18__get_long_pointerB8ue170006Ev, symObjAddr: 0x4D8C, symBinAddr: 0x100007EE0, symSize: 0x88 }
  - { offsetInCU: 0xF1D5, offset: 0xF1D5, size: 0x8, addend: 0x0, symName: __ZNKSt3__117__compressed_pairINS_12basic_stringIcNS_11char_traitsIcEENS_9allocatorIcEEE5__repES5_E5firstB8ue170006Ev, symObjAddr: 0x4E14, symBinAddr: 0x100007F68, symSize: 0xCC }
  - { offsetInCU: 0xF254, offset: 0xF254, size: 0x8, addend: 0x0, symName: __ZNKSt3__18ios_base5rdbufB8ue170006Ev, symObjAddr: 0x5178, symBinAddr: 0x1000082CC, symSize: 0xE0 }
  - { offsetInCU: 0xF2E1, offset: 0xF2E1, size: 0x8, addend: 0x0, symName: __ZNKSt3__112basic_stringIcNS_11char_traitsIcEENS_9allocatorIcEEE15__get_long_sizeB8ue170006Ev, symObjAddr: 0x59CC, symBinAddr: 0x100008B20, symSize: 0x8C }
  - { offsetInCU: 0xF315, offset: 0xF315, size: 0x8, addend: 0x0, symName: __ZNKSt3__112basic_stringIcNS_11char_traitsIcEENS_9allocatorIcEEE16__get_short_sizeB8ue170006Ev, symObjAddr: 0x5A58, symBinAddr: 0x100008BAC, symSize: 0x9C }
  - { offsetInCU: 0xF349, offset: 0xF349, size: 0x8, addend: 0x0, symName: __ZNKSt3__112basic_stringIcNS_11char_traitsIcEENS_9allocatorIcEEE18__get_long_pointerB8ue170006Ev, symObjAddr: 0x58EC, symBinAddr: 0x100008A40, symSize: 0x88 }
  - { offsetInCU: 0xF37D, offset: 0xF37D, size: 0x8, addend: 0x0, symName: __ZNKSt3__112basic_stringIcNS_11char_traitsIcEENS_9allocatorIcEEE19__get_short_pointerB8ue170006Ev, symObjAddr: 0x5974, symBinAddr: 0x100008AC8, symSize: 0x58 }
  - { offsetInCU: 0xF42F, offset: 0xF42F, size: 0x8, addend: 0x0, symName: __ZNSt3__117__compressed_pairINS_15__tree_end_nodeIPNS_16__tree_node_baseIPvEEEENS_9allocatorINS_11__tree_nodeINS_12__value_typeIiiEES3_EEEEEC2B8ue170006ILb1EvEEv, symObjAddr: 0x5F24, symBinAddr: 0x100009078, symSize: 0xD0 }
  - { offsetInCU: 0xF4B6, offset: 0xF4B6, size: 0x8, addend: 0x0, symName: __ZNSt3__117__compressed_pairImNS_19__map_value_compareIiNS_12__value_typeIiiEENS_7greaterIiEELb1EEEEC2B8ue170006IiRKS6_EEOT_OT0_, symObjAddr: 0x6070, symBinAddr: 0x1000091C4, symSize: 0xE8 }
  - { offsetInCU: 0xF530, offset: 0xF530, size: 0x8, addend: 0x0, symName: __ZNSt3__117__compressed_pairINS_15__tree_end_nodeIPNS_16__tree_node_baseIPvEEEENS_9allocatorINS_11__tree_nodeINS_12__value_typeIiiEES3_EEEEE5firstB8ue170006Ev, symObjAddr: 0x6158, symBinAddr: 0x1000092AC, symSize: 0xCC }
  - { offsetInCU: 0xF5CB, offset: 0xF5CB, size: 0x8, addend: 0x0, symName: __ZNSt3__122__compressed_pair_elemINS_9allocatorINS_11__tree_nodeINS_12__value_typeIiiEEPvEEEELi1ELb1EEC2B8ue170006ENS_16__value_init_tagE, symObjAddr: 0x5FF4, symBinAddr: 0x100009148, symSize: 0x7C }
  - { offsetInCU: 0xF6DD, offset: 0xF6DD, size: 0x8, addend: 0x0, symName: __ZNKSt3__16__treeINS_12__value_typeIiiEENS_19__map_value_compareIiS2_NS_7greaterIiEELb1EEENS_9allocatorIS2_EEE6__rootB8ue170006Ev, symObjAddr: 0x6458, symBinAddr: 0x1000095AC, symSize: 0xE4 }
  - { offsetInCU: 0xF711, offset: 0xF711, size: 0x8, addend: 0x0, symName: __ZNSt3__16__treeINS_12__value_typeIiiEENS_19__map_value_compareIiS2_NS_7greaterIiEELb1EEENS_9allocatorIS2_EEE7destroyEPNS_11__tree_nodeIS2_PvEE, symObjAddr: 0x6288, symBinAddr: 0x1000093DC, symSize: 0x1D0 }
  - { offsetInCU: 0xF8AB, offset: 0xF8AB, size: 0x8, addend: 0x0, symName: __ZNSt3__16__treeINS_12__value_typeIiiEENS_19__map_value_compareIiS2_NS_7greaterIiEELb1EEENS_9allocatorIS2_EEE12__node_allocB8ue170006Ev, symObjAddr: 0x653C, symBinAddr: 0x100009690, symSize: 0x70 }
  - { offsetInCU: 0xF8E0, offset: 0xF8E0, size: 0x8, addend: 0x0, symName: __ZNKSt3__16__treeINS_12__value_typeIiiEENS_19__map_value_compareIiS2_NS_7greaterIiEELb1EEENS_9allocatorIS2_EEE10__end_nodeB8ue170006Ev, symObjAddr: 0x6680, symBinAddr: 0x1000097D4, symSize: 0x70 }
  - { offsetInCU: 0xF915, offset: 0xF915, size: 0x8, addend: 0x0, symName: __ZNSt3__117__compressed_pairINS_15__tree_end_nodeIPNS_16__tree_node_baseIPvEEEENS_9allocatorINS_11__tree_nodeINS_12__value_typeIiiEES3_EEEEE6secondB8ue170006Ev, symObjAddr: 0x65AC, symBinAddr: 0x100009700, symSize: 0xD4 }
  - { offsetInCU: 0xF96F, offset: 0xF96F, size: 0x8, addend: 0x0, symName: __ZNKSt3__117__compressed_pairINS_15__tree_end_nodeIPNS_16__tree_node_baseIPvEEEENS_9allocatorINS_11__tree_nodeINS_12__value_typeIiiEES3_EEEEE5firstB8ue170006Ev, symObjAddr: 0x66F0, symBinAddr: 0x100009844, symSize: 0xCC }
  - { offsetInCU: 0xFA78, offset: 0xFA78, size: 0x8, addend: 0x0, symName: __ZNSt3__16__treeINS_12__value_typeIiiEENS_19__map_value_compareIiS2_NS_7greaterIiEELb1EEENS_9allocatorIS2_EEE12__find_equalIiEERPNS_16__tree_node_baseIPvEERPNS_15__tree_end_nodeISE_EERKT_, symObjAddr: 0x6B70, symBinAddr: 0x100009CC4, symSize: 0x57C }
  - { offsetInCU: 0xFBA5, offset: 0xFBA5, size: 0x8, addend: 0x0, symName: __ZNSt3__16__treeINS_12__value_typeIiiEENS_19__map_value_compareIiS2_NS_7greaterIiEELb1EEENS_9allocatorIS2_EEE16__construct_nodeIJRKNS_21piecewise_construct_tENS_5tupleIJRKiEEENSE_IJEEEEEENS_10unique_ptrINS_11__tree_nodeIS2_PvEENS_22__tree_node_destructorINS7_ISM_EEEEEEDpOT_, symObjAddr: 0x70EC, symBinAddr: 0x10000A240, symSize: 0x36C }
  - { offsetInCU: 0xFDB6, offset: 0xFDB6, size: 0x8, addend: 0x0, symName: __ZNKSt3__117__compressed_pairIPNS_11__tree_nodeINS_12__value_typeIiiEEPvEENS_22__tree_node_destructorINS_9allocatorIS5_EEEEE5firstB8ue170006Ev, symObjAddr: 0x839C, symBinAddr: 0x10000B4F0, symSize: 0xCC }
  - { offsetInCU: 0xFDFB, offset: 0xFDFB, size: 0x8, addend: 0x0, symName: __ZNSt3__16__treeINS_12__value_typeIiiEENS_19__map_value_compareIiS2_NS_7greaterIiEELb1EEENS_9allocatorIS2_EEE16__insert_node_atEPNS_15__tree_end_nodeIPNS_16__tree_node_baseIPvEEEERSE_SE_, symObjAddr: 0x7458, symBinAddr: 0x10000A5AC, symSize: 0x4BC }
  - { offsetInCU: 0xFEE0, offset: 0xFEE0, size: 0x8, addend: 0x0, symName: __ZNSt3__110unique_ptrINS_11__tree_nodeINS_12__value_typeIiiEEPvEENS_22__tree_node_destructorINS_9allocatorIS5_EEEEE7releaseB8ue170006Ev, symObjAddr: 0x7914, symBinAddr: 0x10000AA68, symSize: 0xC0 }
  - { offsetInCU: 0xFF3F, offset: 0xFF3F, size: 0x8, addend: 0x0, symName: __ZNSt3__110unique_ptrINS_11__tree_nodeINS_12__value_typeIiiEEPvEENS_22__tree_node_destructorINS_9allocatorIS5_EEEEE5resetB8ue170006EPS5_, symObjAddr: 0xA714, symBinAddr: 0x10000D868, symSize: 0x104 }
  - { offsetInCU: 0x1000E, offset: 0x1000E, size: 0x8, addend: 0x0, symName: __ZNSt3__16__treeINS_12__value_typeIiiEENS_19__map_value_compareIiS2_NS_7greaterIiEELb1EEENS_9allocatorIS2_EEE10value_compB8ue170006Ev, symObjAddr: 0x7A30, symBinAddr: 0x10000AB84, symSize: 0x70 }
  - { offsetInCU: 0x10043, offset: 0x10043, size: 0x8, addend: 0x0, symName: __ZNKSt3__119__map_value_compareIiNS_12__value_typeIiiEENS_7greaterIiEELb1EEclB8ue170006ERKiRKS2_, symObjAddr: 0x7AA0, symBinAddr: 0x10000ABF4, symSize: 0xDC }
  - { offsetInCU: 0x100AA, offset: 0x100AA, size: 0x8, addend: 0x0, symName: __ZNKSt3__119__map_value_compareIiNS_12__value_typeIiiEENS_7greaterIiEELb1EEclB8ue170006ERKS2_RKi, symObjAddr: 0x7B7C, symBinAddr: 0x10000ACD0, symSize: 0xDC }
  - { offsetInCU: 0x101EE, offset: 0x101EE, size: 0x8, addend: 0x0, symName: __ZNSt3__110unique_ptrINS_11__tree_nodeINS_12__value_typeIiiEEPvEENS_22__tree_node_destructorINS_9allocatorIS5_EEEEEC1B8ue170006ILb1EvEEPS5_NS_16__dependent_typeINS_27__unique_ptr_deleter_sfinaeIS9_EEXT_EE20__good_rval_ref_typeE, symObjAddr: 0x7D2C, symBinAddr: 0x10000AE80, symSize: 0x20C }
  - { offsetInCU: 0x102A4, offset: 0x102A4, size: 0x8, addend: 0x0, symName: __ZNSt3__116allocator_traitsINS_9allocatorINS_11__tree_nodeINS_12__value_typeIiiEEPvEEEEE9constructB8ue170006INS_4pairIKiiEEJRKNS_21piecewise_construct_tENS_5tupleIJRSB_EEENSG_IJEEEEvEEvRS7_PT_DpOT0_, symObjAddr: 0x7F38, symBinAddr: 0x10000B08C, symSize: 0x230 }
  - { offsetInCU: 0x1039F, offset: 0x1039F, size: 0x8, addend: 0x0, symName: __ZNSt3__117__compressed_pairIPNS_11__tree_nodeINS_12__value_typeIiiEEPvEENS_22__tree_node_destructorINS_9allocatorIS5_EEEEE6secondB8ue170006Ev, symObjAddr: 0x8468, symBinAddr: 0x10000B5BC, symSize: 0xB0 }
  - { offsetInCU: 0x103E5, offset: 0x103E5, size: 0x8, addend: 0x0, symName: __ZNSt3__110unique_ptrINS_11__tree_nodeINS_12__value_typeIiiEEPvEENS_22__tree_node_destructorINS_9allocatorIS5_EEEEED1B8ue170006Ev, symObjAddr: 0x79D4, symBinAddr: 0x10000AB28, symSize: 0x5C }
  - { offsetInCU: 0x10437, offset: 0x10437, size: 0x8, addend: 0x0, symName: __ZNSt3__16__treeINS_12__value_typeIiiEENS_19__map_value_compareIiS2_NS_7greaterIiEELb1EEENS_9allocatorIS2_EEE4sizeB8ue170006Ev, symObjAddr: 0x96D0, symBinAddr: 0x10000C824, symSize: 0x70 }
  - { offsetInCU: 0x1046C, offset: 0x1046C, size: 0x8, addend: 0x0, symName: __ZNSt3__117__compressed_pairIPNS_11__tree_nodeINS_12__value_typeIiiEEPvEENS_22__tree_node_destructorINS_9allocatorIS5_EEEEE5firstB8ue170006Ev, symObjAddr: 0xA648, symBinAddr: 0x10000D79C, symSize: 0xCC }
  - { offsetInCU: 0x104B1, offset: 0x104B1, size: 0x8, addend: 0x0, symName: __ZNSt3__117__compressed_pairImNS_19__map_value_compareIiNS_12__value_typeIiiEENS_7greaterIiEELb1EEEE6secondB8ue170006Ev, symObjAddr: 0x7C58, symBinAddr: 0x10000ADAC, symSize: 0xD4 }
  - { offsetInCU: 0x105BC, offset: 0x105BC, size: 0x8, addend: 0x0, symName: __ZNSt3__117__compressed_pairIPNS_11__tree_nodeINS_12__value_typeIiiEEPvEENS_22__tree_node_destructorINS_9allocatorIS5_EEEEEC2B8ue170006IRS6_SA_EEOT_OT0_, symObjAddr: 0x8168, symBinAddr: 0x10000B2BC, symSize: 0x104 }
  - { offsetInCU: 0x10774, offset: 0x10774, size: 0x8, addend: 0x0, symName: __ZNSt3__14pairIKiiEC2B8ue170006IJRS1_EJEJLm0EEJEEENS_21piecewise_construct_tERNS_5tupleIJDpT_EEERNS6_IJDpT0_EEENS_15__tuple_indicesIJXspT1_EEEENSF_IJXspT2_EEEE, symObjAddr: 0x826C, symBinAddr: 0x10000B3C0, symSize: 0x130 }
  - { offsetInCU: 0x108E1, offset: 0x108E1, size: 0x8, addend: 0x0, symName: __ZNSt3__117__compressed_pairImNS_19__map_value_compareIiNS_12__value_typeIiiEENS_7greaterIiEELb1EEEE5firstB8ue170006Ev, symObjAddr: 0xA57C, symBinAddr: 0x10000D6D0, symSize: 0xCC }
  - { offsetInCU: 0x10974, offset: 0x10974, size: 0x8, addend: 0x0, symName: __ZNSt3__122__tree_node_destructorINS_9allocatorINS_11__tree_nodeINS_12__value_typeIiiEEPvEEEEEclB8ue170006EPS6_, symObjAddr: 0xA818, symBinAddr: 0x10000D96C, symSize: 0x1C8 }
  - { offsetInCU: 0x10A59, offset: 0x10A59, size: 0x8, addend: 0x0, symName: __ZNKSt3__16__treeINS_12__value_typeIiiEENS_19__map_value_compareIiS2_NS_7greaterIiEELb1EEENS_9allocatorIS2_EEE10value_compB8ue170006Ev, symObjAddr: 0xB188, symBinAddr: 0x10000E2DC, symSize: 0x70 }
  - { offsetInCU: 0x10A8E, offset: 0x10A8E, size: 0x8, addend: 0x0, symName: __ZNKSt3__117__compressed_pairImNS_19__map_value_compareIiNS_12__value_typeIiiEENS_7greaterIiEELb1EEEE6secondB8ue170006Ev, symObjAddr: 0xB1F8, symBinAddr: 0x10000E34C, symSize: 0xD4 }
  - { offsetInCU: 0x10AEE, offset: 0x10AEE, size: 0x8, addend: 0x0, symName: __ZNSt3__16__treeINS_12__value_typeIiiEENS_19__map_value_compareIiS2_NS_7greaterIiEELb1EEENS_9allocatorIS2_EEE16__construct_nodeIJRKNS_21piecewise_construct_tENS_5tupleIJOiEEENSE_IJEEEEEENS_10unique_ptrINS_11__tree_nodeIS2_PvEENS_22__tree_node_destructorINS7_ISL_EEEEEEDpOT_, symObjAddr: 0xB5A4, symBinAddr: 0x10000E6F8, symSize: 0x36C }
  - { offsetInCU: 0x10CFF, offset: 0x10CFF, size: 0x8, addend: 0x0, symName: __ZNSt3__116allocator_traitsINS_9allocatorINS_11__tree_nodeINS_12__value_typeIiiEEPvEEEEE9constructB8ue170006INS_4pairIKiiEEJRKNS_21piecewise_construct_tENS_5tupleIJOiEEENSG_IJEEEEvEEvRS7_PT_DpOT0_, symObjAddr: 0xB910, symBinAddr: 0x10000EA64, symSize: 0x230 }
  - { offsetInCU: 0x10F19, offset: 0x10F19, size: 0x8, addend: 0x0, symName: __ZNSt3__14pairIKiiEC2B8ue170006IJOiEJEJLm0EEJEEENS_21piecewise_construct_tERNS_5tupleIJDpT_EEERNS6_IJDpT0_EEENS_15__tuple_indicesIJXspT1_EEEENSF_IJXspT2_EEEE, symObjAddr: 0xBB40, symBinAddr: 0x10000EC94, symSize: 0x130 }
...
