---
triple:          'arm64-apple-darwin'
binary-path:     '/Users/eric/Workspace/compprog/codeforces/practice/1800/M_Mirror_Maze.bin'
relocations:
  - { offsetInCU: 0x3B, offset: 0x3B, size: 0x8, addend: 0x0, symName: _.str, symObjAddr: 0x23D20, symBinAddr: 0x100027220, symSize: 0x0 }
  - { offsetInCU: 0x6B, offset: 0x6B, size: 0x8, addend: 0x0, symName: _.str.1, symObjAddr: 0x23D40, symBinAddr: 0x100027240, symSize: 0x0 }
  - { offsetInCU: 0x7C, offset: 0x7C, size: 0x8, addend: 0x0, symName: _.str.2, symObjAddr: 0x23D60, symBinAddr: 0x100027260, symSize: 0x0 }
  - { offsetInCU: 0x8D, offset: 0x8D, size: 0x8, addend: 0x0, symName: _.str.3, symObjAddr: 0x20620, symBinAddr: 0x100023B00, symSize: 0x0 }
  - { offsetInCU: 0xAA, offset: 0xAA, size: 0x8, addend: 0x0, symName: _.str.4, symObjAddr: 0x23D80, symBinAddr: 0x100027280, symSize: 0x0 }
  - { offsetInCU: 0xBF, offset: 0xBF, size: 0x8, addend: 0x0, symName: _ts, symObjAddr: 0x24160, symBinAddr: 0x1000302C0, symSize: 0x0 }
  - { offsetInCU: 0xE7, offset: 0xE7, size: 0x8, addend: 0x0, symName: _tb, symObjAddr: 0x24180, symBinAddr: 0x1000302E0, symSize: 0x0 }
  - { offsetInCU: 0xF8, offset: 0xF8, size: 0x8, addend: 0x0, symName: _.str.6, symObjAddr: 0x23DA0, symBinAddr: 0x1000272A0, symSize: 0x0 }
  - { offsetInCU: 0x115, offset: 0x115, size: 0x8, addend: 0x0, symName: _.str.7, symObjAddr: 0x23DC0, symBinAddr: 0x1000272C0, symSize: 0x0 }
  - { offsetInCU: 0x126, offset: 0x126, size: 0x8, addend: 0x0, symName: _.str.8, symObjAddr: 0x23DE0, symBinAddr: 0x1000272E0, symSize: 0x0 }
  - { offsetInCU: 0x144, offset: 0x144, size: 0x8, addend: 0x0, symName: _.str.13, symObjAddr: 0x23E00, symBinAddr: 0x100027300, symSize: 0x0 }
  - { offsetInCU: 0x161, offset: 0x161, size: 0x8, addend: 0x0, symName: _.str.28, symObjAddr: 0x23E20, symBinAddr: 0x100027320, symSize: 0x0 }
  - { offsetInCU: 0x172, offset: 0x172, size: 0x8, addend: 0x0, symName: _.str.29, symObjAddr: 0x23E40, symBinAddr: 0x100027340, symSize: 0x0 }
  - { offsetInCU: 0x184, offset: 0x184, size: 0x8, addend: 0x0, symName: _.str.36, symObjAddr: 0x23E60, symBinAddr: 0x100027360, symSize: 0x0 }
  - { offsetInCU: 0x195, offset: 0x195, size: 0x8, addend: 0x0, symName: _.str.41, symObjAddr: 0x23E80, symBinAddr: 0x100027380, symSize: 0x0 }
  - { offsetInCU: 0x4A81, offset: 0x4A81, size: 0x8, addend: 0x0, symName: __ZNSt3__113__fill_n_trueB8ue170006INS_6vectorIbNS_9allocatorIbEEEEEEvNS_14__bit_iteratorIT_Lb0EXLi0EEEENS6_9size_typeE, symObjAddr: 0xA3D4, symBinAddr: 0x10000D520, symSize: 0x698 }
  - { offsetInCU: 0x4B7C, offset: 0x4B7C, size: 0x8, addend: 0x0, symName: __ZNSt3__114__fill_n_falseB8ue170006INS_6vectorIbNS_9allocatorIbEEEEEEvNS_14__bit_iteratorIT_Lb0EXLi0EEEENS6_9size_typeE, symObjAddr: 0xAA6C, symBinAddr: 0x10000DBB8, symSize: 0x694 }
  - { offsetInCU: 0x5C8F, offset: 0x5C8F, size: 0x8, addend: 0x0, symName: __ZNSt3__124__put_character_sequenceB8ue170006IcNS_11char_traitsIcEEEERNS_13basic_ostreamIT_T0_EES7_PKS4_m, symObjAddr: 0x10448, symBinAddr: 0x100013594, symSize: 0x910 }
  - { offsetInCU: 0xC801, offset: 0xC801, size: 0x8, addend: 0x0, symName: __ZNSt3__1lsB8ue170006IcNS_11char_traitsIcEENS_9allocatorIcEEEERNS_13basic_ostreamIT_T0_EES9_RKNS_12basic_stringIS6_S7_T1_EE, symObjAddr: 0xB8C, symBinAddr: 0x100003CD8, symSize: 0x48 }
  - { offsetInCU: 0xC8BB, offset: 0xC8BB, size: 0x8, addend: 0x0, symName: __ZNSt3__1neB8ue170006ERKNS_14__bit_iteratorINS_6vectorIbNS_9allocatorIbEEEELb0ELm0EEES7_, symObjAddr: 0x1104, symBinAddr: 0x100004250, symSize: 0xC4 }
  - { offsetInCU: 0xC96B, offset: 0xC96B, size: 0x8, addend: 0x0, symName: __ZNSt3__1rsB8ue170006IcNS_11char_traitsIcEENS_9allocatorIcEEEERNS_13basic_istreamIT_T0_EES9_RNS_12basic_stringIS6_S7_T1_EE, symObjAddr: 0x4C2C, symBinAddr: 0x100007D78, symSize: 0xE9C }
  - { offsetInCU: 0xCE7F, offset: 0xCE7F, size: 0x8, addend: 0x0, symName: __ZNSt3__1eqB8ue170006IPNS_4pairIciEEEEbRKNS_11__wrap_iterIT_EES8_, symObjAddr: 0x103F0, symBinAddr: 0x10001353C, symSize: 0x58 }
  - { offsetInCU: 0xD467, offset: 0xD467, size: 0x8, addend: 0x0, symName: __ZNSt3__19use_facetB8ue170006INS_5ctypeIcEEEERKT_RKNS_6localeE, symObjAddr: 0x1286C, symBinAddr: 0x1000159B8, symSize: 0x100 }
  - { offsetInCU: 0xD846, offset: 0xD846, size: 0x8, addend: 0x0, symName: __ZNSt3__119__allocate_at_leastB8ue170006INS_9allocatorImEEEENS_19__allocation_resultINS_16allocator_traitsIT_E7pointerEEERS5_m, symObjAddr: 0x9A20, symBinAddr: 0x10000CB6C, symSize: 0x44 }
  - { offsetInCU: 0xD8E4, offset: 0xD8E4, size: 0x8, addend: 0x0, symName: __ZNSt3__16fill_nB8ue170006INS_6vectorIbNS_9allocatorIbEEEEEEvNS_14__bit_iteratorIT_Lb0EXLi0EEEENS6_9size_typeEb, symObjAddr: 0x9FA8, symBinAddr: 0x10000D0F4, symSize: 0x2C4 }
  - { offsetInCU: 0xD98E, offset: 0xD98E, size: 0x8, addend: 0x0, symName: __ZNSt3__120__throw_length_errorB8ue170006EPKc, symObjAddr: 0x9C88, symBinAddr: 0x10000CDD4, symSize: 0x78 }
  - { offsetInCU: 0xDB8D, offset: 0xDB8D, size: 0x8, addend: 0x0, symName: __ZNSt3__119__allocate_at_leastB8ue170006INS_9allocatorINS_6vectorIbNS1_IbEEEEEEEENS_19__allocation_resultINS_16allocator_traitsIT_E7pointerEEERS8_m, symObjAddr: 0xBAF8, symBinAddr: 0x10000EC44, symSize: 0x54 }
  - { offsetInCU: 0xDE5E, offset: 0xDE5E, size: 0x8, addend: 0x0, symName: __ZNSt3__121__unwrap_and_dispatchB8ue170006INS_10__overloadINS_11__copy_loopINS_17_ClassicAlgPolicyEEENS_14__copy_trivialEEENS_14__bit_iteratorINS_6vectorIbNS_9allocatorIbEEEELb1ELm0EEESC_NS7_ISB_Lb0ELm0EEELi0EEENS_4pairIT0_T2_EESF_T1_SG_, symObjAddr: 0xD08C, symBinAddr: 0x1000101D8, symSize: 0x44C }
  - { offsetInCU: 0xE0EA, offset: 0xE0EA, size: 0x8, addend: 0x0, symName: __ZNSt3__113__rewrap_iterB8ue170006INS_14__bit_iteratorINS_6vectorIbNS_9allocatorIbEEEELb0ELm0EEES6_NS_18__unwrap_iter_implIS6_Lb0EEEEET_S9_T0_, symObjAddr: 0xD8EC, symBinAddr: 0x100010A38, symSize: 0x2C4 }
  - { offsetInCU: 0xE185, offset: 0xE185, size: 0x8, addend: 0x0, symName: __ZNSt3__1neB8ue170006ERKNS_14__bit_iteratorINS_6vectorIbNS_9allocatorIbEEEELb1ELm0EEES7_, symObjAddr: 0xDBB0, symBinAddr: 0x100010CFC, symSize: 0xC4 }
  - { offsetInCU: 0xE295, offset: 0xE295, size: 0x8, addend: 0x0, symName: __ZNSt3__116__pad_and_outputB8ue170006IcNS_11char_traitsIcEEEENS_19ostreambuf_iteratorIT_T0_EES6_PKS4_S8_S8_RNS_8ios_baseES4_, symObjAddr: 0x10D58, symBinAddr: 0x100013EA4, symSize: 0x800 }
  - { offsetInCU: 0xE51D, offset: 0xE51D, size: 0x8, addend: 0x0, symName: __ZNSt3__119__allocate_at_leastB8ue170006INS_9allocatorINS_12basic_stringIcNS_11char_traitsIcEENS1_IcEEEEEEEENS_19__allocation_resultINS_16allocator_traitsIT_E7pointerEEERSA_m, symObjAddr: 0x13778, symBinAddr: 0x1000168C4, symSize: 0x54 }
  - { offsetInCU: 0xE5E0, offset: 0xE5E0, size: 0x8, addend: 0x0, symName: __ZNSt3__119__allocate_at_leastB8ue170006INS_9allocatorIiEEEENS_19__allocation_resultINS_16allocator_traitsIT_E7pointerEEERS5_m, symObjAddr: 0x16A0C, symBinAddr: 0x100019B58, symSize: 0x44 }
  - { offsetInCU: 0xE6A3, offset: 0xE6A3, size: 0x8, addend: 0x0, symName: __ZNSt3__119__allocate_at_leastB8ue170006INS_9allocatorINS_6vectorIiNS1_IiEEEEEEEENS_19__allocation_resultINS_16allocator_traitsIT_E7pointerEEERS8_m, symObjAddr: 0x18BC8, symBinAddr: 0x10001BD14, symSize: 0x54 }
  - { offsetInCU: 0xEC3F, offset: 0xEC3F, size: 0x8, addend: 0x0, symName: __ZNSt3__142__uninitialized_allocator_move_if_noexceptB8ue170006INS_9allocatorINS_4pairIciEEEENS_16reverse_iteratorIPS3_EES7_S7_EET2_RT_T0_T1_S8_, symObjAddr: 0x1D724, symBinAddr: 0x100020870, symSize: 0x4C4 }
  - { offsetInCU: 0xEE53, offset: 0xEE53, size: 0x8, addend: 0x0, symName: __ZNSt3__119__allocate_at_leastB8ue170006INS_9allocatorINS_4pairIciEEEEEENS_19__allocation_resultINS_16allocator_traitsIT_E7pointerEEERS7_m, symObjAddr: 0x1D3A8, symBinAddr: 0x1000204F4, symSize: 0x44 }
  - { offsetInCU: 0xEF9F, offset: 0xEF9F, size: 0x8, addend: 0x0, symName: __ZNSt3__119__allocator_destroyB8ue170006INS_9allocatorINS_4pairIciEEEENS_16reverse_iteratorINS5_IPS3_EEEES8_EEvRT_T0_T1_, symObjAddr: 0x1E350, symBinAddr: 0x10002149C, symSize: 0x140 }
  - { offsetInCU: 0xF13C, offset: 0xF13C, size: 0x8, addend: 0x0, symName: __ZNSt3__112__to_addressB8ue170006INS_16reverse_iteratorINS1_IPNS_4pairIciEEEEEEvEEu7__decayIDTclsr19__to_address_helperIT_EE6__callclsr3stdE7declvalIRKS7_EEEEES9_, symObjAddr: 0x1E490, symBinAddr: 0x1000215DC, symSize: 0x2C }
  - { offsetInCU: 0xF832, offset: 0xF832, size: 0x8, addend: 0x0, symName: __ZSt28__throw_bad_array_new_lengthB8ue170006v, symObjAddr: 0x9DAC, symBinAddr: 0x10000CEF8, symSize: 0x5C }
  - { offsetInCU: 0x105C6, offset: 0x105C6, size: 0x8, addend: 0x0, symName: __ZNSt3__16vectorINS_4pairIciEENS_9allocatorIS2_EEE26__swap_out_circular_bufferERNS_14__split_bufferIS2_RS4_EE, symObjAddr: 0x1CB94, symBinAddr: 0x10001FCE0, symSize: 0x2E8 }
  - { offsetInCU: 0x12D98, offset: 0x12D98, size: 0x8, addend: 0x0, symName: __ZN14__DEBUG_UTIL__5printEPKc, symObjAddr: 0x0, symBinAddr: 0x10000314C, symSize: 0x30 }
  - { offsetInCU: 0x12E24, offset: 0x12E24, size: 0x8, addend: 0x0, symName: __ZN14__DEBUG_UTIL__5printEb, symObjAddr: 0x30, symBinAddr: 0x10000317C, symSize: 0x28 }
  - { offsetInCU: 0x12E7F, offset: 0x12E7F, size: 0x8, addend: 0x0, symName: __ZN14__DEBUG_UTIL__5printEc, symObjAddr: 0x58, symBinAddr: 0x1000031A4, symSize: 0x21C }
  - { offsetInCU: 0x12F56, offset: 0x12F56, size: 0x8, addend: 0x0, symName: __ZN14__DEBUG_UTIL__5printEs, symObjAddr: 0x274, symBinAddr: 0x1000033C0, symSize: 0xA8 }
  - { offsetInCU: 0x12F80, offset: 0x12F80, size: 0x8, addend: 0x0, symName: __ZN14__DEBUG_UTIL__5printEt, symObjAddr: 0x31C, symBinAddr: 0x100003468, symSize: 0xA8 }
  - { offsetInCU: 0x12FAA, offset: 0x12FAA, size: 0x8, addend: 0x0, symName: __ZN14__DEBUG_UTIL__5printEi, symObjAddr: 0x3C4, symBinAddr: 0x100003510, symSize: 0xA8 }
  - { offsetInCU: 0x12FC8, offset: 0x12FC8, size: 0x8, addend: 0x0, symName: __ZN14__DEBUG_UTIL__5printEj, symObjAddr: 0x46C, symBinAddr: 0x1000035B8, symSize: 0xA8 }
  - { offsetInCU: 0x12FF2, offset: 0x12FF2, size: 0x8, addend: 0x0, symName: __ZN14__DEBUG_UTIL__5printEl, symObjAddr: 0x514, symBinAddr: 0x100003660, symSize: 0xA8 }
  - { offsetInCU: 0x1301C, offset: 0x1301C, size: 0x8, addend: 0x0, symName: __ZN14__DEBUG_UTIL__5printEm, symObjAddr: 0x5BC, symBinAddr: 0x100003708, symSize: 0xA8 }
  - { offsetInCU: 0x13046, offset: 0x13046, size: 0x8, addend: 0x0, symName: __ZN14__DEBUG_UTIL__5printEx, symObjAddr: 0x664, symBinAddr: 0x1000037B0, symSize: 0xA8 }
  - { offsetInCU: 0x13070, offset: 0x13070, size: 0x8, addend: 0x0, symName: __ZN14__DEBUG_UTIL__5printEy, symObjAddr: 0x70C, symBinAddr: 0x100003858, symSize: 0xA8 }
  - { offsetInCU: 0x1309A, offset: 0x1309A, size: 0x8, addend: 0x0, symName: __ZN14__DEBUG_UTIL__5printEf, symObjAddr: 0x7B4, symBinAddr: 0x100003900, symSize: 0xA0 }
  - { offsetInCU: 0x130C4, offset: 0x130C4, size: 0x8, addend: 0x0, symName: __ZN14__DEBUG_UTIL__5printEd, symObjAddr: 0x854, symBinAddr: 0x1000039A0, symSize: 0xA0 }
  - { offsetInCU: 0x130EE, offset: 0x130EE, size: 0x8, addend: 0x0, symName: __ZN14__DEBUG_UTIL__5printEe, symObjAddr: 0x8F4, symBinAddr: 0x100003A40, symSize: 0xA0 }
  - { offsetInCU: 0x13118, offset: 0x13118, size: 0x8, addend: 0x0, symName: __ZN14__DEBUG_UTIL__5printENSt3__112basic_stringIcNS0_11char_traitsIcEENS0_9allocatorIcEEEE, symObjAddr: 0x994, symBinAddr: 0x100003AE0, symSize: 0x1F8 }
  - { offsetInCU: 0x131C3, offset: 0x131C3, size: 0x8, addend: 0x0, symName: __ZN14__DEBUG_UTIL__5printENSt3__16vectorIbNS0_9allocatorIbEEEE, symObjAddr: 0xBD4, symBinAddr: 0x100003D20, symSize: 0x4E4 }
  - { offsetInCU: 0x13433, offset: 0x13433, size: 0x8, addend: 0x0, symName: __ZN14__DEBUG_UTIL__7printerEPKc, symObjAddr: 0x1518, symBinAddr: 0x100004664, symSize: 0x4 }
  - { offsetInCU: 0x13458, offset: 0x13458, size: 0x8, addend: 0x0, symName: __ZN14__DEBUG_UTIL__10printerArrEPKc, symObjAddr: 0x151C, symBinAddr: 0x100004668, symSize: 0x4 }
  - { offsetInCU: 0x1347D, offset: 0x1347D, size: 0x8, addend: 0x0, symName: __ZN14__DEBUG_UTIL__7printerIRiJEEEvPKcOT_DpOT0_, symObjAddr: 0x5B84, symBinAddr: 0x100008CD0, symSize: 0x6AC }
  - { offsetInCU: 0x1356F, offset: 0x1356F, size: 0x8, addend: 0x0, symName: __ZN14__DEBUG_UTIL__7printerIRiJS1_S1_S1_EEEvPKcOT_DpOT0_, symObjAddr: 0x8840, symBinAddr: 0x10000B98C, symSize: 0x78C }
  - { offsetInCU: 0x136A1, offset: 0x136A1, size: 0x8, addend: 0x0, symName: __ZN14__DEBUG_UTIL__7printerIRiJS1_S1_EEEvPKcOT_DpOT0_, symObjAddr: 0xF288, symBinAddr: 0x1000123D4, symSize: 0x898 }
  - { offsetInCU: 0x137B7, offset: 0x137B7, size: 0x8, addend: 0x0, symName: __ZN14__DEBUG_UTIL__7printerIRiJS1_EEEvPKcOT_DpOT0_, symObjAddr: 0xFB20, symBinAddr: 0x100012C6C, symSize: 0x8D0 }
  - { offsetInCU: 0x138F1, offset: 0x138F1, size: 0x8, addend: 0x0, symName: __ZNKSt3__112basic_stringIcNS_11char_traitsIcEENS_9allocatorIcEEE13__get_pointerB8ue170006Ev, symObjAddr: 0x12B64, symBinAddr: 0x100015CB0, symSize: 0x5C }
  - { offsetInCU: 0x13954, offset: 0x13954, size: 0x8, addend: 0x0, symName: __ZNKSt3__112basic_stringIcNS_11char_traitsIcEENS_9allocatorIcEEE4sizeB8ue170006Ev, symObjAddr: 0x12B08, symBinAddr: 0x100015C54, symSize: 0x5C }
  - { offsetInCU: 0x13A6F, offset: 0x13A6F, size: 0x8, addend: 0x0, symName: __ZNKSt3__114__bit_iteratorINS_6vectorIbNS_9allocatorIbEEEELb0ELm0EEdeB8ue170006Ev, symObjAddr: 0x11C8, symBinAddr: 0x100004314, symSize: 0xCC }
  - { offsetInCU: 0x13A96, offset: 0x13A96, size: 0x8, addend: 0x0, symName: __ZNKSt3__115__bit_referenceINS_6vectorIbNS_9allocatorIbEEEELb1EEcvbB8ue170006Ev, symObjAddr: 0x1294, symBinAddr: 0x1000043E0, symSize: 0xE4 }
  - { offsetInCU: 0x13ABD, offset: 0x13ABD, size: 0x8, addend: 0x0, symName: __ZNSt3__114__bit_iteratorINS_6vectorIbNS_9allocatorIbEEEELb0ELm0EEppB8ue170006Ev, symObjAddr: 0x1378, symBinAddr: 0x1000044C4, symSize: 0x1A0 }
  - { offsetInCU: 0x13AE4, offset: 0x13AE4, size: 0x8, addend: 0x0, symName: __ZNSt3__16vectorIbNS_9allocatorIbEEE5beginB8ue170006Ev, symObjAddr: 0x10B8, symBinAddr: 0x100004204, symSize: 0x4C }
  - { offsetInCU: 0x13B19, offset: 0x13B19, size: 0x8, addend: 0x0, symName: __ZNSt3__16vectorIbNS_9allocatorIbEEE11__make_iterB8ue170006Em, symObjAddr: 0xA26C, symBinAddr: 0x10000D3B8, symSize: 0x168 }
  - { offsetInCU: 0x13FAC, offset: 0x13FAC, size: 0x8, addend: 0x0, symName: _main, symObjAddr: 0x1520, symBinAddr: 0x10000466C, symSize: 0x356C }
  - { offsetInCU: 0x15094, offset: 0x15094, size: 0x8, addend: 0x0, symName: __ZNSt3__19basic_iosIcNS_11char_traitsIcEEE3tieB8ue170006EPNS_13basic_ostreamIcS2_EE, symObjAddr: 0x4A8C, symBinAddr: 0x100007BD8, symSize: 0x1A0 }
  - { offsetInCU: 0x150DD, offset: 0x150DD, size: 0x8, addend: 0x0, symName: __ZNSt3__16vectorINS_12basic_stringIcNS_11char_traitsIcEENS_9allocatorIcEEEENS4_IS6_EEEC2Em, symObjAddr: 0x12DC8, symBinAddr: 0x100015F14, symSize: 0x338 }
  - { offsetInCU: 0x15235, offset: 0x15235, size: 0x8, addend: 0x0, symName: __ZNSt3__112basic_stringIcNS_11char_traitsIcEENS_9allocatorIcEEEixB8ue170006Em, symObjAddr: 0x5AC8, symBinAddr: 0x100008C14, symSize: 0xBC }
  - { offsetInCU: 0x15279, offset: 0x15279, size: 0x8, addend: 0x0, symName: __ZNSt3__16vectorIiNS_9allocatorIiEEEC2EmRKi, symObjAddr: 0x16024, symBinAddr: 0x100019170, symSize: 0x340 }
  - { offsetInCU: 0x153E5, offset: 0x153E5, size: 0x8, addend: 0x0, symName: __ZNSt3__16vectorINS0_IiNS_9allocatorIiEEEENS1_IS3_EEEC2EmRKS3_, symObjAddr: 0x181D0, symBinAddr: 0x10001B31C, symSize: 0x340 }
  - { offsetInCU: 0x15551, offset: 0x15551, size: 0x8, addend: 0x0, symName: __ZNSt3__16vectorIiNS_9allocatorIiEEE16__destroy_vectorclB8ue170006Ev, symObjAddr: 0x17C38, symBinAddr: 0x10001AD84, symSize: 0x240 }
  - { offsetInCU: 0x1567F, offset: 0x1567F, size: 0x8, addend: 0x0, symName: __ZNSt3__117__compressed_pairIPNS_4pairIciEENS_9allocatorIS2_EEEC2B8ue170006IDnNS_18__default_init_tagEEEOT_OT0_, symObjAddr: 0x1AF98, symBinAddr: 0x10001E0E4, symSize: 0xB0 }
  - { offsetInCU: 0x15754, offset: 0x15754, size: 0x8, addend: 0x0, symName: '__ZZ4mainENK3$_0clEiii', symObjAddr: 0x63D0, symBinAddr: 0x10000951C, symSize: 0x1A0C }
  - { offsetInCU: 0x15C41, offset: 0x15C41, size: 0x8, addend: 0x0, symName: __ZNSt3__16vectorINS_4pairIciEENS_9allocatorIS2_EEE12emplace_backIJciEEERS2_DpOT_, symObjAddr: 0x7DDC, symBinAddr: 0x10000AF28, symSize: 0xC0 }
  - { offsetInCU: 0x15CDC, offset: 0x15CDC, size: 0x8, addend: 0x0, symName: __ZNKSt3__16vectorINS_4pairIciEENS_9allocatorIS2_EEE4sizeB8ue170006Ev, symObjAddr: 0x7E9C, symBinAddr: 0x10000AFE8, symSize: 0x8C }
  - { offsetInCU: 0x15D03, offset: 0x15D03, size: 0x8, addend: 0x0, symName: __ZNSt3__16vectorINS_4pairIciEENS_9allocatorIS2_EEE16__destroy_vectorclB8ue170006Ev, symObjAddr: 0x1B0C4, symBinAddr: 0x10001E210, symSize: 0x240 }
  - { offsetInCU: 0x15E31, offset: 0x15E31, size: 0x8, addend: 0x0, symName: __ZNSt3__16vectorINS0_IiNS_9allocatorIiEEEENS1_IS3_EEE16__destroy_vectorclB8ue170006Ev, symObjAddr: 0x1A7EC, symBinAddr: 0x10001D938, symSize: 0x240 }
  - { offsetInCU: 0x15F5F, offset: 0x15F5F, size: 0x8, addend: 0x0, symName: __ZNSt3__16vectorINS_12basic_stringIcNS_11char_traitsIcEENS_9allocatorIcEEEENS4_IS6_EEE16__destroy_vectorclB8ue170006Ev, symObjAddr: 0x14C90, symBinAddr: 0x100017DDC, symSize: 0x240 }
  - { offsetInCU: 0x1608D, offset: 0x1608D, size: 0x8, addend: 0x0, symName: __ZNSt3__16vectorIiNS_9allocatorIiEEED1B8ue170006Ev, symObjAddr: 0x6230, symBinAddr: 0x10000937C, symSize: 0x1A0 }
  - { offsetInCU: 0x160EE, offset: 0x160EE, size: 0x8, addend: 0x0, symName: __ZNSt3__16vectorINS_4pairIciEENS_9allocatorIS2_EEED1B8ue170006Ev, symObjAddr: 0x7F28, symBinAddr: 0x10000B074, symSize: 0x1A0 }
  - { offsetInCU: 0x1614F, offset: 0x1614F, size: 0x8, addend: 0x0, symName: __ZNSt3__16vectorINS0_IiNS_9allocatorIiEEEENS1_IS3_EEED1B8ue170006Ev, symObjAddr: 0x80C8, symBinAddr: 0x10000B214, symSize: 0x1A0 }
  - { offsetInCU: 0x161B0, offset: 0x161B0, size: 0x8, addend: 0x0, symName: __ZNSt3__16vectorINS_12basic_stringIcNS_11char_traitsIcEENS_9allocatorIcEEEENS4_IS6_EEED1B8ue170006Ev, symObjAddr: 0x8268, symBinAddr: 0x10000B3B4, symSize: 0x1A0 }
  - { offsetInCU: 0x16303, offset: 0x16303, size: 0x8, addend: 0x0, symName: __ZNSt3__112basic_stringIcNS_11char_traitsIcEENS_9allocatorIcEEE5clearB8ue170006Ev, symObjAddr: 0x15298, symBinAddr: 0x1000183E4, symSize: 0x124 }
  - { offsetInCU: 0x163C8, offset: 0x163C8, size: 0x8, addend: 0x0, symName: __ZNKSt3__112basic_stringIcNS_11char_traitsIcEENS_9allocatorIcEEE8max_sizeB8ue170006Ev, symObjAddr: 0x11B50, symBinAddr: 0x100014C9C, symSize: 0x74 }
  - { offsetInCU: 0x16419, offset: 0x16419, size: 0x8, addend: 0x0, symName: __ZNKSt3__18ios_base5rdbufB8ue170006Ev, symObjAddr: 0x1244C, symBinAddr: 0x100015598, symSize: 0xE0 }
  - { offsetInCU: 0x16440, offset: 0x16440, size: 0x8, addend: 0x0, symName: __ZNSt3__115basic_streambufIcNS_11char_traitsIcEEE5sgetcB8ue170006Ev, symObjAddr: 0x153BC, symBinAddr: 0x100018508, symSize: 0x308 }
  - { offsetInCU: 0x164A1, offset: 0x164A1, size: 0x8, addend: 0x0, symName: __ZNKSt3__15ctypeIcE2isB8ue170006Ejc, symObjAddr: 0x156C4, symBinAddr: 0x100018810, symSize: 0x1C8 }
  - { offsetInCU: 0x164E8, offset: 0x164E8, size: 0x8, addend: 0x0, symName: __ZNSt3__115basic_streambufIcNS_11char_traitsIcEEE6sbumpcB8ue170006Ev, symObjAddr: 0x1588C, symBinAddr: 0x1000189D8, symSize: 0x370 }
  - { offsetInCU: 0x1651B, offset: 0x1651B, size: 0x8, addend: 0x0, symName: __ZNSt3__18ios_base5widthB8ue170006El, symObjAddr: 0x1189C, symBinAddr: 0x1000149E8, symSize: 0x1A0 }
  - { offsetInCU: 0x16564, offset: 0x16564, size: 0x8, addend: 0x0, symName: __ZNSt3__19basic_iosIcNS_11char_traitsIcEEE8setstateB8ue170006Ej, symObjAddr: 0x117A0, symBinAddr: 0x1000148EC, symSize: 0xFC }
  - { offsetInCU: 0x165A9, offset: 0x165A9, size: 0x8, addend: 0x0, symName: __ZNSt3__18ios_base18__setstate_nothrowB8ue170006Ej, symObjAddr: 0x15BFC, symBinAddr: 0x100018D48, symSize: 0x234 }
  - { offsetInCU: 0x165E0, offset: 0x165E0, size: 0x8, addend: 0x0, symName: __ZNKSt3__19basic_iosIcNS_11char_traitsIcEEE10exceptionsB8ue170006Ev, symObjAddr: 0x15E30, symBinAddr: 0x100018F7C, symSize: 0x1F4 }
  - { offsetInCU: 0x1661E, offset: 0x1661E, size: 0x8, addend: 0x0, symName: __ZNSt3__112basic_stringIcNS_11char_traitsIcEENS_9allocatorIcEEE13__get_pointerB8ue170006Ev, symObjAddr: 0x11F68, symBinAddr: 0x1000150B4, symSize: 0x5C }
  - { offsetInCU: 0x16835, offset: 0x16835, size: 0x8, addend: 0x0, symName: __ZNSt3__16vectorIbNS_9allocatorIbEEEC2Em, symObjAddr: 0x916C, symBinAddr: 0x10000C2B8, symSize: 0x20C }
  - { offsetInCU: 0x168E4, offset: 0x168E4, size: 0x8, addend: 0x0, symName: __ZNSt3__16vectorINS0_IbNS_9allocatorIbEEEENS1_IS3_EEEC2EmRKS3_, symObjAddr: 0xB100, symBinAddr: 0x10000E24C, symSize: 0x340 }
  - { offsetInCU: 0x16A50, offset: 0x16A50, size: 0x8, addend: 0x0, symName: __ZNSt3__16vectorIbNS_9allocatorIbEEE16__destroy_vectorclB8ue170006Ev, symObjAddr: 0xF028, symBinAddr: 0x100012174, symSize: 0x194 }
  - { offsetInCU: 0x16B3F, offset: 0x16B3F, size: 0x8, addend: 0x0, symName: __ZNSt3__16vectorIbNS_9allocatorIbEEE10__make_refB8ue170006Em, symObjAddr: 0xF1BC, symBinAddr: 0x100012308, symSize: 0xCC }
  - { offsetInCU: 0x16B76, offset: 0x16B76, size: 0x8, addend: 0x0, symName: __ZNSt3__115__bit_referenceINS_6vectorIbNS_9allocatorIbEEEELb1EEaSB8ue170006Eb, symObjAddr: 0x85A8, symBinAddr: 0x10000B6F4, symSize: 0x1B0 }
  - { offsetInCU: 0x16BAC, offset: 0x16BAC, size: 0x8, addend: 0x0, symName: __ZNSt3__15arrayIPNS_6vectorINS1_IiNS_9allocatorIiEEEENS2_IS4_EEEELm4EEixB8ue170006Em, symObjAddr: 0x8758, symBinAddr: 0x10000B8A4, symSize: 0xE8 }
  - { offsetInCU: 0x16BE2, offset: 0x16BE2, size: 0x8, addend: 0x0, symName: __ZNSt3__16vectorINS0_IbNS_9allocatorIbEEEENS1_IS3_EEE16__destroy_vectorclB8ue170006Ev, symObjAddr: 0xE87C, symBinAddr: 0x1000119C8, symSize: 0x240 }
  - { offsetInCU: 0x16D10, offset: 0x16D10, size: 0x8, addend: 0x0, symName: __ZNSt3__16vectorIbNS_9allocatorIbEEED1B8ue170006Ev, symObjAddr: 0x8408, symBinAddr: 0x10000B554, symSize: 0x1A0 }
  - { offsetInCU: 0x16D71, offset: 0x16D71, size: 0x8, addend: 0x0, symName: __ZNSt3__16vectorINS0_IbNS_9allocatorIbEEEENS1_IS3_EEED1B8ue170006Ev, symObjAddr: 0x8FCC, symBinAddr: 0x10000C118, symSize: 0x1A0 }
  - { offsetInCU: 0x16DD2, offset: 0x16DD2, size: 0x8, addend: 0x0, symName: __ZNSt3__16vectorINS_4pairIciEENS_9allocatorIS2_EEE9__end_capB8ue170006Ev, symObjAddr: 0x1B968, symBinAddr: 0x10001EAB4, symSize: 0x70 }
  - { offsetInCU: 0x16E02, offset: 0x16E02, size: 0x8, addend: 0x0, symName: __ZNSt3__16vectorINS_4pairIciEENS_9allocatorIS2_EEE22__construct_one_at_endB8ue170006IJciEEEvDpOT_, symObjAddr: 0x1B9D8, symBinAddr: 0x10001EB24, symSize: 0x298 }
  - { offsetInCU: 0x16F72, offset: 0x16F72, size: 0x8, addend: 0x0, symName: __ZNSt3__16vectorINS_4pairIciEENS_9allocatorIS2_EEE24__emplace_back_slow_pathIJciEEEvDpOT_, symObjAddr: 0x1BC70, symBinAddr: 0x10001EDBC, symSize: 0x2D0 }
  - { offsetInCU: 0x1713B, offset: 0x1713B, size: 0x8, addend: 0x0, symName: __ZNSt3__16vectorINS_4pairIciEENS_9allocatorIS2_EEE4backB8ue170006Ev, symObjAddr: 0x1BF40, symBinAddr: 0x10001F08C, symSize: 0xC0 }
  - { offsetInCU: 0x171A4, offset: 0x171A4, size: 0x8, addend: 0x0, symName: __ZNSt3__117__compressed_pairImNS_9allocatorImEEEC2B8ue170006IiNS_18__default_init_tagEEEOT_OT0_, symObjAddr: 0x9878, symBinAddr: 0x10000C9C4, symSize: 0xE8 }
  - { offsetInCU: 0x1722C, offset: 0x1722C, size: 0x8, addend: 0x0, symName: __ZNSt3__16vectorIbNS_9allocatorIbEEE11__vallocateB8ue170006Em, symObjAddr: 0x9378, symBinAddr: 0x10000C4C4, symSize: 0x138 }
  - { offsetInCU: 0x1731B, offset: 0x1731B, size: 0x8, addend: 0x0, symName: __ZNSt3__16vectorIbNS_9allocatorIbEEE18__construct_at_endB8ue170006Emb, symObjAddr: 0x94B0, symBinAddr: 0x10000C5FC, symSize: 0x3C8 }
  - { offsetInCU: 0x1741B, offset: 0x1741B, size: 0x8, addend: 0x0, symName: __ZNKSt3__16vectorIbNS_9allocatorIbEEE7__allocB8ue170006Ev, symObjAddr: 0x9B44, symBinAddr: 0x10000CC90, symSize: 0x70 }
  - { offsetInCU: 0x1744B, offset: 0x1744B, size: 0x8, addend: 0x0, symName: __ZNSt3__16vectorIbNS_9allocatorIbEEE7__allocB8ue170006Ev, symObjAddr: 0x9A64, symBinAddr: 0x10000CBB0, symSize: 0x70 }
  - { offsetInCU: 0x17480, offset: 0x17480, size: 0x8, addend: 0x0, symName: __ZNSt3__117__compressed_pairImNS_9allocatorImEEE5firstB8ue170006Ev, symObjAddr: 0x9EDC, symBinAddr: 0x10000D028, symSize: 0xCC }
  - { offsetInCU: 0x174C4, offset: 0x174C4, size: 0x8, addend: 0x0, symName: __ZNKSt3__16vectorIbNS_9allocatorIbEEE20__throw_length_errorB8ue170006Ev, symObjAddr: 0x99DC, symBinAddr: 0x10000CB28, symSize: 0x44 }
  - { offsetInCU: 0x17527, offset: 0x17527, size: 0x8, addend: 0x0, symName: __ZNSt3__122__compressed_pair_elemINS_9allocatorImEELi1ELb1EEC2B8ue170006ENS_18__default_init_tagE, symObjAddr: 0x9960, symBinAddr: 0x10000CAAC, symSize: 0x7C }
  - { offsetInCU: 0x175FC, offset: 0x175FC, size: 0x8, addend: 0x0, symName: __ZNSt3__117__compressed_pairImNS_9allocatorImEEE6secondB8ue170006Ev, symObjAddr: 0x9E08, symBinAddr: 0x10000CF54, symSize: 0xD4 }
  - { offsetInCU: 0x1763F, offset: 0x1763F, size: 0x8, addend: 0x0, symName: __ZNSt3__16vectorIbNS_9allocatorIbEEE5__capB8ue170006Ev, symObjAddr: 0x9AD4, symBinAddr: 0x10000CC20, symSize: 0x70 }
  - { offsetInCU: 0x1766F, offset: 0x1766F, size: 0x8, addend: 0x0, symName: __ZNKSt3__117__compressed_pairImNS_9allocatorImEEE6secondB8ue170006Ev, symObjAddr: 0x9BB4, symBinAddr: 0x10000CD00, symSize: 0xD4 }
  - { offsetInCU: 0x176CE, offset: 0x176CE, size: 0x8, addend: 0x0, symName: __ZNSt12length_errorC1B8ue170006EPKc, symObjAddr: 0x9D00, symBinAddr: 0x10000CE4C, symSize: 0xAC }
  - { offsetInCU: 0x1788C, offset: 0x1788C, size: 0x8, addend: 0x0, symName: __ZNSt3__117__compressed_pairIPNS_6vectorIbNS_9allocatorIbEEEENS2_IS4_EEEC2B8ue170006IDnNS_18__default_init_tagEEEOT_OT0_, symObjAddr: 0xB988, symBinAddr: 0x10000EAD4, symSize: 0xB0 }
  - { offsetInCU: 0x1790B, offset: 0x1790B, size: 0x8, addend: 0x0, symName: __ZNSt3__16vectorINS0_IbNS_9allocatorIbEEEENS1_IS3_EEE11__vallocateB8ue170006Em, symObjAddr: 0xB440, symBinAddr: 0x10000E58C, symSize: 0x1BC }
  - { offsetInCU: 0x179F6, offset: 0x179F6, size: 0x8, addend: 0x0, symName: __ZNSt3__16vectorINS0_IbNS_9allocatorIbEEEENS1_IS3_EEE18__construct_at_endEmRKS3_, symObjAddr: 0xB5FC, symBinAddr: 0x10000E748, symSize: 0x344 }
  - { offsetInCU: 0x17B4B, offset: 0x17B4B, size: 0x8, addend: 0x0, symName: __ZNSt3__128__exception_guard_exceptionsINS_6vectorINS1_IbNS_9allocatorIbEEEENS2_IS4_EEE16__destroy_vectorEED2B8ue170006Ev, symObjAddr: 0xE798, symBinAddr: 0x1000118E4, symSize: 0xE4 }
  - { offsetInCU: 0x17B8A, offset: 0x17B8A, size: 0x8, addend: 0x0, symName: __ZNSt3__128__exception_guard_exceptionsINS_6vectorINS1_IbNS_9allocatorIbEEEENS2_IS4_EEE16__destroy_vectorEED1B8ue170006Ev, symObjAddr: 0xB940, symBinAddr: 0x10000EA8C, symSize: 0x48 }
  - { offsetInCU: 0x17BEE, offset: 0x17BEE, size: 0x8, addend: 0x0, symName: __ZNKSt3__16vectorINS0_IbNS_9allocatorIbEEEENS1_IS3_EEE7__allocB8ue170006Ev, symObjAddr: 0xBE64, symBinAddr: 0x10000EFB0, symSize: 0x70 }
  - { offsetInCU: 0x17C23, offset: 0x17C23, size: 0x8, addend: 0x0, symName: __ZNSt3__16vectorINS0_IbNS_9allocatorIbEEEENS1_IS3_EEE7__allocB8ue170006Ev, symObjAddr: 0xBB4C, symBinAddr: 0x10000EC98, symSize: 0x70 }
  - { offsetInCU: 0x17C53, offset: 0x17C53, size: 0x8, addend: 0x0, symName: __ZNSt3__117__compressed_pairIPNS_6vectorIbNS_9allocatorIbEEEENS2_IS4_EEE5firstB8ue170006Ev, symObjAddr: 0xC088, symBinAddr: 0x10000F1D4, symSize: 0xCC }
  - { offsetInCU: 0x17C97, offset: 0x17C97, size: 0x8, addend: 0x0, symName: __ZNKSt3__16vectorINS0_IbNS_9allocatorIbEEEENS1_IS3_EEE14__annotate_newB8ue170006Em, symObjAddr: 0xBBBC, symBinAddr: 0x10000ED08, symSize: 0x2A8 }
  - { offsetInCU: 0x17D8D, offset: 0x17D8D, size: 0x8, addend: 0x0, symName: __ZNKSt3__16vectorINS0_IbNS_9allocatorIbEEEENS1_IS3_EEE20__throw_length_errorB8ue170006Ev, symObjAddr: 0xBAB4, symBinAddr: 0x10000EC00, symSize: 0x44 }
  - { offsetInCU: 0x17E45, offset: 0x17E45, size: 0x8, addend: 0x0, symName: __ZNSt3__16vectorINS0_IbNS_9allocatorIbEEEENS1_IS3_EEE21_ConstructTransactionC2B8ue170006ERS5_m, symObjAddr: 0xC3C4, symBinAddr: 0x10000F510, symSize: 0x1A4 }
  - { offsetInCU: 0x17E9D, offset: 0x17E9D, size: 0x8, addend: 0x0, symName: __ZNSt3__117__compressed_pairIPNS_6vectorIbNS_9allocatorIbEEEENS2_IS4_EEE6secondB8ue170006Ev, symObjAddr: 0xBFB4, symBinAddr: 0x10000F100, symSize: 0xD4 }
  - { offsetInCU: 0x17EE0, offset: 0x17EE0, size: 0x8, addend: 0x0, symName: __ZNSt3__116allocator_traitsINS_9allocatorINS_6vectorIbNS1_IbEEEEEEE9constructB8ue170006IS4_JRKS4_EvEEvRS5_PT_DpOT0_, symObjAddr: 0xC328, symBinAddr: 0x10000F474, symSize: 0x54 }
  - { offsetInCU: 0x17F86, offset: 0x17F86, size: 0x8, addend: 0x0, symName: __ZNSt3__16vectorINS0_IbNS_9allocatorIbEEEENS1_IS3_EEE21_ConstructTransactionD2B8ue170006Ev, symObjAddr: 0xE2F4, symBinAddr: 0x100011440, symSize: 0x220 }
  - { offsetInCU: 0x17FBE, offset: 0x17FBE, size: 0x8, addend: 0x0, symName: __ZNSt3__16vectorINS0_IbNS_9allocatorIbEEEENS1_IS3_EEE21_ConstructTransactionD1B8ue170006Ev, symObjAddr: 0xC37C, symBinAddr: 0x10000F4C8, symSize: 0x48 }
  - { offsetInCU: 0x1801D, offset: 0x1801D, size: 0x8, addend: 0x0, symName: __ZNSt3__122__compressed_pair_elemINS_9allocatorINS_6vectorIbNS1_IbEEEEEELi1ELb1EEC2B8ue170006ENS_18__default_init_tagE, symObjAddr: 0xBA38, symBinAddr: 0x10000EB84, symSize: 0x7C }
  - { offsetInCU: 0x18149, offset: 0x18149, size: 0x8, addend: 0x0, symName: __ZNKSt3__16vectorINS0_IbNS_9allocatorIbEEEENS1_IS3_EEE8capacityB8ue170006Ev, symObjAddr: 0xC154, symBinAddr: 0x10000F2A0, symSize: 0x98 }
  - { offsetInCU: 0x18184, offset: 0x18184, size: 0x8, addend: 0x0, symName: __ZNKSt3__117__compressed_pairIPNS_6vectorIbNS_9allocatorIbEEEENS2_IS4_EEE6secondB8ue170006Ev, symObjAddr: 0xBEE0, symBinAddr: 0x10000F02C, symSize: 0xD4 }
  - { offsetInCU: 0x1820F, offset: 0x1820F, size: 0x8, addend: 0x0, symName: __ZNKSt3__16vectorINS0_IbNS_9allocatorIbEEEENS1_IS3_EEE9__end_capB8ue170006Ev, symObjAddr: 0xC1EC, symBinAddr: 0x10000F338, symSize: 0x70 }
  - { offsetInCU: 0x18244, offset: 0x18244, size: 0x8, addend: 0x0, symName: __ZNKSt3__117__compressed_pairIPNS_6vectorIbNS_9allocatorIbEEEENS2_IS4_EEE5firstB8ue170006Ev, symObjAddr: 0xC25C, symBinAddr: 0x10000F3A8, symSize: 0xCC }
  - { offsetInCU: 0x1830C, offset: 0x1830C, size: 0x8, addend: 0x0, symName: __ZNSt3__16vectorIbNS_9allocatorIbEEEC2ERKS3_, symObjAddr: 0xC90C, symBinAddr: 0x10000FA58, symSize: 0x284 }
  - { offsetInCU: 0x18445, offset: 0x18445, size: 0x8, addend: 0x0, symName: __ZNKSt3__16vectorINS0_IbNS_9allocatorIbEEEENS1_IS3_EEE19__annotate_increaseB8ue170006Em, symObjAddr: 0xC568, symBinAddr: 0x10000F6B4, symSize: 0x30C }
  - { offsetInCU: 0x1854F, offset: 0x1854F, size: 0x8, addend: 0x0, symName: __ZNKSt3__16vectorINS0_IbNS_9allocatorIbEEEENS1_IS3_EEE4sizeB8ue170006Ev, symObjAddr: 0xC874, symBinAddr: 0x10000F9C0, symSize: 0x98 }
  - { offsetInCU: 0x18600, offset: 0x18600, size: 0x8, addend: 0x0, symName: __ZNSt3__117__compressed_pairImNS_9allocatorImEEEC2B8ue170006IiS2_EEOT_OT0_, symObjAddr: 0xCFA4, symBinAddr: 0x1000100F0, symSize: 0xE8 }
  - { offsetInCU: 0x1867A, offset: 0x1867A, size: 0x8, addend: 0x0, symName: __ZNKSt3__16vectorIbNS_9allocatorIbEEE5beginB8ue170006Ev, symObjAddr: 0xCF24, symBinAddr: 0x100010070, symSize: 0x80 }
  - { offsetInCU: 0x186C1, offset: 0x186C1, size: 0x8, addend: 0x0, symName: __ZNKSt3__16vectorIbNS_9allocatorIbEEE11__make_iterB8ue170006Em, symObjAddr: 0xE22C, symBinAddr: 0x100011378, symSize: 0xC8 }
  - { offsetInCU: 0x186EC, offset: 0x186EC, size: 0x8, addend: 0x0, symName: __ZNSt3__16vectorIbNS_9allocatorIbEEE18__construct_at_endINS_14__bit_iteratorIS3_Lb1ELm0EEES6_EEvT_T0_m, symObjAddr: 0xCB90, symBinAddr: 0x10000FCDC, symSize: 0x394 }
  - { offsetInCU: 0x18882, offset: 0x18882, size: 0x8, addend: 0x0, symName: __ZNKSt3__111__copy_loopINS_17_ClassicAlgPolicyEEclB8ue170006INS_14__bit_iteratorINS_6vectorIbNS_9allocatorIbEEEELb1ELm0EEES9_NS4_IS8_Lb0ELm0EEEEENS_4pairIT_T1_EESC_T0_SD_, symObjAddr: 0xD4D8, symBinAddr: 0x100010624, symSize: 0x414 }
  - { offsetInCU: 0x18A54, offset: 0x18A54, size: 0x8, addend: 0x0, symName: __ZNSt3__14pairINS_14__bit_iteratorINS_6vectorIbNS_9allocatorIbEEEELb1ELm0EEENS1_IS5_Lb0ELm0EEEEC2B8ue170006IS6_S7_LPv0EEEOT_OT0_, symObjAddr: 0xDFC4, symBinAddr: 0x100011110, symSize: 0x140 }
  - { offsetInCU: 0x18AF4, offset: 0x18AF4, size: 0x8, addend: 0x0, symName: __ZNKSt3__114__bit_iteratorINS_6vectorIbNS_9allocatorIbEEEELb1ELm0EEdeB8ue170006Ev, symObjAddr: 0xDC74, symBinAddr: 0x100010DC0, symSize: 0xCC }
  - { offsetInCU: 0x18B1B, offset: 0x18B1B, size: 0x8, addend: 0x0, symName: __ZNKSt3__121__bit_const_referenceINS_6vectorIbNS_9allocatorIbEEEEEcvbB8ue170006Ev, symObjAddr: 0xDD40, symBinAddr: 0x100010E8C, symSize: 0xE4 }
  - { offsetInCU: 0x18B42, offset: 0x18B42, size: 0x8, addend: 0x0, symName: __ZNSt3__114__bit_iteratorINS_6vectorIbNS_9allocatorIbEEEELb1ELm0EEppB8ue170006Ev, symObjAddr: 0xDE24, symBinAddr: 0x100010F70, symSize: 0x1A0 }
  - { offsetInCU: 0x18B69, offset: 0x18B69, size: 0x8, addend: 0x0, symName: __ZNSt3__118__unwrap_iter_implINS_14__bit_iteratorINS_6vectorIbNS_9allocatorIbEEEELb0ELm0EEELb0EE8__rewrapB8ue170006ES6_S6_, symObjAddr: 0xE104, symBinAddr: 0x100011250, symSize: 0x128 }
  - { offsetInCU: 0x18BDE, offset: 0x18BDE, size: 0x8, addend: 0x0, symName: __ZNKSt3__16vectorINS0_IbNS_9allocatorIbEEEENS1_IS3_EEE17__annotate_shrinkB8ue170006Em, symObjAddr: 0xE514, symBinAddr: 0x100011660, symSize: 0x284 }
  - { offsetInCU: 0x18D42, offset: 0x18D42, size: 0x8, addend: 0x0, symName: __ZNSt3__16vectorINS0_IbNS_9allocatorIbEEEENS1_IS3_EEE22__base_destruct_at_endB8ue170006EPS3_, symObjAddr: 0xED54, symBinAddr: 0x100011EA0, symSize: 0x100 }
  - { offsetInCU: 0x18DD5, offset: 0x18DD5, size: 0x8, addend: 0x0, symName: __ZNKSt3__16vectorINS0_IbNS_9allocatorIbEEEENS1_IS3_EEE17__annotate_deleteB8ue170006Ev, symObjAddr: 0xEABC, symBinAddr: 0x100011C08, symSize: 0x298 }
  - { offsetInCU: 0x18EF9, offset: 0x18EF9, size: 0x8, addend: 0x0, symName: __ZNSt3__19allocatorINS_6vectorIbNS0_IbEEEEE7destroyB8ue170006EPS3_, symObjAddr: 0xEE54, symBinAddr: 0x100011FA0, symSize: 0x1D4 }
  - { offsetInCU: 0x1906A, offset: 0x1906A, size: 0x8, addend: 0x0, symName: __ZNSt3__119ostreambuf_iteratorIcNS_11char_traitsIcEEEC2B8ue170006ERNS_13basic_ostreamIcS2_EE, symObjAddr: 0x121B4, symBinAddr: 0x100015300, symSize: 0x298 }
  - { offsetInCU: 0x190C7, offset: 0x190C7, size: 0x8, addend: 0x0, symName: __ZNKSt3__19basic_iosIcNS_11char_traitsIcEEE4fillB8ue170006Ev, symObjAddr: 0x11558, symBinAddr: 0x1000146A4, symSize: 0x248 }
  - { offsetInCU: 0x191B0, offset: 0x191B0, size: 0x8, addend: 0x0, symName: __ZNSt3__117__compressed_pairINS_12basic_stringIcNS_11char_traitsIcEENS_9allocatorIcEEE5__repES5_EC1B8ue170006INS_18__default_init_tagESA_EEOT_OT0_, symObjAddr: 0x11A3C, symBinAddr: 0x100014B88, symSize: 0x98 }
  - { offsetInCU: 0x1924D, offset: 0x1924D, size: 0x8, addend: 0x0, symName: __ZNKSt3__19basic_iosIcNS_11char_traitsIcEEE5widenB8ue170006Ec, symObjAddr: 0x1252C, symBinAddr: 0x100015678, symSize: 0x340 }
  - { offsetInCU: 0x192D1, offset: 0x192D1, size: 0x8, addend: 0x0, symName: __ZNSt3__18ios_base8setstateB8ue170006Ej, symObjAddr: 0x1296C, symBinAddr: 0x100015AB8, symSize: 0x19C }
  - { offsetInCU: 0x1936E, offset: 0x1936E, size: 0x8, addend: 0x0, symName: __ZNSt3__122__compressed_pair_elemINS_9allocatorIcEELi1ELb1EEC2B8ue170006ENS_18__default_init_tagE, symObjAddr: 0x11AD4, symBinAddr: 0x100014C20, symSize: 0x7C }
  - { offsetInCU: 0x19433, offset: 0x19433, size: 0x8, addend: 0x0, symName: __ZNKSt3__117__compressed_pairINS_12basic_stringIcNS_11char_traitsIcEENS_9allocatorIcEEE5__repES5_E6secondB8ue170006Ev, symObjAddr: 0x11DC8, symBinAddr: 0x100014F14, symSize: 0xD4 }
  - { offsetInCU: 0x19476, offset: 0x19476, size: 0x8, addend: 0x0, symName: __ZNSt3__112basic_stringIcNS_11char_traitsIcEENS_9allocatorIcEEE16__set_short_sizeB8ue170006Em, symObjAddr: 0x11BC4, symBinAddr: 0x100014D10, symSize: 0x11C }
  - { offsetInCU: 0x194E9, offset: 0x194E9, size: 0x8, addend: 0x0, symName: __ZNSt3__117__compressed_pairINS_12basic_stringIcNS_11char_traitsIcEENS_9allocatorIcEEE5__repES5_E5firstB8ue170006Ev, symObjAddr: 0x11E9C, symBinAddr: 0x100014FE8, symSize: 0xCC }
  - { offsetInCU: 0x1952D, offset: 0x1952D, size: 0x8, addend: 0x0, symName: __ZNSt3__112basic_stringIcNS_11char_traitsIcEENS_9allocatorIcEEE19__get_short_pointerB8ue170006Ev, symObjAddr: 0x11CE0, symBinAddr: 0x100014E2C, symSize: 0x58 }
  - { offsetInCU: 0x19562, offset: 0x19562, size: 0x8, addend: 0x0, symName: __ZNSt3__112basic_stringIcNS_11char_traitsIcEENS_9allocatorIcEEE15__set_long_sizeB8ue170006Em, symObjAddr: 0x11D38, symBinAddr: 0x100014E84, symSize: 0x90 }
  - { offsetInCU: 0x195D8, offset: 0x195D8, size: 0x8, addend: 0x0, symName: __ZNKSt3__112basic_stringIcNS_11char_traitsIcEENS_9allocatorIcEEE9__is_longB8ue170006Ev, symObjAddr: 0x11FC4, symBinAddr: 0x100015110, symSize: 0x9C }
  - { offsetInCU: 0x1960C, offset: 0x1960C, size: 0x8, addend: 0x0, symName: __ZNSt3__112basic_stringIcNS_11char_traitsIcEENS_9allocatorIcEEE18__get_long_pointerB8ue170006Ev, symObjAddr: 0x12060, symBinAddr: 0x1000151AC, symSize: 0x88 }
  - { offsetInCU: 0x19640, offset: 0x19640, size: 0x8, addend: 0x0, symName: __ZNKSt3__117__compressed_pairINS_12basic_stringIcNS_11char_traitsIcEENS_9allocatorIcEEE5__repES5_E5firstB8ue170006Ev, symObjAddr: 0x120E8, symBinAddr: 0x100015234, symSize: 0xCC }
  - { offsetInCU: 0x196C8, offset: 0x196C8, size: 0x8, addend: 0x0, symName: __ZNKSt3__112basic_stringIcNS_11char_traitsIcEENS_9allocatorIcEEE15__get_long_sizeB8ue170006Ev, symObjAddr: 0x12CA0, symBinAddr: 0x100015DEC, symSize: 0x8C }
  - { offsetInCU: 0x196FC, offset: 0x196FC, size: 0x8, addend: 0x0, symName: __ZNKSt3__112basic_stringIcNS_11char_traitsIcEENS_9allocatorIcEEE16__get_short_sizeB8ue170006Ev, symObjAddr: 0x12D2C, symBinAddr: 0x100015E78, symSize: 0x9C }
  - { offsetInCU: 0x19730, offset: 0x19730, size: 0x8, addend: 0x0, symName: __ZNKSt3__112basic_stringIcNS_11char_traitsIcEENS_9allocatorIcEEE18__get_long_pointerB8ue170006Ev, symObjAddr: 0x12BC0, symBinAddr: 0x100015D0C, symSize: 0x88 }
  - { offsetInCU: 0x19764, offset: 0x19764, size: 0x8, addend: 0x0, symName: __ZNKSt3__112basic_stringIcNS_11char_traitsIcEENS_9allocatorIcEEE19__get_short_pointerB8ue170006Ev, symObjAddr: 0x12C48, symBinAddr: 0x100015D94, symSize: 0x58 }
  - { offsetInCU: 0x1985B, offset: 0x1985B, size: 0x8, addend: 0x0, symName: __ZNSt3__117__compressed_pairIPNS_12basic_stringIcNS_11char_traitsIcEENS_9allocatorIcEEEENS4_IS6_EEEC2B8ue170006IDnNS_18__default_init_tagEEEOT_OT0_, symObjAddr: 0x13608, symBinAddr: 0x100016754, symSize: 0xB0 }
  - { offsetInCU: 0x198DA, offset: 0x198DA, size: 0x8, addend: 0x0, symName: __ZNSt3__16vectorINS_12basic_stringIcNS_11char_traitsIcEENS_9allocatorIcEEEENS4_IS6_EEE11__vallocateB8ue170006Em, symObjAddr: 0x13100, symBinAddr: 0x10001624C, symSize: 0x1BC }
  - { offsetInCU: 0x199C5, offset: 0x199C5, size: 0x8, addend: 0x0, symName: __ZNSt3__16vectorINS_12basic_stringIcNS_11char_traitsIcEENS_9allocatorIcEEEENS4_IS6_EEE18__construct_at_endEm, symObjAddr: 0x132BC, symBinAddr: 0x100016408, symSize: 0x304 }
  - { offsetInCU: 0x19B2B, offset: 0x19B2B, size: 0x8, addend: 0x0, symName: __ZNSt3__128__exception_guard_exceptionsINS_6vectorINS_12basic_stringIcNS_11char_traitsIcEENS_9allocatorIcEEEENS5_IS7_EEE16__destroy_vectorEED2B8ue170006Ev, symObjAddr: 0x14BAC, symBinAddr: 0x100017CF8, symSize: 0xE4 }
  - { offsetInCU: 0x19B6A, offset: 0x19B6A, size: 0x8, addend: 0x0, symName: __ZNSt3__128__exception_guard_exceptionsINS_6vectorINS_12basic_stringIcNS_11char_traitsIcEENS_9allocatorIcEEEENS5_IS7_EEE16__destroy_vectorEED1B8ue170006Ev, symObjAddr: 0x135C0, symBinAddr: 0x10001670C, symSize: 0x48 }
  - { offsetInCU: 0x19BCE, offset: 0x19BCE, size: 0x8, addend: 0x0, symName: __ZNKSt3__16vectorINS_12basic_stringIcNS_11char_traitsIcEENS_9allocatorIcEEEENS4_IS6_EEE7__allocB8ue170006Ev, symObjAddr: 0x13AE4, symBinAddr: 0x100016C30, symSize: 0x70 }
  - { offsetInCU: 0x19C03, offset: 0x19C03, size: 0x8, addend: 0x0, symName: __ZNSt3__16vectorINS_12basic_stringIcNS_11char_traitsIcEENS_9allocatorIcEEEENS4_IS6_EEE7__allocB8ue170006Ev, symObjAddr: 0x137CC, symBinAddr: 0x100016918, symSize: 0x70 }
  - { offsetInCU: 0x19C33, offset: 0x19C33, size: 0x8, addend: 0x0, symName: __ZNSt3__117__compressed_pairIPNS_12basic_stringIcNS_11char_traitsIcEENS_9allocatorIcEEEENS4_IS6_EEE5firstB8ue170006Ev, symObjAddr: 0x13CFC, symBinAddr: 0x100016E48, symSize: 0xCC }
  - { offsetInCU: 0x19C77, offset: 0x19C77, size: 0x8, addend: 0x0, symName: __ZNKSt3__16vectorINS_12basic_stringIcNS_11char_traitsIcEENS_9allocatorIcEEEENS4_IS6_EEE14__annotate_newB8ue170006Em, symObjAddr: 0x1383C, symBinAddr: 0x100016988, symSize: 0x2A8 }
  - { offsetInCU: 0x19D6D, offset: 0x19D6D, size: 0x8, addend: 0x0, symName: __ZNKSt3__16vectorINS_12basic_stringIcNS_11char_traitsIcEENS_9allocatorIcEEEENS4_IS6_EEE20__throw_length_errorB8ue170006Ev, symObjAddr: 0x13734, symBinAddr: 0x100016880, symSize: 0x44 }
  - { offsetInCU: 0x19EA3, offset: 0x19EA3, size: 0x8, addend: 0x0, symName: __ZNSt3__16vectorINS_12basic_stringIcNS_11char_traitsIcEENS_9allocatorIcEEEENS4_IS6_EEE21_ConstructTransactionC2B8ue170006ERS8_m, symObjAddr: 0x13F9C, symBinAddr: 0x1000170E8, symSize: 0x1A4 }
  - { offsetInCU: 0x19EFB, offset: 0x19EFB, size: 0x8, addend: 0x0, symName: __ZNSt3__117__compressed_pairIPNS_12basic_stringIcNS_11char_traitsIcEENS_9allocatorIcEEEENS4_IS6_EEE6secondB8ue170006Ev, symObjAddr: 0x13C28, symBinAddr: 0x100016D74, symSize: 0xD4 }
  - { offsetInCU: 0x19F3E, offset: 0x19F3E, size: 0x8, addend: 0x0, symName: __ZNSt3__112basic_stringIcNS_11char_traitsIcEENS_9allocatorIcEEEC2B8ue170006Ev, symObjAddr: 0x144E4, symBinAddr: 0x100017630, symSize: 0x224 }
  - { offsetInCU: 0x19FAE, offset: 0x19FAE, size: 0x8, addend: 0x0, symName: __ZNSt3__16vectorINS_12basic_stringIcNS_11char_traitsIcEENS_9allocatorIcEEEENS4_IS6_EEE21_ConstructTransactionD2B8ue170006Ev, symObjAddr: 0x14708, symBinAddr: 0x100017854, symSize: 0x220 }
  - { offsetInCU: 0x1A015, offset: 0x1A015, size: 0x8, addend: 0x0, symName: __ZNSt3__122__compressed_pair_elemINS_9allocatorINS_12basic_stringIcNS_11char_traitsIcEENS1_IcEEEEEELi1ELb1EEC2B8ue170006ENS_18__default_init_tagE, symObjAddr: 0x136B8, symBinAddr: 0x100016804, symSize: 0x7C }
  - { offsetInCU: 0x1A13B, offset: 0x1A13B, size: 0x8, addend: 0x0, symName: __ZNKSt3__16vectorINS_12basic_stringIcNS_11char_traitsIcEENS_9allocatorIcEEEENS4_IS6_EEE8capacityB8ue170006Ev, symObjAddr: 0x13DC8, symBinAddr: 0x100016F14, symSize: 0x98 }
  - { offsetInCU: 0x1A176, offset: 0x1A176, size: 0x8, addend: 0x0, symName: __ZNKSt3__117__compressed_pairIPNS_12basic_stringIcNS_11char_traitsIcEENS_9allocatorIcEEEENS4_IS6_EEE6secondB8ue170006Ev, symObjAddr: 0x13B54, symBinAddr: 0x100016CA0, symSize: 0xD4 }
  - { offsetInCU: 0x1A201, offset: 0x1A201, size: 0x8, addend: 0x0, symName: __ZNKSt3__16vectorINS_12basic_stringIcNS_11char_traitsIcEENS_9allocatorIcEEEENS4_IS6_EEE9__end_capB8ue170006Ev, symObjAddr: 0x13E60, symBinAddr: 0x100016FAC, symSize: 0x70 }
  - { offsetInCU: 0x1A236, offset: 0x1A236, size: 0x8, addend: 0x0, symName: __ZNKSt3__117__compressed_pairIPNS_12basic_stringIcNS_11char_traitsIcEENS_9allocatorIcEEEENS4_IS6_EEE5firstB8ue170006Ev, symObjAddr: 0x13ED0, symBinAddr: 0x10001701C, symSize: 0xCC }
  - { offsetInCU: 0x1A296, offset: 0x1A296, size: 0x8, addend: 0x0, symName: __ZNKSt3__16vectorINS_12basic_stringIcNS_11char_traitsIcEENS_9allocatorIcEEEENS4_IS6_EEE19__annotate_increaseB8ue170006Em, symObjAddr: 0x14140, symBinAddr: 0x10001728C, symSize: 0x30C }
  - { offsetInCU: 0x1A3A0, offset: 0x1A3A0, size: 0x8, addend: 0x0, symName: __ZNKSt3__16vectorINS_12basic_stringIcNS_11char_traitsIcEENS_9allocatorIcEEEENS4_IS6_EEE4sizeB8ue170006Ev, symObjAddr: 0x1444C, symBinAddr: 0x100017598, symSize: 0x98 }
  - { offsetInCU: 0x1A3DD, offset: 0x1A3DD, size: 0x8, addend: 0x0, symName: __ZNKSt3__16vectorINS_12basic_stringIcNS_11char_traitsIcEENS_9allocatorIcEEEENS4_IS6_EEE17__annotate_shrinkB8ue170006Em, symObjAddr: 0x14928, symBinAddr: 0x100017A74, symSize: 0x284 }
  - { offsetInCU: 0x1A541, offset: 0x1A541, size: 0x8, addend: 0x0, symName: __ZNSt3__16vectorINS_12basic_stringIcNS_11char_traitsIcEENS_9allocatorIcEEEENS4_IS6_EEE22__base_destruct_at_endB8ue170006EPS6_, symObjAddr: 0x15168, symBinAddr: 0x1000182B4, symSize: 0x130 }
  - { offsetInCU: 0x1A5E0, offset: 0x1A5E0, size: 0x8, addend: 0x0, symName: __ZNKSt3__16vectorINS_12basic_stringIcNS_11char_traitsIcEENS_9allocatorIcEEEENS4_IS6_EEE17__annotate_deleteB8ue170006Ev, symObjAddr: 0x14ED0, symBinAddr: 0x10001801C, symSize: 0x298 }
  - { offsetInCU: 0x1A837, offset: 0x1A837, size: 0x8, addend: 0x0, symName: __ZNSt3__117__compressed_pairIPiNS_9allocatorIiEEEC2B8ue170006IDnNS_18__default_init_tagEEEOT_OT0_, symObjAddr: 0x1689C, symBinAddr: 0x1000199E8, symSize: 0xB0 }
  - { offsetInCU: 0x1A8B6, offset: 0x1A8B6, size: 0x8, addend: 0x0, symName: __ZNSt3__16vectorIiNS_9allocatorIiEEE11__vallocateB8ue170006Em, symObjAddr: 0x16364, symBinAddr: 0x1000194B0, symSize: 0x1A0 }
  - { offsetInCU: 0x1A9A1, offset: 0x1A9A1, size: 0x8, addend: 0x0, symName: __ZNSt3__16vectorIiNS_9allocatorIiEEE18__construct_at_endEmRKi, symObjAddr: 0x16504, symBinAddr: 0x100019650, symSize: 0x350 }
  - { offsetInCU: 0x1AB05, offset: 0x1AB05, size: 0x8, addend: 0x0, symName: __ZNSt3__128__exception_guard_exceptionsINS_6vectorIiNS_9allocatorIiEEE16__destroy_vectorEED2B8ue170006Ev, symObjAddr: 0x17B54, symBinAddr: 0x10001ACA0, symSize: 0xE4 }
  - { offsetInCU: 0x1AB44, offset: 0x1AB44, size: 0x8, addend: 0x0, symName: __ZNSt3__128__exception_guard_exceptionsINS_6vectorIiNS_9allocatorIiEEE16__destroy_vectorEED1B8ue170006Ev, symObjAddr: 0x16854, symBinAddr: 0x1000199A0, symSize: 0x48 }
  - { offsetInCU: 0x1ABA2, offset: 0x1ABA2, size: 0x8, addend: 0x0, symName: __ZNKSt3__16vectorIiNS_9allocatorIiEEE7__allocB8ue170006Ev, symObjAddr: 0x16D40, symBinAddr: 0x100019E8C, symSize: 0x70 }
  - { offsetInCU: 0x1ABD2, offset: 0x1ABD2, size: 0x8, addend: 0x0, symName: __ZNSt3__16vectorIiNS_9allocatorIiEEE7__allocB8ue170006Ev, symObjAddr: 0x16A50, symBinAddr: 0x100019B9C, symSize: 0x70 }
  - { offsetInCU: 0x1AC02, offset: 0x1AC02, size: 0x8, addend: 0x0, symName: __ZNSt3__117__compressed_pairIPiNS_9allocatorIiEEE5firstB8ue170006Ev, symObjAddr: 0x16F58, symBinAddr: 0x10001A0A4, symSize: 0xCC }
  - { offsetInCU: 0x1AC46, offset: 0x1AC46, size: 0x8, addend: 0x0, symName: __ZNKSt3__16vectorIiNS_9allocatorIiEEE14__annotate_newB8ue170006Em, symObjAddr: 0x16AC0, symBinAddr: 0x100019C0C, symSize: 0x280 }
  - { offsetInCU: 0x1AD3C, offset: 0x1AD3C, size: 0x8, addend: 0x0, symName: __ZNKSt3__16vectorIiNS_9allocatorIiEEE20__throw_length_errorB8ue170006Ev, symObjAddr: 0x169C8, symBinAddr: 0x100019B14, symSize: 0x44 }
  - { offsetInCU: 0x1AE7B, offset: 0x1AE7B, size: 0x8, addend: 0x0, symName: __ZNSt3__16vectorIiNS_9allocatorIiEEE21_ConstructTransactionC2B8ue170006ERS3_m, symObjAddr: 0x171EC, symBinAddr: 0x10001A338, symSize: 0x194 }
  - { offsetInCU: 0x1AED3, offset: 0x1AED3, size: 0x8, addend: 0x0, symName: __ZNSt3__117__compressed_pairIPiNS_9allocatorIiEEE6secondB8ue170006Ev, symObjAddr: 0x16E84, symBinAddr: 0x100019FD0, symSize: 0xD4 }
  - { offsetInCU: 0x1AF16, offset: 0x1AF16, size: 0x8, addend: 0x0, symName: __ZNSt3__16vectorIiNS_9allocatorIiEEE21_ConstructTransactionD2B8ue170006Ev, symObjAddr: 0x176E4, symBinAddr: 0x10001A830, symSize: 0x214 }
  - { offsetInCU: 0x1AF7D, offset: 0x1AF7D, size: 0x8, addend: 0x0, symName: __ZNSt3__122__compressed_pair_elemINS_9allocatorIiEELi1ELb1EEC2B8ue170006ENS_18__default_init_tagE, symObjAddr: 0x1694C, symBinAddr: 0x100019A98, symSize: 0x7C }
  - { offsetInCU: 0x1B0A3, offset: 0x1B0A3, size: 0x8, addend: 0x0, symName: __ZNKSt3__16vectorIiNS_9allocatorIiEEE8capacityB8ue170006Ev, symObjAddr: 0x17024, symBinAddr: 0x10001A170, symSize: 0x8C }
  - { offsetInCU: 0x1B0DE, offset: 0x1B0DE, size: 0x8, addend: 0x0, symName: __ZNKSt3__117__compressed_pairIPiNS_9allocatorIiEEE6secondB8ue170006Ev, symObjAddr: 0x16DB0, symBinAddr: 0x100019EFC, symSize: 0xD4 }
  - { offsetInCU: 0x1B169, offset: 0x1B169, size: 0x8, addend: 0x0, symName: __ZNKSt3__16vectorIiNS_9allocatorIiEEE9__end_capB8ue170006Ev, symObjAddr: 0x170B0, symBinAddr: 0x10001A1FC, symSize: 0x70 }
  - { offsetInCU: 0x1B19E, offset: 0x1B19E, size: 0x8, addend: 0x0, symName: __ZNKSt3__117__compressed_pairIPiNS_9allocatorIiEEE5firstB8ue170006Ev, symObjAddr: 0x17120, symBinAddr: 0x10001A26C, symSize: 0xCC }
  - { offsetInCU: 0x1B1FE, offset: 0x1B1FE, size: 0x8, addend: 0x0, symName: __ZNKSt3__16vectorIiNS_9allocatorIiEEE19__annotate_increaseB8ue170006Em, symObjAddr: 0x17380, symBinAddr: 0x10001A4CC, symSize: 0x2D8 }
  - { offsetInCU: 0x1B308, offset: 0x1B308, size: 0x8, addend: 0x0, symName: __ZNKSt3__16vectorIiNS_9allocatorIiEEE4sizeB8ue170006Ev, symObjAddr: 0x17658, symBinAddr: 0x10001A7A4, symSize: 0x8C }
  - { offsetInCU: 0x1B32F, offset: 0x1B32F, size: 0x8, addend: 0x0, symName: __ZNKSt3__16vectorIiNS_9allocatorIiEEE17__annotate_shrinkB8ue170006Em, symObjAddr: 0x178F8, symBinAddr: 0x10001AA44, symSize: 0x25C }
  - { offsetInCU: 0x1B493, offset: 0x1B493, size: 0x8, addend: 0x0, symName: __ZNSt3__16vectorIiNS_9allocatorIiEEE22__base_destruct_at_endB8ue170006EPi, symObjAddr: 0x180E8, symBinAddr: 0x10001B234, symSize: 0xE8 }
  - { offsetInCU: 0x1B4EE, offset: 0x1B4EE, size: 0x8, addend: 0x0, symName: __ZNKSt3__16vectorIiNS_9allocatorIiEEE17__annotate_deleteB8ue170006Ev, symObjAddr: 0x17E78, symBinAddr: 0x10001AFC4, symSize: 0x270 }
  - { offsetInCU: 0x1B6AA, offset: 0x1B6AA, size: 0x8, addend: 0x0, symName: __ZNSt3__117__compressed_pairIPNS_6vectorIiNS_9allocatorIiEEEENS2_IS4_EEEC2B8ue170006IDnNS_18__default_init_tagEEEOT_OT0_, symObjAddr: 0x18A58, symBinAddr: 0x10001BBA4, symSize: 0xB0 }
  - { offsetInCU: 0x1B729, offset: 0x1B729, size: 0x8, addend: 0x0, symName: __ZNSt3__16vectorINS0_IiNS_9allocatorIiEEEENS1_IS3_EEE11__vallocateB8ue170006Em, symObjAddr: 0x18510, symBinAddr: 0x10001B65C, symSize: 0x1BC }
  - { offsetInCU: 0x1B814, offset: 0x1B814, size: 0x8, addend: 0x0, symName: __ZNSt3__16vectorINS0_IiNS_9allocatorIiEEEENS1_IS3_EEE18__construct_at_endEmRKS3_, symObjAddr: 0x186CC, symBinAddr: 0x10001B818, symSize: 0x344 }
  - { offsetInCU: 0x1B969, offset: 0x1B969, size: 0x8, addend: 0x0, symName: __ZNSt3__128__exception_guard_exceptionsINS_6vectorINS1_IiNS_9allocatorIiEEEENS2_IS4_EEE16__destroy_vectorEED2B8ue170006Ev, symObjAddr: 0x1A708, symBinAddr: 0x10001D854, symSize: 0xE4 }
  - { offsetInCU: 0x1B9A8, offset: 0x1B9A8, size: 0x8, addend: 0x0, symName: __ZNSt3__128__exception_guard_exceptionsINS_6vectorINS1_IiNS_9allocatorIiEEEENS2_IS4_EEE16__destroy_vectorEED1B8ue170006Ev, symObjAddr: 0x18A10, symBinAddr: 0x10001BB5C, symSize: 0x48 }
  - { offsetInCU: 0x1BA0C, offset: 0x1BA0C, size: 0x8, addend: 0x0, symName: __ZNKSt3__16vectorINS0_IiNS_9allocatorIiEEEENS1_IS3_EEE7__allocB8ue170006Ev, symObjAddr: 0x18F34, symBinAddr: 0x10001C080, symSize: 0x70 }
  - { offsetInCU: 0x1BA41, offset: 0x1BA41, size: 0x8, addend: 0x0, symName: __ZNSt3__16vectorINS0_IiNS_9allocatorIiEEEENS1_IS3_EEE7__allocB8ue170006Ev, symObjAddr: 0x18C1C, symBinAddr: 0x10001BD68, symSize: 0x70 }
  - { offsetInCU: 0x1BA71, offset: 0x1BA71, size: 0x8, addend: 0x0, symName: __ZNSt3__117__compressed_pairIPNS_6vectorIiNS_9allocatorIiEEEENS2_IS4_EEE5firstB8ue170006Ev, symObjAddr: 0x1914C, symBinAddr: 0x10001C298, symSize: 0xCC }
  - { offsetInCU: 0x1BAB5, offset: 0x1BAB5, size: 0x8, addend: 0x0, symName: __ZNKSt3__16vectorINS0_IiNS_9allocatorIiEEEENS1_IS3_EEE14__annotate_newB8ue170006Em, symObjAddr: 0x18C8C, symBinAddr: 0x10001BDD8, symSize: 0x2A8 }
  - { offsetInCU: 0x1BBAB, offset: 0x1BBAB, size: 0x8, addend: 0x0, symName: __ZNKSt3__16vectorINS0_IiNS_9allocatorIiEEEENS1_IS3_EEE20__throw_length_errorB8ue170006Ev, symObjAddr: 0x18B84, symBinAddr: 0x10001BCD0, symSize: 0x44 }
  - { offsetInCU: 0x1BC63, offset: 0x1BC63, size: 0x8, addend: 0x0, symName: __ZNSt3__16vectorINS0_IiNS_9allocatorIiEEEENS1_IS3_EEE21_ConstructTransactionC2B8ue170006ERS5_m, symObjAddr: 0x19488, symBinAddr: 0x10001C5D4, symSize: 0x1A4 }
  - { offsetInCU: 0x1BCBB, offset: 0x1BCBB, size: 0x8, addend: 0x0, symName: __ZNSt3__117__compressed_pairIPNS_6vectorIiNS_9allocatorIiEEEENS2_IS4_EEE6secondB8ue170006Ev, symObjAddr: 0x19078, symBinAddr: 0x10001C1C4, symSize: 0xD4 }
  - { offsetInCU: 0x1BCFE, offset: 0x1BCFE, size: 0x8, addend: 0x0, symName: __ZNSt3__116allocator_traitsINS_9allocatorINS_6vectorIiNS1_IiEEEEEEE9constructB8ue170006IS4_JRKS4_EvEEvRS5_PT_DpOT0_, symObjAddr: 0x193EC, symBinAddr: 0x10001C538, symSize: 0x54 }
  - { offsetInCU: 0x1BDA4, offset: 0x1BDA4, size: 0x8, addend: 0x0, symName: __ZNSt3__16vectorINS0_IiNS_9allocatorIiEEEENS1_IS3_EEE21_ConstructTransactionD2B8ue170006Ev, symObjAddr: 0x1A264, symBinAddr: 0x10001D3B0, symSize: 0x220 }
  - { offsetInCU: 0x1BDDC, offset: 0x1BDDC, size: 0x8, addend: 0x0, symName: __ZNSt3__16vectorINS0_IiNS_9allocatorIiEEEENS1_IS3_EEE21_ConstructTransactionD1B8ue170006Ev, symObjAddr: 0x19440, symBinAddr: 0x10001C58C, symSize: 0x48 }
  - { offsetInCU: 0x1BE3B, offset: 0x1BE3B, size: 0x8, addend: 0x0, symName: __ZNSt3__122__compressed_pair_elemINS_9allocatorINS_6vectorIiNS1_IiEEEEEELi1ELb1EEC2B8ue170006ENS_18__default_init_tagE, symObjAddr: 0x18B08, symBinAddr: 0x10001BC54, symSize: 0x7C }
  - { offsetInCU: 0x1BF67, offset: 0x1BF67, size: 0x8, addend: 0x0, symName: __ZNKSt3__16vectorINS0_IiNS_9allocatorIiEEEENS1_IS3_EEE8capacityB8ue170006Ev, symObjAddr: 0x19218, symBinAddr: 0x10001C364, symSize: 0x98 }
  - { offsetInCU: 0x1BFA2, offset: 0x1BFA2, size: 0x8, addend: 0x0, symName: __ZNKSt3__117__compressed_pairIPNS_6vectorIiNS_9allocatorIiEEEENS2_IS4_EEE6secondB8ue170006Ev, symObjAddr: 0x18FA4, symBinAddr: 0x10001C0F0, symSize: 0xD4 }
  - { offsetInCU: 0x1C02D, offset: 0x1C02D, size: 0x8, addend: 0x0, symName: __ZNKSt3__16vectorINS0_IiNS_9allocatorIiEEEENS1_IS3_EEE9__end_capB8ue170006Ev, symObjAddr: 0x192B0, symBinAddr: 0x10001C3FC, symSize: 0x70 }
  - { offsetInCU: 0x1C062, offset: 0x1C062, size: 0x8, addend: 0x0, symName: __ZNKSt3__117__compressed_pairIPNS_6vectorIiNS_9allocatorIiEEEENS2_IS4_EEE5firstB8ue170006Ev, symObjAddr: 0x19320, symBinAddr: 0x10001C46C, symSize: 0xCC }
  - { offsetInCU: 0x1C12A, offset: 0x1C12A, size: 0x8, addend: 0x0, symName: __ZNSt3__16vectorIiNS_9allocatorIiEEEC2ERKS3_, symObjAddr: 0x199D0, symBinAddr: 0x10001CB1C, symSize: 0x240 }
  - { offsetInCU: 0x1C20A, offset: 0x1C20A, size: 0x8, addend: 0x0, symName: __ZNKSt3__16vectorINS0_IiNS_9allocatorIiEEEENS1_IS3_EEE19__annotate_increaseB8ue170006Em, symObjAddr: 0x1962C, symBinAddr: 0x10001C778, symSize: 0x30C }
  - { offsetInCU: 0x1C314, offset: 0x1C314, size: 0x8, addend: 0x0, symName: __ZNKSt3__16vectorINS0_IiNS_9allocatorIiEEEENS1_IS3_EEE4sizeB8ue170006Ev, symObjAddr: 0x19938, symBinAddr: 0x10001CA84, symSize: 0x98 }
  - { offsetInCU: 0x1C399, offset: 0x1C399, size: 0x8, addend: 0x0, symName: __ZNSt3__117__compressed_pairIPiNS_9allocatorIiEEEC2B8ue170006IDnS3_EEOT_OT0_, symObjAddr: 0x19EC4, symBinAddr: 0x10001D010, symSize: 0xB0 }
  - { offsetInCU: 0x1C40A, offset: 0x1C40A, size: 0x8, addend: 0x0, symName: __ZNSt3__16vectorIiNS_9allocatorIiEEE16__init_with_sizeB8ue170006IPiS5_EEvT_T0_m, symObjAddr: 0x19C10, symBinAddr: 0x10001CD5C, symSize: 0x2B4 }
  - { offsetInCU: 0x1C551, offset: 0x1C551, size: 0x8, addend: 0x0, symName: __ZNSt3__16vectorIiNS_9allocatorIiEEE18__construct_at_endIPiS5_EEvT_T0_m, symObjAddr: 0x19F74, symBinAddr: 0x10001D0C0, symSize: 0x2F0 }
  - { offsetInCU: 0x1C925, offset: 0x1C925, size: 0x8, addend: 0x0, symName: __ZNKSt3__16vectorINS0_IiNS_9allocatorIiEEEENS1_IS3_EEE17__annotate_shrinkB8ue170006Em, symObjAddr: 0x1A484, symBinAddr: 0x10001D5D0, symSize: 0x284 }
  - { offsetInCU: 0x1CA89, offset: 0x1CA89, size: 0x8, addend: 0x0, symName: __ZNSt3__16vectorINS0_IiNS_9allocatorIiEEEENS1_IS3_EEE22__base_destruct_at_endB8ue170006EPS3_, symObjAddr: 0x1ACC4, symBinAddr: 0x10001DE10, symSize: 0x100 }
  - { offsetInCU: 0x1CB1C, offset: 0x1CB1C, size: 0x8, addend: 0x0, symName: __ZNKSt3__16vectorINS0_IiNS_9allocatorIiEEEENS1_IS3_EEE17__annotate_deleteB8ue170006Ev, symObjAddr: 0x1AA2C, symBinAddr: 0x10001DB78, symSize: 0x298 }
  - { offsetInCU: 0x1CC40, offset: 0x1CC40, size: 0x8, addend: 0x0, symName: __ZNSt3__19allocatorINS_6vectorIiNS0_IiEEEEE7destroyB8ue170006EPS3_, symObjAddr: 0x1ADC4, symBinAddr: 0x10001DF10, symSize: 0x1D4 }
  - { offsetInCU: 0x1CCF6, offset: 0x1CCF6, size: 0x8, addend: 0x0, symName: __ZNSt3__122__compressed_pair_elemINS_9allocatorINS_4pairIciEEEELi1ELb1EEC2B8ue170006ENS_18__default_init_tagE, symObjAddr: 0x1B048, symBinAddr: 0x10001E194, symSize: 0x7C }
  - { offsetInCU: 0x1CE13, offset: 0x1CE13, size: 0x8, addend: 0x0, symName: __ZNSt3__16vectorINS_4pairIciEENS_9allocatorIS2_EEE22__base_destruct_at_endB8ue170006EPS2_, symObjAddr: 0x1B670, symBinAddr: 0x10001E7BC, symSize: 0xE8 }
  - { offsetInCU: 0x1CE6E, offset: 0x1CE6E, size: 0x8, addend: 0x0, symName: __ZNKSt3__16vectorINS_4pairIciEENS_9allocatorIS2_EEE17__annotate_deleteB8ue170006Ev, symObjAddr: 0x1B304, symBinAddr: 0x10001E450, symSize: 0x270 }
  - { offsetInCU: 0x1CF68, offset: 0x1CF68, size: 0x8, addend: 0x0, symName: __ZNSt3__16vectorINS_4pairIciEENS_9allocatorIS2_EEE7__allocB8ue170006Ev, symObjAddr: 0x1B574, symBinAddr: 0x10001E6C0, symSize: 0x70 }
  - { offsetInCU: 0x1CF98, offset: 0x1CF98, size: 0x8, addend: 0x0, symName: __ZNKSt3__16vectorINS_4pairIciEENS_9allocatorIS2_EEE8capacityB8ue170006Ev, symObjAddr: 0x1B5E4, symBinAddr: 0x10001E730, symSize: 0x8C }
  - { offsetInCU: 0x1D035, offset: 0x1D035, size: 0x8, addend: 0x0, symName: __ZNSt3__117__compressed_pairIPNS_4pairIciEENS_9allocatorIS2_EEE6secondB8ue170006Ev, symObjAddr: 0x1B758, symBinAddr: 0x10001E8A4, symSize: 0xD4 }
  - { offsetInCU: 0x1D078, offset: 0x1D078, size: 0x8, addend: 0x0, symName: __ZNKSt3__16vectorINS_4pairIciEENS_9allocatorIS2_EEE9__end_capB8ue170006Ev, symObjAddr: 0x1B82C, symBinAddr: 0x10001E978, symSize: 0x70 }
  - { offsetInCU: 0x1D0C3, offset: 0x1D0C3, size: 0x8, addend: 0x0, symName: __ZNKSt3__117__compressed_pairIPNS_4pairIciEENS_9allocatorIS2_EEE5firstB8ue170006Ev, symObjAddr: 0x1B89C, symBinAddr: 0x10001E9E8, symSize: 0xCC }
  - { offsetInCU: 0x1D123, offset: 0x1D123, size: 0x8, addend: 0x0, symName: __ZNSt3__117__compressed_pairIPNS_4pairIciEENS_9allocatorIS2_EEE5firstB8ue170006Ev, symObjAddr: 0x1C000, symBinAddr: 0x10001F14C, symSize: 0xCC }
  - { offsetInCU: 0x1D23D, offset: 0x1D23D, size: 0x8, addend: 0x0, symName: __ZNSt3__16vectorINS_4pairIciEENS_9allocatorIS2_EEE21_ConstructTransactionC2B8ue170006ERS5_m, symObjAddr: 0x1C0CC, symBinAddr: 0x10001F218, symSize: 0x194 }
  - { offsetInCU: 0x1D295, offset: 0x1D295, size: 0x8, addend: 0x0, symName: __ZNSt3__19allocatorINS_4pairIciEEE9constructB8ue170006IS2_JciEEEvPT_DpOT0_, symObjAddr: 0x1C538, symBinAddr: 0x10001F684, symSize: 0x150 }
  - { offsetInCU: 0x1D352, offset: 0x1D352, size: 0x8, addend: 0x0, symName: __ZNSt3__16vectorINS_4pairIciEENS_9allocatorIS2_EEE21_ConstructTransactionD2B8ue170006Ev, symObjAddr: 0x1C688, symBinAddr: 0x10001F7D4, symSize: 0x214 }
  - { offsetInCU: 0x1D3E9, offset: 0x1D3E9, size: 0x8, addend: 0x0, symName: __ZNKSt3__16vectorINS_4pairIciEENS_9allocatorIS2_EEE11__recommendB8ue170006Em, symObjAddr: 0x1CAF8, symBinAddr: 0x10001FC44, symSize: 0x9C }
  - { offsetInCU: 0x1D495, offset: 0x1D495, size: 0x8, addend: 0x0, symName: __ZNSt3__114__split_bufferINS_4pairIciEERNS_9allocatorIS2_EEEC2EmmS5_, symObjAddr: 0x1D04C, symBinAddr: 0x100020198, symSize: 0x35C }
  - { offsetInCU: 0x1D59C, offset: 0x1D59C, size: 0x8, addend: 0x0, symName: __ZNSt3__114__split_bufferINS_4pairIciEERNS_9allocatorIS2_EEED2Ev, symObjAddr: 0x1E84C, symBinAddr: 0x100021998, symSize: 0xF4 }
  - { offsetInCU: 0x1D6AB, offset: 0x1D6AB, size: 0x8, addend: 0x0, symName: __ZNSt3__114__split_bufferINS_4pairIciEERNS_9allocatorIS2_EEED1Ev, symObjAddr: 0x1CE7C, symBinAddr: 0x10001FFC8, symSize: 0x48 }
  - { offsetInCU: 0x1D6F1, offset: 0x1D6F1, size: 0x8, addend: 0x0, symName: __ZNKSt3__16vectorINS_4pairIciEENS_9allocatorIS2_EEE19__annotate_increaseB8ue170006Em, symObjAddr: 0x1C260, symBinAddr: 0x10001F3AC, symSize: 0x2D8 }
  - { offsetInCU: 0x1D88B, offset: 0x1D88B, size: 0x8, addend: 0x0, symName: __ZNKSt3__16vectorINS_4pairIciEENS_9allocatorIS2_EEE17__annotate_shrinkB8ue170006Em, symObjAddr: 0x1C89C, symBinAddr: 0x10001F9E8, symSize: 0x25C }
  - { offsetInCU: 0x1D999, offset: 0x1D999, size: 0x8, addend: 0x0, symName: __ZNKSt3__16vectorINS_4pairIciEENS_9allocatorIS2_EEE7__allocB8ue170006Ev, symObjAddr: 0x1CF08, symBinAddr: 0x100020054, symSize: 0x70 }
  - { offsetInCU: 0x1D9CE, offset: 0x1D9CE, size: 0x8, addend: 0x0, symName: __ZNKSt3__16vectorINS_4pairIciEENS_9allocatorIS2_EEE20__throw_length_errorB8ue170006Ev, symObjAddr: 0x1CEC4, symBinAddr: 0x100020010, symSize: 0x44 }
  - { offsetInCU: 0x1DA2E, offset: 0x1DA2E, size: 0x8, addend: 0x0, symName: __ZNSt3__117__compressed_pairIPNS_4pairIciEERNS_9allocatorIS2_EEE5firstB8ue170006Ev, symObjAddr: 0x1D658, symBinAddr: 0x1000207A4, symSize: 0xCC }
  - { offsetInCU: 0x1DA72, offset: 0x1DA72, size: 0x8, addend: 0x0, symName: __ZNKSt3__16vectorINS_4pairIciEENS_9allocatorIS2_EEE14__annotate_newB8ue170006Em, symObjAddr: 0x1DBE8, symBinAddr: 0x100020D34, symSize: 0x280 }
  - { offsetInCU: 0x1DB68, offset: 0x1DB68, size: 0x8, addend: 0x0, symName: __ZNKSt3__117__compressed_pairIPNS_4pairIciEENS_9allocatorIS2_EEE6secondB8ue170006Ev, symObjAddr: 0x1CF78, symBinAddr: 0x1000200C4, symSize: 0xD4 }
  - { offsetInCU: 0x1DC09, offset: 0x1DC09, size: 0x8, addend: 0x0, symName: __ZNSt3__117__compressed_pairIPNS_4pairIciEERNS_9allocatorIS2_EEEC2B8ue170006IDnS6_EEOT_OT0_, symObjAddr: 0x1D45C, symBinAddr: 0x1000205A8, symSize: 0xFC }
  - { offsetInCU: 0x1DC99, offset: 0x1DC99, size: 0x8, addend: 0x0, symName: __ZNSt3__114__split_bufferINS_4pairIciEERNS_9allocatorIS2_EEE7__allocB8ue170006Ev, symObjAddr: 0x1D3EC, symBinAddr: 0x100020538, symSize: 0x70 }
  - { offsetInCU: 0x1DCEA, offset: 0x1DCEA, size: 0x8, addend: 0x0, symName: __ZNSt3__117__compressed_pairIPNS_4pairIciEERNS_9allocatorIS2_EEE6secondB8ue170006Ev, symObjAddr: 0x1D558, symBinAddr: 0x1000206A4, symSize: 0x100 }
  - { offsetInCU: 0x1DED4, offset: 0x1DED4, size: 0x8, addend: 0x0, symName: __ZNKSt3__116reverse_iteratorIPNS_4pairIciEEEdeB8ue170006Ev, symObjAddr: 0x1DE68, symBinAddr: 0x100020FB4, symSize: 0xC0 }
  - { offsetInCU: 0x1DF0B, offset: 0x1DF0B, size: 0x8, addend: 0x0, symName: __ZNSt3__128__exception_guard_exceptionsINS_29_AllocatorDestroyRangeReverseINS_9allocatorINS_4pairIciEEEENS_16reverse_iteratorIPS4_EEEEED2B8ue170006Ev, symObjAddr: 0x1DF28, symBinAddr: 0x100021074, symSize: 0xF4 }
  - { offsetInCU: 0x1DF4A, offset: 0x1DF4A, size: 0x8, addend: 0x0, symName: __ZNKSt3__129_AllocatorDestroyRangeReverseINS_9allocatorINS_4pairIciEEEENS_16reverse_iteratorIPS3_EEEclB8ue170006Ev, symObjAddr: 0x1E01C, symBinAddr: 0x100021168, symSize: 0x334 }
  - { offsetInCU: 0x1E073, offset: 0x1E073, size: 0x8, addend: 0x0, symName: __ZNKSt3__116reverse_iteratorINS0_IPNS_4pairIciEEEEEdeB8ue170006Ev, symObjAddr: 0x1E65C, symBinAddr: 0x1000217A8, symSize: 0x1F0 }
  - { offsetInCU: 0x1E0D5, offset: 0x1E0D5, size: 0x8, addend: 0x0, symName: __ZNSt3__116reverse_iteratorINS0_IPNS_4pairIciEEEEEppB8ue170006Ev, symObjAddr: 0x1E4BC, symBinAddr: 0x100021608, symSize: 0x1A0 }
  - { offsetInCU: 0x1E13E, offset: 0x1E13E, size: 0x8, addend: 0x0, symName: __ZNSt3__114__split_bufferINS_4pairIciEERNS_9allocatorIS2_EEE5clearB8ue170006Ev, symObjAddr: 0x1E940, symBinAddr: 0x100021A8C, symSize: 0xAC }
  - { offsetInCU: 0x1E192, offset: 0x1E192, size: 0x8, addend: 0x0, symName: __ZNKSt3__114__split_bufferINS_4pairIciEERNS_9allocatorIS2_EEE8capacityB8ue170006Ev, symObjAddr: 0x1E9EC, symBinAddr: 0x100021B38, symSize: 0x8C }
  - { offsetInCU: 0x1E1EE, offset: 0x1E1EE, size: 0x8, addend: 0x0, symName: __ZNSt3__114__split_bufferINS_4pairIciEERNS_9allocatorIS2_EEE17__destruct_at_endB8ue170006EPS2_NS_17integral_constantIbLb0EEE, symObjAddr: 0x1EA78, symBinAddr: 0x100021BC4, symSize: 0x100 }
  - { offsetInCU: 0x1E242, offset: 0x1E242, size: 0x8, addend: 0x0, symName: __ZNKSt3__114__split_bufferINS_4pairIciEERNS_9allocatorIS2_EEE9__end_capB8ue170006Ev, symObjAddr: 0x1EB78, symBinAddr: 0x100021CC4, symSize: 0x70 }
  - { offsetInCU: 0x1E277, offset: 0x1E277, size: 0x8, addend: 0x0, symName: __ZNKSt3__117__compressed_pairIPNS_4pairIciEERNS_9allocatorIS2_EEE5firstB8ue170006Ev, symObjAddr: 0x1EBE8, symBinAddr: 0x100021D34, symSize: 0xCC }
...
