---
triple:          'arm64-apple-darwin'
binary-path:     F. Igor and Mountain
relocations:
  - { offsetInCU: 0x3B, offset: 0x3B, size: 0x8, addend: 0x0, symName: _.str, symObjAddr: 0x1CE00, symBinAddr: 0x10001F2A0, symSize: 0x0 }
  - { offsetInCU: 0x6B, offset: 0x6B, size: 0x8, addend: 0x0, symName: _.str.1, symObjAddr: 0x1CE20, symBinAddr: 0x10001F2C0, symSize: 0x0 }
  - { offsetInCU: 0x7C, offset: 0x7C, size: 0x8, addend: 0x0, symName: _.str.2, symObjAddr: 0x1CE40, symBinAddr: 0x10001F2E0, symSize: 0x0 }
  - { offsetInCU: 0x8D, offset: 0x8D, size: 0x8, addend: 0x0, symName: _.str.3, symObjAddr: 0x19C60, symBinAddr: 0x10001C0E0, symSize: 0x0 }
  - { offsetInCU: 0xAA, offset: 0xAA, size: 0x8, addend: 0x0, symName: _.str.4, symObjAddr: 0x1CE60, symBinAddr: 0x10001F300, symSize: 0x0 }
  - { offsetInCU: 0xBB, offset: 0xBB, size: 0x8, addend: 0x0, symName: _.str.6, symObjAddr: 0x1CE80, symBinAddr: 0x10001F320, symSize: 0x0 }
  - { offsetInCU: 0xD8, offset: 0xD8, size: 0x8, addend: 0x0, symName: _.str.7, symObjAddr: 0x1CEA0, symBinAddr: 0x10001F340, symSize: 0x0 }
  - { offsetInCU: 0xF6, offset: 0xF6, size: 0x8, addend: 0x0, symName: _.str.17, symObjAddr: 0x1CEC0, symBinAddr: 0x10001F360, symSize: 0x0 }
  - { offsetInCU: 0x114, offset: 0x114, size: 0x8, addend: 0x0, symName: _.str.29, symObjAddr: 0x1CEE0, symBinAddr: 0x10001F380, symSize: 0x0 }
  - { offsetInCU: 0x131, offset: 0x131, size: 0x8, addend: 0x0, symName: _.str.40, symObjAddr: 0x1CF00, symBinAddr: 0x10001F3A0, symSize: 0x0 }
  - { offsetInCU: 0x142, offset: 0x142, size: 0x8, addend: 0x0, symName: _.str.41, symObjAddr: 0x1CF20, symBinAddr: 0x10001F3C0, symSize: 0x0 }
  - { offsetInCU: 0x604A, offset: 0x604A, size: 0x8, addend: 0x0, symName: __ZNSt3__124__put_character_sequenceB8ue170006IcNS_11char_traitsIcEEEERNS_13basic_ostreamIT_T0_EES7_PKS4_m, symObjAddr: 0x57E4, symBinAddr: 0x10000791C, symSize: 0x910 }
  - { offsetInCU: 0xC8CE, offset: 0xC8CE, size: 0x8, addend: 0x0, symName: __ZNSt3__1lsB8ue170006IcNS_11char_traitsIcEENS_9allocatorIcEEEERNS_13basic_ostreamIT_T0_EES9_RKNS_12basic_stringIS6_S7_T1_EE, symObjAddr: 0xB8C, symBinAddr: 0x100002CC4, symSize: 0x48 }
  - { offsetInCU: 0xC988, offset: 0xC988, size: 0x8, addend: 0x0, symName: __ZNSt3__1neB8ue170006ERKNS_14__bit_iteratorINS_6vectorIbNS_9allocatorIbEEEELb0ELm0EEES7_, symObjAddr: 0x1104, symBinAddr: 0x10000323C, symSize: 0xC4 }
  - { offsetInCU: 0xCA08, offset: 0xCA08, size: 0x8, addend: 0x0, symName: __ZNSt3__1rsB8ue170006IcNS_11char_traitsIcEENS_9allocatorIcEEEERNS_13basic_istreamIT_T0_EES9_RNS_12basic_stringIS6_S7_T1_EE, symObjAddr: 0x1D64, symBinAddr: 0x100003E9C, symSize: 0xE9C }
  - { offsetInCU: 0xD1D5, offset: 0xD1D5, size: 0x8, addend: 0x0, symName: __ZNSt3__19use_facetB8ue170006INS_5ctypeIcEEEERKT_RKNS_6localeE, symObjAddr: 0x7D88, symBinAddr: 0x100009EC0, symSize: 0x100 }
  - { offsetInCU: 0xD644, offset: 0xD644, size: 0x8, addend: 0x0, symName: __ZNSt3__116__pad_and_outputB8ue170006IcNS_11char_traitsIcEEEENS_19ostreambuf_iteratorIT_T0_EES6_PKS4_S8_S8_RNS_8ios_baseES4_, symObjAddr: 0x60F4, symBinAddr: 0x10000822C, symSize: 0x800 }
  - { offsetInCU: 0xD8A3, offset: 0xD8A3, size: 0x8, addend: 0x0, symName: __ZNSt3__120__throw_length_errorB8ue170006EPKc, symObjAddr: 0x7238, symBinAddr: 0x100009370, symSize: 0x78 }
  - { offsetInCU: 0xD90D, offset: 0xD90D, size: 0x8, addend: 0x0, symName: __ZNSt3__119__allocate_at_leastB8ue170006INS_9allocatorINS_12basic_stringIcNS_11char_traitsIcEENS1_IcEEEEEEEENS_19__allocation_resultINS_16allocator_traitsIT_E7pointerEEERSA_m, symObjAddr: 0x8DFC, symBinAddr: 0x10000AF34, symSize: 0x54 }
  - { offsetInCU: 0xDDE5, offset: 0xDDE5, size: 0x8, addend: 0x0, symName: __ZNSt3__119__allocate_at_leastB8ue170006INS_9allocatorIiEEEENS_19__allocation_resultINS_16allocator_traitsIT_E7pointerEEERS5_m, symObjAddr: 0xD8DC, symBinAddr: 0x10000FA14, symSize: 0x44 }
  - { offsetInCU: 0xE25C, offset: 0xE25C, size: 0x8, addend: 0x0, symName: __ZNSt3__119__allocate_at_leastB8ue170006INS_9allocatorI7mod_intILx998244353EEEEEENS_19__allocation_resultINS_16allocator_traitsIT_E7pointerEEERS7_m, symObjAddr: 0x10F78, symBinAddr: 0x1000130B0, symSize: 0x44 }
  - { offsetInCU: 0xE3B8, offset: 0xE3B8, size: 0x8, addend: 0x0, symName: __ZNSt3__119__allocate_at_leastB8ue170006INS_9allocatorI3BITI7mod_intILx998244353EEEEEEENS_19__allocation_resultINS_16allocator_traitsIT_E7pointerEEERS9_m, symObjAddr: 0x12AA8, symBinAddr: 0x100014BE0, symSize: 0x44 }
  - { offsetInCU: 0xE992, offset: 0xE992, size: 0x8, addend: 0x0, symName: __ZNSt3__119__allocate_at_leastB8ue170006INS_9allocatorINS_6vectorI3BITI7mod_intILx998244353EEENS1_IS6_EEEEEEEENS_19__allocation_resultINS_16allocator_traitsIT_E7pointerEEERSC_m, symObjAddr: 0x15B1C, symBinAddr: 0x100017C54, symSize: 0x54 }
  - { offsetInCU: 0xEBE8, offset: 0xEBE8, size: 0x8, addend: 0x0, symName: __ZNSt3__135__uninitialized_allocator_copy_implB8ue170006INS_9allocatorI3BITI7mod_intILx998244353EEEEEPS5_S7_S7_EET2_RT_T0_T1_S8_, symObjAddr: 0x171C0, symBinAddr: 0x1000192F8, symSize: 0x40C }
  - { offsetInCU: 0xED75, offset: 0xED75, size: 0x8, addend: 0x0, symName: __ZNSt3__119__allocator_destroyB8ue170006INS_9allocatorI3BITI7mod_intILx998244353EEEEENS_16reverse_iteratorIPS5_EES9_EEvRT_T0_T1_, symObjAddr: 0x17924, symBinAddr: 0x100019A5C, symSize: 0x1F8 }
  - { offsetInCU: 0xF52C, offset: 0xF52C, size: 0x8, addend: 0x0, symName: __ZSt28__throw_bad_array_new_lengthB8ue170006v, symObjAddr: 0x7428, symBinAddr: 0x100009560, symSize: 0x5C }
  - { offsetInCU: 0x10251, offset: 0x10251, size: 0x8, addend: 0x0, symName: __ZNSt3__16vectorIiNS_9allocatorIiEEE26__swap_out_circular_bufferERNS_14__split_bufferIiRS2_EE, symObjAddr: 0xC5C8, symBinAddr: 0x10000E700, symSize: 0x440 }
  - { offsetInCU: 0x10435, offset: 0x10435, size: 0x8, addend: 0x0, symName: __ZNSt3__16vectorI7mod_intILx998244353EENS_9allocatorIS2_EEE26__swap_out_circular_bufferERNS_14__split_bufferIS2_RS4_EE, symObjAddr: 0xFC64, symBinAddr: 0x100011D9C, symSize: 0x440 }
  - { offsetInCU: 0x12F09, offset: 0x12F09, size: 0x8, addend: 0x0, symName: __ZN14__DEBUG_UTIL__5printEPKc, symObjAddr: 0x0, symBinAddr: 0x100002138, symSize: 0x30 }
  - { offsetInCU: 0x12F95, offset: 0x12F95, size: 0x8, addend: 0x0, symName: __ZN14__DEBUG_UTIL__5printEb, symObjAddr: 0x30, symBinAddr: 0x100002168, symSize: 0x28 }
  - { offsetInCU: 0x12FF0, offset: 0x12FF0, size: 0x8, addend: 0x0, symName: __ZN14__DEBUG_UTIL__5printEc, symObjAddr: 0x58, symBinAddr: 0x100002190, symSize: 0x21C }
  - { offsetInCU: 0x130C7, offset: 0x130C7, size: 0x8, addend: 0x0, symName: __ZN14__DEBUG_UTIL__5printEs, symObjAddr: 0x274, symBinAddr: 0x1000023AC, symSize: 0xA8 }
  - { offsetInCU: 0x130F1, offset: 0x130F1, size: 0x8, addend: 0x0, symName: __ZN14__DEBUG_UTIL__5printEt, symObjAddr: 0x31C, symBinAddr: 0x100002454, symSize: 0xA8 }
  - { offsetInCU: 0x1311B, offset: 0x1311B, size: 0x8, addend: 0x0, symName: __ZN14__DEBUG_UTIL__5printEi, symObjAddr: 0x3C4, symBinAddr: 0x1000024FC, symSize: 0xA8 }
  - { offsetInCU: 0x13139, offset: 0x13139, size: 0x8, addend: 0x0, symName: __ZN14__DEBUG_UTIL__5printEj, symObjAddr: 0x46C, symBinAddr: 0x1000025A4, symSize: 0xA8 }
  - { offsetInCU: 0x13163, offset: 0x13163, size: 0x8, addend: 0x0, symName: __ZN14__DEBUG_UTIL__5printEl, symObjAddr: 0x514, symBinAddr: 0x10000264C, symSize: 0xA8 }
  - { offsetInCU: 0x1318D, offset: 0x1318D, size: 0x8, addend: 0x0, symName: __ZN14__DEBUG_UTIL__5printEm, symObjAddr: 0x5BC, symBinAddr: 0x1000026F4, symSize: 0xA8 }
  - { offsetInCU: 0x131B7, offset: 0x131B7, size: 0x8, addend: 0x0, symName: __ZN14__DEBUG_UTIL__5printEx, symObjAddr: 0x664, symBinAddr: 0x10000279C, symSize: 0xA8 }
  - { offsetInCU: 0x131E1, offset: 0x131E1, size: 0x8, addend: 0x0, symName: __ZN14__DEBUG_UTIL__5printEy, symObjAddr: 0x70C, symBinAddr: 0x100002844, symSize: 0xA8 }
  - { offsetInCU: 0x1320B, offset: 0x1320B, size: 0x8, addend: 0x0, symName: __ZN14__DEBUG_UTIL__5printEf, symObjAddr: 0x7B4, symBinAddr: 0x1000028EC, symSize: 0xA0 }
  - { offsetInCU: 0x13235, offset: 0x13235, size: 0x8, addend: 0x0, symName: __ZN14__DEBUG_UTIL__5printEd, symObjAddr: 0x854, symBinAddr: 0x10000298C, symSize: 0xA0 }
  - { offsetInCU: 0x1325F, offset: 0x1325F, size: 0x8, addend: 0x0, symName: __ZN14__DEBUG_UTIL__5printEe, symObjAddr: 0x8F4, symBinAddr: 0x100002A2C, symSize: 0xA0 }
  - { offsetInCU: 0x13289, offset: 0x13289, size: 0x8, addend: 0x0, symName: __ZN14__DEBUG_UTIL__5printENSt3__112basic_stringIcNS0_11char_traitsIcEENS0_9allocatorIcEEEE, symObjAddr: 0x994, symBinAddr: 0x100002ACC, symSize: 0x1F8 }
  - { offsetInCU: 0x13334, offset: 0x13334, size: 0x8, addend: 0x0, symName: __ZN14__DEBUG_UTIL__5printENSt3__16vectorIbNS0_9allocatorIbEEEE, symObjAddr: 0xBD4, symBinAddr: 0x100002D0C, symSize: 0x4E4 }
  - { offsetInCU: 0x135A6, offset: 0x135A6, size: 0x8, addend: 0x0, symName: __ZN14__DEBUG_UTIL__7printerEPKc, symObjAddr: 0x1518, symBinAddr: 0x100003650, symSize: 0x4 }
  - { offsetInCU: 0x135CB, offset: 0x135CB, size: 0x8, addend: 0x0, symName: __ZN14__DEBUG_UTIL__10printerArrEPKc, symObjAddr: 0x151C, symBinAddr: 0x100003654, symSize: 0x4 }
  - { offsetInCU: 0x135F0, offset: 0x135F0, size: 0x8, addend: 0x0, symName: __ZN14__DEBUG_UTIL__7printerIiJEEEvPKcOT_DpOT0_, symObjAddr: 0x2F08, symBinAddr: 0x100005040, symSize: 0x6AC }
  - { offsetInCU: 0x13712, offset: 0x13712, size: 0x8, addend: 0x0, symName: __ZNKSt3__112basic_stringIcNS_11char_traitsIcEENS_9allocatorIcEEE13__get_pointerB8ue170006Ev, symObjAddr: 0x8080, symBinAddr: 0x10000A1B8, symSize: 0x5C }
  - { offsetInCU: 0x13775, offset: 0x13775, size: 0x8, addend: 0x0, symName: __ZNKSt3__112basic_stringIcNS_11char_traitsIcEENS_9allocatorIcEEE4sizeB8ue170006Ev, symObjAddr: 0x8024, symBinAddr: 0x10000A15C, symSize: 0x5C }
  - { offsetInCU: 0x13896, offset: 0x13896, size: 0x8, addend: 0x0, symName: __ZNKSt3__114__bit_iteratorINS_6vectorIbNS_9allocatorIbEEEELb0ELm0EEdeB8ue170006Ev, symObjAddr: 0x11C8, symBinAddr: 0x100003300, symSize: 0xCC }
  - { offsetInCU: 0x138BD, offset: 0x138BD, size: 0x8, addend: 0x0, symName: __ZNKSt3__115__bit_referenceINS_6vectorIbNS_9allocatorIbEEEELb1EEcvbB8ue170006Ev, symObjAddr: 0x1294, symBinAddr: 0x1000033CC, symSize: 0xE4 }
  - { offsetInCU: 0x138E4, offset: 0x138E4, size: 0x8, addend: 0x0, symName: __ZNSt3__114__bit_iteratorINS_6vectorIbNS_9allocatorIbEEEELb0ELm0EEppB8ue170006Ev, symObjAddr: 0x1378, symBinAddr: 0x1000034B0, symSize: 0x1A0 }
  - { offsetInCU: 0x1390B, offset: 0x1390B, size: 0x8, addend: 0x0, symName: __ZNSt3__16vectorIbNS_9allocatorIbEEE5beginB8ue170006Ev, symObjAddr: 0x10B8, symBinAddr: 0x1000031F0, symSize: 0x4C }
  - { offsetInCU: 0x13940, offset: 0x13940, size: 0x8, addend: 0x0, symName: __ZNSt3__16vectorIbNS_9allocatorIbEEE11__make_iterB8ue170006Em, symObjAddr: 0x82E4, symBinAddr: 0x10000A41C, symSize: 0x168 }
  - { offsetInCU: 0x13E8A, offset: 0x13E8A, size: 0x8, addend: 0x0, symName: __Z5solvev, symObjAddr: 0x1520, symBinAddr: 0x100003658, symSize: 0x844 }
  - { offsetInCU: 0x14383, offset: 0x14383, size: 0x8, addend: 0x0, symName: __ZNSt3__16vectorINS_12basic_stringIcNS_11char_traitsIcEENS_9allocatorIcEEEENS4_IS6_EEEC2Em, symObjAddr: 0x844C, symBinAddr: 0x10000A584, symSize: 0x338 }
  - { offsetInCU: 0x144DB, offset: 0x144DB, size: 0x8, addend: 0x0, symName: __ZN3BITIiEC2Ei, symObjAddr: 0xB6A8, symBinAddr: 0x10000D7E0, symSize: 0x114 }
  - { offsetInCU: 0x14565, offset: 0x14565, size: 0x8, addend: 0x0, symName: __ZN3BITIiE3incEii, symObjAddr: 0x2C00, symBinAddr: 0x100004D38, symSize: 0x308 }
  - { offsetInCU: 0x145C9, offset: 0x145C9, size: 0x8, addend: 0x0, symName: __ZN3BITIiE3sumEii, symObjAddr: 0x35B4, symBinAddr: 0x1000056EC, symSize: 0x90 }
  - { offsetInCU: 0x1463C, offset: 0x1463C, size: 0x8, addend: 0x0, symName: __ZN3BITI7mod_intILx998244353EEEC2Ei, symObjAddr: 0xED40, symBinAddr: 0x100010E78, symSize: 0x114 }
  - { offsetInCU: 0x146C6, offset: 0x146C6, size: 0x8, addend: 0x0, symName: __ZNSt3__16vectorI3BITI7mod_intILx998244353EEENS_9allocatorIS4_EEEC2EmRKS4_, symObjAddr: 0x120CC, symBinAddr: 0x100014204, symSize: 0x340 }
  - { offsetInCU: 0x14832, offset: 0x14832, size: 0x8, addend: 0x0, symName: __ZNSt3__16vectorINS0_I3BITI7mod_intILx998244353EEENS_9allocatorIS4_EEEENS5_IS7_EEEC2EmRKS7_, symObjAddr: 0x15124, symBinAddr: 0x10001725C, symSize: 0x340 }
  - { offsetInCU: 0x1499E, offset: 0x1499E, size: 0x8, addend: 0x0, symName: __ZNSt3__16vectorI3BITI7mod_intILx998244353EEENS_9allocatorIS4_EEE16__destroy_vectorclB8ue170006Ev, symObjAddr: 0x14980, symBinAddr: 0x100016AB8, symSize: 0x240 }
  - { offsetInCU: 0x14ACC, offset: 0x14ACC, size: 0x8, addend: 0x0, symName: __ZNSt3__16vectorI7mod_intILx998244353EENS_9allocatorIS2_EEE16__destroy_vectorclB8ue170006Ev, symObjAddr: 0x43E4, symBinAddr: 0x10000651C, symSize: 0x240 }
  - { offsetInCU: 0x14BFA, offset: 0x14BFA, size: 0x8, addend: 0x0, symName: __ZNSt3__16vectorINS0_I3BITI7mod_intILx998244353EEENS_9allocatorIS4_EEEENS5_IS7_EEE16__destroy_vectorclB8ue170006Ev, symObjAddr: 0x18164, symBinAddr: 0x10001A29C, symSize: 0x240 }
  - { offsetInCU: 0x14D28, offset: 0x14D28, size: 0x8, addend: 0x0, symName: __ZNSt3__16vectorIiNS_9allocatorIiEEE16__destroy_vectorclB8ue170006Ev, symObjAddr: 0x4EB4, symBinAddr: 0x100006FEC, symSize: 0x240 }
  - { offsetInCU: 0x14E56, offset: 0x14E56, size: 0x8, addend: 0x0, symName: __ZNSt3__16vectorINS_12basic_stringIcNS_11char_traitsIcEENS_9allocatorIcEEEENS4_IS6_EEE16__destroy_vectorclB8ue170006Ev, symObjAddr: 0xA314, symBinAddr: 0x10000C44C, symSize: 0x240 }
  - { offsetInCU: 0x14F84, offset: 0x14F84, size: 0x8, addend: 0x0, symName: __ZNSt3__16vectorI3BITI7mod_intILx998244353EEENS_9allocatorIS4_EEED1B8ue170006Ev, symObjAddr: 0x3644, symBinAddr: 0x10000577C, symSize: 0x1A0 }
  - { offsetInCU: 0x14FE6, offset: 0x14FE6, size: 0x8, addend: 0x0, symName: __ZN3BITI7mod_intILx998244353EEED1Ev, symObjAddr: 0x37E4, symBinAddr: 0x10000591C, symSize: 0x1C0 }
  - { offsetInCU: 0x15074, offset: 0x15074, size: 0x8, addend: 0x0, symName: __ZN3BITIiED1Ev, symObjAddr: 0x39A4, symBinAddr: 0x100005ADC, symSize: 0x1C0 }
  - { offsetInCU: 0x15102, offset: 0x15102, size: 0x8, addend: 0x0, symName: __ZNSt3__16vectorINS_12basic_stringIcNS_11char_traitsIcEENS_9allocatorIcEEEENS4_IS6_EEED1B8ue170006Ev, symObjAddr: 0x3B64, symBinAddr: 0x100005C9C, symSize: 0x1A0 }
  - { offsetInCU: 0x15256, offset: 0x15256, size: 0x8, addend: 0x0, symName: __ZNSt3__112basic_stringIcNS_11char_traitsIcEENS_9allocatorIcEEE5clearB8ue170006Ev, symObjAddr: 0xA91C, symBinAddr: 0x10000CA54, symSize: 0x124 }
  - { offsetInCU: 0x1531B, offset: 0x1531B, size: 0x8, addend: 0x0, symName: __ZNKSt3__112basic_stringIcNS_11char_traitsIcEENS_9allocatorIcEEE8max_sizeB8ue170006Ev, symObjAddr: 0x6EEC, symBinAddr: 0x100009024, symSize: 0x74 }
  - { offsetInCU: 0x1536D, offset: 0x1536D, size: 0x8, addend: 0x0, symName: __ZNKSt3__18ios_base5rdbufB8ue170006Ev, symObjAddr: 0x7968, symBinAddr: 0x100009AA0, symSize: 0xE0 }
  - { offsetInCU: 0x15394, offset: 0x15394, size: 0x8, addend: 0x0, symName: __ZNSt3__115basic_streambufIcNS_11char_traitsIcEEE5sgetcB8ue170006Ev, symObjAddr: 0xAA40, symBinAddr: 0x10000CB78, symSize: 0x308 }
  - { offsetInCU: 0x153F5, offset: 0x153F5, size: 0x8, addend: 0x0, symName: __ZNKSt3__15ctypeIcE2isB8ue170006Ejc, symObjAddr: 0xAD48, symBinAddr: 0x10000CE80, symSize: 0x1C8 }
  - { offsetInCU: 0x1543C, offset: 0x1543C, size: 0x8, addend: 0x0, symName: __ZNSt3__115basic_streambufIcNS_11char_traitsIcEEE6sbumpcB8ue170006Ev, symObjAddr: 0xAF10, symBinAddr: 0x10000D048, symSize: 0x370 }
  - { offsetInCU: 0x1546F, offset: 0x1546F, size: 0x8, addend: 0x0, symName: __ZNSt3__18ios_base5widthB8ue170006El, symObjAddr: 0x6C38, symBinAddr: 0x100008D70, symSize: 0x1A0 }
  - { offsetInCU: 0x154B8, offset: 0x154B8, size: 0x8, addend: 0x0, symName: __ZNSt3__19basic_iosIcNS_11char_traitsIcEEE8setstateB8ue170006Ej, symObjAddr: 0x6B3C, symBinAddr: 0x100008C74, symSize: 0xFC }
  - { offsetInCU: 0x154FD, offset: 0x154FD, size: 0x8, addend: 0x0, symName: __ZNSt3__18ios_base18__setstate_nothrowB8ue170006Ej, symObjAddr: 0xB280, symBinAddr: 0x10000D3B8, symSize: 0x234 }
  - { offsetInCU: 0x15534, offset: 0x15534, size: 0x8, addend: 0x0, symName: __ZNKSt3__19basic_iosIcNS_11char_traitsIcEEE10exceptionsB8ue170006Ev, symObjAddr: 0xB4B4, symBinAddr: 0x10000D5EC, symSize: 0x1F4 }
  - { offsetInCU: 0x15596, offset: 0x15596, size: 0x8, addend: 0x0, symName: __ZN3BITIiE3sumEi, symObjAddr: 0xEA48, symBinAddr: 0x100010B80, symSize: 0x2F8 }
  - { offsetInCU: 0x155FB, offset: 0x155FB, size: 0x8, addend: 0x0, symName: _main, symObjAddr: 0x3D04, symBinAddr: 0x100005E3C, symSize: 0x394 }
  - { offsetInCU: 0x15659, offset: 0x15659, size: 0x8, addend: 0x0, symName: __ZNSt3__19basic_iosIcNS_11char_traitsIcEEE3tieB8ue170006EPNS_13basic_ostreamIcS2_EE, symObjAddr: 0x4098, symBinAddr: 0x1000061D0, symSize: 0x1A0 }
  - { offsetInCU: 0x156A2, offset: 0x156A2, size: 0x8, addend: 0x0, symName: __ZNSt3__16vectorI7mod_intILx998244353EENS_9allocatorIS2_EEED1B8ue170006Ev, symObjAddr: 0x4238, symBinAddr: 0x100006370, symSize: 0x1A0 }
  - { offsetInCU: 0x1577D, offset: 0x1577D, size: 0x8, addend: 0x0, symName: __ZNSt3__16vectorI7mod_intILx998244353EENS_9allocatorIS2_EEE22__base_destruct_at_endB8ue170006EPS2_, symObjAddr: 0x4990, symBinAddr: 0x100006AC8, symSize: 0xE8 }
  - { offsetInCU: 0x157D8, offset: 0x157D8, size: 0x8, addend: 0x0, symName: __ZNKSt3__16vectorI7mod_intILx998244353EENS_9allocatorIS2_EEE17__annotate_deleteB8ue170006Ev, symObjAddr: 0x4624, symBinAddr: 0x10000675C, symSize: 0x270 }
  - { offsetInCU: 0x158D2, offset: 0x158D2, size: 0x8, addend: 0x0, symName: __ZNSt3__16vectorI7mod_intILx998244353EENS_9allocatorIS2_EEE7__allocB8ue170006Ev, symObjAddr: 0x4894, symBinAddr: 0x1000069CC, symSize: 0x70 }
  - { offsetInCU: 0x15902, offset: 0x15902, size: 0x8, addend: 0x0, symName: __ZNKSt3__16vectorI7mod_intILx998244353EENS_9allocatorIS2_EEE8capacityB8ue170006Ev, symObjAddr: 0x4904, symBinAddr: 0x100006A3C, symSize: 0x8C }
  - { offsetInCU: 0x1599F, offset: 0x1599F, size: 0x8, addend: 0x0, symName: __ZNKSt3__16vectorI7mod_intILx998244353EENS_9allocatorIS2_EEE4sizeB8ue170006Ev, symObjAddr: 0x4A78, symBinAddr: 0x100006BB0, symSize: 0x8C }
  - { offsetInCU: 0x159C6, offset: 0x159C6, size: 0x8, addend: 0x0, symName: __ZNSt3__117__compressed_pairIP7mod_intILx998244353EENS_9allocatorIS2_EEE6secondB8ue170006Ev, symObjAddr: 0x4B04, symBinAddr: 0x100006C3C, symSize: 0xD4 }
  - { offsetInCU: 0x15A09, offset: 0x15A09, size: 0x8, addend: 0x0, symName: __ZNKSt3__16vectorI7mod_intILx998244353EENS_9allocatorIS2_EEE9__end_capB8ue170006Ev, symObjAddr: 0x4BD8, symBinAddr: 0x100006D10, symSize: 0x70 }
  - { offsetInCU: 0x15A54, offset: 0x15A54, size: 0x8, addend: 0x0, symName: __ZNKSt3__117__compressed_pairIP7mod_intILx998244353EENS_9allocatorIS2_EEE5firstB8ue170006Ev, symObjAddr: 0x4C48, symBinAddr: 0x100006D80, symSize: 0xCC }
  - { offsetInCU: 0x15AB4, offset: 0x15AB4, size: 0x8, addend: 0x0, symName: __ZNSt3__16vectorIiNS_9allocatorIiEEED1B8ue170006Ev, symObjAddr: 0x4D14, symBinAddr: 0x100006E4C, symSize: 0x1A0 }
  - { offsetInCU: 0x15B8A, offset: 0x15B8A, size: 0x8, addend: 0x0, symName: __ZNSt3__16vectorIiNS_9allocatorIiEEE22__base_destruct_at_endB8ue170006EPi, symObjAddr: 0x5460, symBinAddr: 0x100007598, symSize: 0xE8 }
  - { offsetInCU: 0x15BE5, offset: 0x15BE5, size: 0x8, addend: 0x0, symName: __ZNKSt3__16vectorIiNS_9allocatorIiEEE17__annotate_deleteB8ue170006Ev, symObjAddr: 0x50F4, symBinAddr: 0x10000722C, symSize: 0x270 }
  - { offsetInCU: 0x15CDF, offset: 0x15CDF, size: 0x8, addend: 0x0, symName: __ZNSt3__16vectorIiNS_9allocatorIiEEE7__allocB8ue170006Ev, symObjAddr: 0x5364, symBinAddr: 0x10000749C, symSize: 0x70 }
  - { offsetInCU: 0x15D0F, offset: 0x15D0F, size: 0x8, addend: 0x0, symName: __ZNKSt3__16vectorIiNS_9allocatorIiEEE8capacityB8ue170006Ev, symObjAddr: 0x53D4, symBinAddr: 0x10000750C, symSize: 0x8C }
  - { offsetInCU: 0x15DAC, offset: 0x15DAC, size: 0x8, addend: 0x0, symName: __ZNKSt3__16vectorIiNS_9allocatorIiEEE4sizeB8ue170006Ev, symObjAddr: 0x5548, symBinAddr: 0x100007680, symSize: 0x8C }
  - { offsetInCU: 0x15DD3, offset: 0x15DD3, size: 0x8, addend: 0x0, symName: __ZNSt3__117__compressed_pairIPiNS_9allocatorIiEEE6secondB8ue170006Ev, symObjAddr: 0x55D4, symBinAddr: 0x10000770C, symSize: 0xD4 }
  - { offsetInCU: 0x15E16, offset: 0x15E16, size: 0x8, addend: 0x0, symName: __ZNKSt3__16vectorIiNS_9allocatorIiEEE9__end_capB8ue170006Ev, symObjAddr: 0x56A8, symBinAddr: 0x1000077E0, symSize: 0x70 }
  - { offsetInCU: 0x15E61, offset: 0x15E61, size: 0x8, addend: 0x0, symName: __ZNKSt3__117__compressed_pairIPiNS_9allocatorIiEEE5firstB8ue170006Ev, symObjAddr: 0x5718, symBinAddr: 0x100007850, symSize: 0xCC }
  - { offsetInCU: 0x15F3D, offset: 0x15F3D, size: 0x8, addend: 0x0, symName: __ZNSt3__119ostreambuf_iteratorIcNS_11char_traitsIcEEEC2B8ue170006ERNS_13basic_ostreamIcS2_EE, symObjAddr: 0x76D0, symBinAddr: 0x100009808, symSize: 0x298 }
  - { offsetInCU: 0x15F9A, offset: 0x15F9A, size: 0x8, addend: 0x0, symName: __ZNKSt3__19basic_iosIcNS_11char_traitsIcEEE4fillB8ue170006Ev, symObjAddr: 0x68F4, symBinAddr: 0x100008A2C, symSize: 0x248 }
  - { offsetInCU: 0x16089, offset: 0x16089, size: 0x8, addend: 0x0, symName: __ZNSt3__117__compressed_pairINS_12basic_stringIcNS_11char_traitsIcEENS_9allocatorIcEEE5__repES5_EC1B8ue170006INS_18__default_init_tagESA_EEOT_OT0_, symObjAddr: 0x6DD8, symBinAddr: 0x100008F10, symSize: 0x98 }
  - { offsetInCU: 0x16126, offset: 0x16126, size: 0x8, addend: 0x0, symName: __ZNSt3__112basic_stringIcNS_11char_traitsIcEENS_9allocatorIcEEE13__get_pointerB8ue170006Ev, symObjAddr: 0x7484, symBinAddr: 0x1000095BC, symSize: 0x5C }
  - { offsetInCU: 0x16189, offset: 0x16189, size: 0x8, addend: 0x0, symName: __ZNKSt3__19basic_iosIcNS_11char_traitsIcEEE5widenB8ue170006Ec, symObjAddr: 0x7A48, symBinAddr: 0x100009B80, symSize: 0x340 }
  - { offsetInCU: 0x1620C, offset: 0x1620C, size: 0x8, addend: 0x0, symName: __ZNSt3__18ios_base8setstateB8ue170006Ej, symObjAddr: 0x7E88, symBinAddr: 0x100009FC0, symSize: 0x19C }
  - { offsetInCU: 0x162A9, offset: 0x162A9, size: 0x8, addend: 0x0, symName: __ZNSt3__122__compressed_pair_elemINS_9allocatorIcEELi1ELb1EEC2B8ue170006ENS_18__default_init_tagE, symObjAddr: 0x6E70, symBinAddr: 0x100008FA8, symSize: 0x7C }
  - { offsetInCU: 0x1636E, offset: 0x1636E, size: 0x8, addend: 0x0, symName: __ZNKSt3__117__compressed_pairINS_12basic_stringIcNS_11char_traitsIcEENS_9allocatorIcEEE5__repES5_E6secondB8ue170006Ev, symObjAddr: 0x7164, symBinAddr: 0x10000929C, symSize: 0xD4 }
  - { offsetInCU: 0x163B1, offset: 0x163B1, size: 0x8, addend: 0x0, symName: __ZNSt3__112basic_stringIcNS_11char_traitsIcEENS_9allocatorIcEEE16__set_short_sizeB8ue170006Em, symObjAddr: 0x6F60, symBinAddr: 0x100009098, symSize: 0x11C }
  - { offsetInCU: 0x16424, offset: 0x16424, size: 0x8, addend: 0x0, symName: __ZNSt3__117__compressed_pairINS_12basic_stringIcNS_11char_traitsIcEENS_9allocatorIcEEE5__repES5_E5firstB8ue170006Ev, symObjAddr: 0x735C, symBinAddr: 0x100009494, symSize: 0xCC }
  - { offsetInCU: 0x16468, offset: 0x16468, size: 0x8, addend: 0x0, symName: __ZNSt3__112basic_stringIcNS_11char_traitsIcEENS_9allocatorIcEEE19__get_short_pointerB8ue170006Ev, symObjAddr: 0x707C, symBinAddr: 0x1000091B4, symSize: 0x58 }
  - { offsetInCU: 0x1649D, offset: 0x1649D, size: 0x8, addend: 0x0, symName: __ZNSt3__112basic_stringIcNS_11char_traitsIcEENS_9allocatorIcEEE15__set_long_sizeB8ue170006Em, symObjAddr: 0x70D4, symBinAddr: 0x10000920C, symSize: 0x90 }
  - { offsetInCU: 0x164FD, offset: 0x164FD, size: 0x8, addend: 0x0, symName: __ZNSt12length_errorC1B8ue170006EPKc, symObjAddr: 0x72B0, symBinAddr: 0x1000093E8, symSize: 0xAC }
  - { offsetInCU: 0x16597, offset: 0x16597, size: 0x8, addend: 0x0, symName: __ZNKSt3__112basic_stringIcNS_11char_traitsIcEENS_9allocatorIcEEE9__is_longB8ue170006Ev, symObjAddr: 0x74E0, symBinAddr: 0x100009618, symSize: 0x9C }
  - { offsetInCU: 0x165CB, offset: 0x165CB, size: 0x8, addend: 0x0, symName: __ZNSt3__112basic_stringIcNS_11char_traitsIcEENS_9allocatorIcEEE18__get_long_pointerB8ue170006Ev, symObjAddr: 0x757C, symBinAddr: 0x1000096B4, symSize: 0x88 }
  - { offsetInCU: 0x165FF, offset: 0x165FF, size: 0x8, addend: 0x0, symName: __ZNKSt3__117__compressed_pairINS_12basic_stringIcNS_11char_traitsIcEENS_9allocatorIcEEE5__repES5_E5firstB8ue170006Ev, symObjAddr: 0x7604, symBinAddr: 0x10000973C, symSize: 0xCC }
  - { offsetInCU: 0x16687, offset: 0x16687, size: 0x8, addend: 0x0, symName: __ZNKSt3__112basic_stringIcNS_11char_traitsIcEENS_9allocatorIcEEE15__get_long_sizeB8ue170006Ev, symObjAddr: 0x81BC, symBinAddr: 0x10000A2F4, symSize: 0x8C }
  - { offsetInCU: 0x166BB, offset: 0x166BB, size: 0x8, addend: 0x0, symName: __ZNKSt3__112basic_stringIcNS_11char_traitsIcEENS_9allocatorIcEEE16__get_short_sizeB8ue170006Ev, symObjAddr: 0x8248, symBinAddr: 0x10000A380, symSize: 0x9C }
  - { offsetInCU: 0x166EF, offset: 0x166EF, size: 0x8, addend: 0x0, symName: __ZNKSt3__112basic_stringIcNS_11char_traitsIcEENS_9allocatorIcEEE18__get_long_pointerB8ue170006Ev, symObjAddr: 0x80DC, symBinAddr: 0x10000A214, symSize: 0x88 }
  - { offsetInCU: 0x16723, offset: 0x16723, size: 0x8, addend: 0x0, symName: __ZNKSt3__112basic_stringIcNS_11char_traitsIcEENS_9allocatorIcEEE19__get_short_pointerB8ue170006Ev, symObjAddr: 0x8164, symBinAddr: 0x10000A29C, symSize: 0x58 }
  - { offsetInCU: 0x16820, offset: 0x16820, size: 0x8, addend: 0x0, symName: __ZNSt3__117__compressed_pairIPNS_12basic_stringIcNS_11char_traitsIcEENS_9allocatorIcEEEENS4_IS6_EEEC2B8ue170006IDnNS_18__default_init_tagEEEOT_OT0_, symObjAddr: 0x8C8C, symBinAddr: 0x10000ADC4, symSize: 0xB0 }
  - { offsetInCU: 0x1689F, offset: 0x1689F, size: 0x8, addend: 0x0, symName: __ZNSt3__16vectorINS_12basic_stringIcNS_11char_traitsIcEENS_9allocatorIcEEEENS4_IS6_EEE11__vallocateB8ue170006Em, symObjAddr: 0x8784, symBinAddr: 0x10000A8BC, symSize: 0x1BC }
  - { offsetInCU: 0x1698A, offset: 0x1698A, size: 0x8, addend: 0x0, symName: __ZNSt3__16vectorINS_12basic_stringIcNS_11char_traitsIcEENS_9allocatorIcEEEENS4_IS6_EEE18__construct_at_endEm, symObjAddr: 0x8940, symBinAddr: 0x10000AA78, symSize: 0x304 }
  - { offsetInCU: 0x16AF0, offset: 0x16AF0, size: 0x8, addend: 0x0, symName: __ZNSt3__128__exception_guard_exceptionsINS_6vectorINS_12basic_stringIcNS_11char_traitsIcEENS_9allocatorIcEEEENS5_IS7_EEE16__destroy_vectorEED2B8ue170006Ev, symObjAddr: 0xA230, symBinAddr: 0x10000C368, symSize: 0xE4 }
  - { offsetInCU: 0x16B2F, offset: 0x16B2F, size: 0x8, addend: 0x0, symName: __ZNSt3__128__exception_guard_exceptionsINS_6vectorINS_12basic_stringIcNS_11char_traitsIcEENS_9allocatorIcEEEENS5_IS7_EEE16__destroy_vectorEED1B8ue170006Ev, symObjAddr: 0x8C44, symBinAddr: 0x10000AD7C, symSize: 0x48 }
  - { offsetInCU: 0x16B93, offset: 0x16B93, size: 0x8, addend: 0x0, symName: __ZNKSt3__16vectorINS_12basic_stringIcNS_11char_traitsIcEENS_9allocatorIcEEEENS4_IS6_EEE7__allocB8ue170006Ev, symObjAddr: 0x9168, symBinAddr: 0x10000B2A0, symSize: 0x70 }
  - { offsetInCU: 0x16BC8, offset: 0x16BC8, size: 0x8, addend: 0x0, symName: __ZNSt3__16vectorINS_12basic_stringIcNS_11char_traitsIcEENS_9allocatorIcEEEENS4_IS6_EEE7__allocB8ue170006Ev, symObjAddr: 0x8E50, symBinAddr: 0x10000AF88, symSize: 0x70 }
  - { offsetInCU: 0x16BF8, offset: 0x16BF8, size: 0x8, addend: 0x0, symName: __ZNSt3__117__compressed_pairIPNS_12basic_stringIcNS_11char_traitsIcEENS_9allocatorIcEEEENS4_IS6_EEE5firstB8ue170006Ev, symObjAddr: 0x9380, symBinAddr: 0x10000B4B8, symSize: 0xCC }
  - { offsetInCU: 0x16C3C, offset: 0x16C3C, size: 0x8, addend: 0x0, symName: __ZNKSt3__16vectorINS_12basic_stringIcNS_11char_traitsIcEENS_9allocatorIcEEEENS4_IS6_EEE14__annotate_newB8ue170006Em, symObjAddr: 0x8EC0, symBinAddr: 0x10000AFF8, symSize: 0x2A8 }
  - { offsetInCU: 0x16D32, offset: 0x16D32, size: 0x8, addend: 0x0, symName: __ZNKSt3__16vectorINS_12basic_stringIcNS_11char_traitsIcEENS_9allocatorIcEEEENS4_IS6_EEE20__throw_length_errorB8ue170006Ev, symObjAddr: 0x8DB8, symBinAddr: 0x10000AEF0, symSize: 0x44 }
  - { offsetInCU: 0x16E68, offset: 0x16E68, size: 0x8, addend: 0x0, symName: __ZNSt3__16vectorINS_12basic_stringIcNS_11char_traitsIcEENS_9allocatorIcEEEENS4_IS6_EEE21_ConstructTransactionC2B8ue170006ERS8_m, symObjAddr: 0x9620, symBinAddr: 0x10000B758, symSize: 0x1A4 }
  - { offsetInCU: 0x16EC0, offset: 0x16EC0, size: 0x8, addend: 0x0, symName: __ZNSt3__117__compressed_pairIPNS_12basic_stringIcNS_11char_traitsIcEENS_9allocatorIcEEEENS4_IS6_EEE6secondB8ue170006Ev, symObjAddr: 0x92AC, symBinAddr: 0x10000B3E4, symSize: 0xD4 }
  - { offsetInCU: 0x16F03, offset: 0x16F03, size: 0x8, addend: 0x0, symName: __ZNSt3__112basic_stringIcNS_11char_traitsIcEENS_9allocatorIcEEEC2B8ue170006Ev, symObjAddr: 0x9B68, symBinAddr: 0x10000BCA0, symSize: 0x224 }
  - { offsetInCU: 0x16F73, offset: 0x16F73, size: 0x8, addend: 0x0, symName: __ZNSt3__16vectorINS_12basic_stringIcNS_11char_traitsIcEENS_9allocatorIcEEEENS4_IS6_EEE21_ConstructTransactionD2B8ue170006Ev, symObjAddr: 0x9D8C, symBinAddr: 0x10000BEC4, symSize: 0x220 }
  - { offsetInCU: 0x16FDA, offset: 0x16FDA, size: 0x8, addend: 0x0, symName: __ZNSt3__122__compressed_pair_elemINS_9allocatorINS_12basic_stringIcNS_11char_traitsIcEENS1_IcEEEEEELi1ELb1EEC2B8ue170006ENS_18__default_init_tagE, symObjAddr: 0x8D3C, symBinAddr: 0x10000AE74, symSize: 0x7C }
  - { offsetInCU: 0x17100, offset: 0x17100, size: 0x8, addend: 0x0, symName: __ZNKSt3__16vectorINS_12basic_stringIcNS_11char_traitsIcEENS_9allocatorIcEEEENS4_IS6_EEE8capacityB8ue170006Ev, symObjAddr: 0x944C, symBinAddr: 0x10000B584, symSize: 0x98 }
  - { offsetInCU: 0x1713B, offset: 0x1713B, size: 0x8, addend: 0x0, symName: __ZNKSt3__117__compressed_pairIPNS_12basic_stringIcNS_11char_traitsIcEENS_9allocatorIcEEEENS4_IS6_EEE6secondB8ue170006Ev, symObjAddr: 0x91D8, symBinAddr: 0x10000B310, symSize: 0xD4 }
  - { offsetInCU: 0x171C6, offset: 0x171C6, size: 0x8, addend: 0x0, symName: __ZNKSt3__16vectorINS_12basic_stringIcNS_11char_traitsIcEENS_9allocatorIcEEEENS4_IS6_EEE9__end_capB8ue170006Ev, symObjAddr: 0x94E4, symBinAddr: 0x10000B61C, symSize: 0x70 }
  - { offsetInCU: 0x171FB, offset: 0x171FB, size: 0x8, addend: 0x0, symName: __ZNKSt3__117__compressed_pairIPNS_12basic_stringIcNS_11char_traitsIcEENS_9allocatorIcEEEENS4_IS6_EEE5firstB8ue170006Ev, symObjAddr: 0x9554, symBinAddr: 0x10000B68C, symSize: 0xCC }
  - { offsetInCU: 0x1725B, offset: 0x1725B, size: 0x8, addend: 0x0, symName: __ZNKSt3__16vectorINS_12basic_stringIcNS_11char_traitsIcEENS_9allocatorIcEEEENS4_IS6_EEE19__annotate_increaseB8ue170006Em, symObjAddr: 0x97C4, symBinAddr: 0x10000B8FC, symSize: 0x30C }
  - { offsetInCU: 0x17365, offset: 0x17365, size: 0x8, addend: 0x0, symName: __ZNKSt3__16vectorINS_12basic_stringIcNS_11char_traitsIcEENS_9allocatorIcEEEENS4_IS6_EEE4sizeB8ue170006Ev, symObjAddr: 0x9AD0, symBinAddr: 0x10000BC08, symSize: 0x98 }
  - { offsetInCU: 0x173A2, offset: 0x173A2, size: 0x8, addend: 0x0, symName: __ZNKSt3__16vectorINS_12basic_stringIcNS_11char_traitsIcEENS_9allocatorIcEEEENS4_IS6_EEE17__annotate_shrinkB8ue170006Em, symObjAddr: 0x9FAC, symBinAddr: 0x10000C0E4, symSize: 0x284 }
  - { offsetInCU: 0x17506, offset: 0x17506, size: 0x8, addend: 0x0, symName: __ZNSt3__16vectorINS_12basic_stringIcNS_11char_traitsIcEENS_9allocatorIcEEEENS4_IS6_EEE22__base_destruct_at_endB8ue170006EPS6_, symObjAddr: 0xA7EC, symBinAddr: 0x10000C924, symSize: 0x130 }
  - { offsetInCU: 0x175A5, offset: 0x175A5, size: 0x8, addend: 0x0, symName: __ZNKSt3__16vectorINS_12basic_stringIcNS_11char_traitsIcEENS_9allocatorIcEEEENS4_IS6_EEE17__annotate_deleteB8ue170006Ev, symObjAddr: 0xA554, symBinAddr: 0x10000C68C, symSize: 0x298 }
  - { offsetInCU: 0x1773A, offset: 0x1773A, size: 0x8, addend: 0x0, symName: __ZNSt3__16vectorIiNS_9allocatorIiEEEC1B8ue170006Ev, symObjAddr: 0xB7BC, symBinAddr: 0x10000D8F4, symSize: 0x204 }
  - { offsetInCU: 0x177B9, offset: 0x177B9, size: 0x8, addend: 0x0, symName: __ZNSt3__16vectorIiNS_9allocatorIiEEE6resizeEm, symObjAddr: 0xB9C0, symBinAddr: 0x10000DAF8, symSize: 0x100 }
  - { offsetInCU: 0x1789A, offset: 0x1789A, size: 0x8, addend: 0x0, symName: __ZNSt3__117__compressed_pairIPiNS_9allocatorIiEEEC2B8ue170006IDnNS_18__default_init_tagEEEOT_OT0_, symObjAddr: 0xBAC0, symBinAddr: 0x10000DBF8, symSize: 0xB0 }
  - { offsetInCU: 0x17919, offset: 0x17919, size: 0x8, addend: 0x0, symName: __ZNSt3__16vectorIiNS_9allocatorIiEEE8__appendEm, symObjAddr: 0xBBEC, symBinAddr: 0x10000DD24, symSize: 0x28C }
  - { offsetInCU: 0x17AC2, offset: 0x17AC2, size: 0x8, addend: 0x0, symName: __ZNSt3__16vectorIiNS_9allocatorIiEEE17__destruct_at_endB8ue170006EPi, symObjAddr: 0xBE78, symBinAddr: 0x10000DFB0, symSize: 0x68 }
  - { offsetInCU: 0x17B7C, offset: 0x17B7C, size: 0x8, addend: 0x0, symName: __ZNSt3__122__compressed_pair_elemINS_9allocatorIiEELi1ELb1EEC2B8ue170006ENS_18__default_init_tagE, symObjAddr: 0xBB70, symBinAddr: 0x10000DCA8, symSize: 0x7C }
  - { offsetInCU: 0x17C84, offset: 0x17C84, size: 0x8, addend: 0x0, symName: __ZNSt3__16vectorIiNS_9allocatorIiEEE9__end_capB8ue170006Ev, symObjAddr: 0xBEE0, symBinAddr: 0x10000E018, symSize: 0x70 }
  - { offsetInCU: 0x17CB4, offset: 0x17CB4, size: 0x8, addend: 0x0, symName: __ZNKSt3__16vectorIiNS_9allocatorIiEEE11__recommendB8ue170006Em, symObjAddr: 0xC250, symBinAddr: 0x10000E388, symSize: 0x9C }
  - { offsetInCU: 0x17D60, offset: 0x17D60, size: 0x8, addend: 0x0, symName: __ZNSt3__114__split_bufferIiRNS_9allocatorIiEEEC2EmmS3_, symObjAddr: 0xD580, symBinAddr: 0x10000F6B8, symSize: 0x35C }
  - { offsetInCU: 0x17E67, offset: 0x17E67, size: 0x8, addend: 0x0, symName: __ZNSt3__114__split_bufferIiRNS_9allocatorIiEEE18__construct_at_endEm, symObjAddr: 0xC2EC, symBinAddr: 0x10000E424, symSize: 0x2DC }
  - { offsetInCU: 0x17F6B, offset: 0x17F6B, size: 0x8, addend: 0x0, symName: __ZNSt3__114__split_bufferIiRNS_9allocatorIiEEED2Ev, symObjAddr: 0xE5E0, symBinAddr: 0x100010718, symSize: 0xF4 }
  - { offsetInCU: 0x1807A, offset: 0x1807A, size: 0x8, addend: 0x0, symName: __ZNSt3__16vectorIiNS_9allocatorIiEEE18__construct_at_endEm, symObjAddr: 0xBF50, symBinAddr: 0x10000E088, symSize: 0x300 }
  - { offsetInCU: 0x181B6, offset: 0x181B6, size: 0x8, addend: 0x0, symName: __ZNSt3__114__split_bufferIiRNS_9allocatorIiEEED1Ev, symObjAddr: 0xCA08, symBinAddr: 0x10000EB40, symSize: 0x48 }
  - { offsetInCU: 0x181E6, offset: 0x181E6, size: 0x8, addend: 0x0, symName: __ZNKSt3__16vectorIiNS_9allocatorIiEEE17__annotate_shrinkB8ue170006Em, symObjAddr: 0xD19C, symBinAddr: 0x10000F2D4, symSize: 0x25C }
  - { offsetInCU: 0x182DC, offset: 0x182DC, size: 0x8, addend: 0x0, symName: __ZNSt3__117__compressed_pairIPiNS_9allocatorIiEEE5firstB8ue170006Ev, symObjAddr: 0xCA50, symBinAddr: 0x10000EB88, symSize: 0xCC }
  - { offsetInCU: 0x18402, offset: 0x18402, size: 0x8, addend: 0x0, symName: __ZNSt3__16vectorIiNS_9allocatorIiEEE21_ConstructTransactionC2B8ue170006ERS3_m, symObjAddr: 0xCB1C, symBinAddr: 0x10000EC54, symSize: 0x194 }
  - { offsetInCU: 0x1845A, offset: 0x1845A, size: 0x8, addend: 0x0, symName: __ZNSt3__16vectorIiNS_9allocatorIiEEE21_ConstructTransactionD2B8ue170006Ev, symObjAddr: 0xCF88, symBinAddr: 0x10000F0C0, symSize: 0x214 }
  - { offsetInCU: 0x184AA, offset: 0x184AA, size: 0x8, addend: 0x0, symName: __ZNKSt3__16vectorIiNS_9allocatorIiEEE7__allocB8ue170006Ev, symObjAddr: 0xD43C, symBinAddr: 0x10000F574, symSize: 0x70 }
  - { offsetInCU: 0x184DF, offset: 0x184DF, size: 0x8, addend: 0x0, symName: __ZNKSt3__16vectorIiNS_9allocatorIiEEE20__throw_length_errorB8ue170006Ev, symObjAddr: 0xD3F8, symBinAddr: 0x10000F530, symSize: 0x44 }
  - { offsetInCU: 0x1856F, offset: 0x1856F, size: 0x8, addend: 0x0, symName: __ZNSt3__114__split_bufferIiRNS_9allocatorIiEEE21_ConstructTransactionC2B8ue170006EPPim, symObjAddr: 0xDC58, symBinAddr: 0x10000FD90, symSize: 0x1B4 }
  - { offsetInCU: 0x185B8, offset: 0x185B8, size: 0x8, addend: 0x0, symName: __ZNSt3__114__split_bufferIiRNS_9allocatorIiEEE7__allocB8ue170006Ev, symObjAddr: 0xD920, symBinAddr: 0x10000FA58, symSize: 0x70 }
  - { offsetInCU: 0x185E8, offset: 0x185E8, size: 0x8, addend: 0x0, symName: __ZNSt3__114__split_bufferIiRNS_9allocatorIiEEE21_ConstructTransactionD2B8ue170006Ev, symObjAddr: 0xDE0C, symBinAddr: 0x10000FF44, symSize: 0xE8 }
  - { offsetInCU: 0x18667, offset: 0x18667, size: 0x8, addend: 0x0, symName: __ZNKSt3__111__move_loopINS_17_ClassicAlgPolicyEEclB8ue170006INS_16reverse_iteratorIPiEES6_S6_EENS_4pairIT_T1_EES8_T0_S9_, symObjAddr: 0xE174, symBinAddr: 0x1000102AC, symSize: 0x3AC }
  - { offsetInCU: 0x187D8, offset: 0x187D8, size: 0x8, addend: 0x0, symName: __ZNSt3__117__compressed_pairIPiRNS_9allocatorIiEEE5firstB8ue170006Ev, symObjAddr: 0xDB8C, symBinAddr: 0x10000FCC4, symSize: 0xCC }
  - { offsetInCU: 0x1881C, offset: 0x1881C, size: 0x8, addend: 0x0, symName: __ZNKSt3__16vectorIiNS_9allocatorIiEEE14__annotate_newB8ue170006Em, symObjAddr: 0xDEF4, symBinAddr: 0x10001002C, symSize: 0x280 }
  - { offsetInCU: 0x18928, offset: 0x18928, size: 0x8, addend: 0x0, symName: __ZNKSt3__16vectorIiNS_9allocatorIiEEE19__annotate_increaseB8ue170006Em, symObjAddr: 0xCCB0, symBinAddr: 0x10000EDE8, symSize: 0x2D8 }
  - { offsetInCU: 0x18A32, offset: 0x18A32, size: 0x8, addend: 0x0, symName: __ZNKSt3__117__compressed_pairIPiNS_9allocatorIiEEE6secondB8ue170006Ev, symObjAddr: 0xD4AC, symBinAddr: 0x10000F5E4, symSize: 0xD4 }
  - { offsetInCU: 0x18AD3, offset: 0x18AD3, size: 0x8, addend: 0x0, symName: __ZNSt3__117__compressed_pairIPiRNS_9allocatorIiEEEC2B8ue170006IDnS4_EEOT_OT0_, symObjAddr: 0xD990, symBinAddr: 0x10000FAC8, symSize: 0xFC }
  - { offsetInCU: 0x18B84, offset: 0x18B84, size: 0x8, addend: 0x0, symName: __ZNSt3__117__compressed_pairIPiRNS_9allocatorIiEEE6secondB8ue170006Ev, symObjAddr: 0xDA8C, symBinAddr: 0x10000FBC4, symSize: 0x100 }
  - { offsetInCU: 0x18D02, offset: 0x18D02, size: 0x8, addend: 0x0, symName: __ZNKSt3__116reverse_iteratorIPiEdeB8ue170006Ev, symObjAddr: 0xE520, symBinAddr: 0x100010658, symSize: 0xC0 }
  - { offsetInCU: 0x18D4F, offset: 0x18D4F, size: 0x8, addend: 0x0, symName: __ZNSt3__114__split_bufferIiRNS_9allocatorIiEEE5clearB8ue170006Ev, symObjAddr: 0xE6D4, symBinAddr: 0x10001080C, symSize: 0xAC }
  - { offsetInCU: 0x18DA3, offset: 0x18DA3, size: 0x8, addend: 0x0, symName: __ZNKSt3__114__split_bufferIiRNS_9allocatorIiEEE8capacityB8ue170006Ev, symObjAddr: 0xE780, symBinAddr: 0x1000108B8, symSize: 0x8C }
  - { offsetInCU: 0x18DFF, offset: 0x18DFF, size: 0x8, addend: 0x0, symName: __ZNSt3__114__split_bufferIiRNS_9allocatorIiEEE17__destruct_at_endB8ue170006EPiNS_17integral_constantIbLb0EEE, symObjAddr: 0xE80C, symBinAddr: 0x100010944, symSize: 0x100 }
  - { offsetInCU: 0x18E53, offset: 0x18E53, size: 0x8, addend: 0x0, symName: __ZNKSt3__114__split_bufferIiRNS_9allocatorIiEEE9__end_capB8ue170006Ev, symObjAddr: 0xE90C, symBinAddr: 0x100010A44, symSize: 0x70 }
  - { offsetInCU: 0x18E88, offset: 0x18E88, size: 0x8, addend: 0x0, symName: __ZNKSt3__117__compressed_pairIPiRNS_9allocatorIiEEE5firstB8ue170006Ev, symObjAddr: 0xE97C, symBinAddr: 0x100010AB4, symSize: 0xCC }
  - { offsetInCU: 0x18ECC, offset: 0x18ECC, size: 0x8, addend: 0x0, symName: __ZNSt3__16vectorI7mod_intILx998244353EENS_9allocatorIS2_EEEC1B8ue170006Ev, symObjAddr: 0xEE54, symBinAddr: 0x100010F8C, symSize: 0x204 }
  - { offsetInCU: 0x18F4B, offset: 0x18F4B, size: 0x8, addend: 0x0, symName: __ZNSt3__16vectorI7mod_intILx998244353EENS_9allocatorIS2_EEE6resizeEm, symObjAddr: 0xF058, symBinAddr: 0x100011190, symSize: 0x100 }
  - { offsetInCU: 0x1902C, offset: 0x1902C, size: 0x8, addend: 0x0, symName: __ZNSt3__117__compressed_pairIP7mod_intILx998244353EENS_9allocatorIS2_EEEC2B8ue170006IDnNS_18__default_init_tagEEEOT_OT0_, symObjAddr: 0xF158, symBinAddr: 0x100011290, symSize: 0xB0 }
  - { offsetInCU: 0x190AB, offset: 0x190AB, size: 0x8, addend: 0x0, symName: __ZNSt3__16vectorI7mod_intILx998244353EENS_9allocatorIS2_EEE8__appendEm, symObjAddr: 0xF284, symBinAddr: 0x1000113BC, symSize: 0x28C }
  - { offsetInCU: 0x19254, offset: 0x19254, size: 0x8, addend: 0x0, symName: __ZNSt3__16vectorI7mod_intILx998244353EENS_9allocatorIS2_EEE17__destruct_at_endB8ue170006EPS2_, symObjAddr: 0xF510, symBinAddr: 0x100011648, symSize: 0x68 }
  - { offsetInCU: 0x1930E, offset: 0x1930E, size: 0x8, addend: 0x0, symName: __ZNSt3__122__compressed_pair_elemINS_9allocatorI7mod_intILx998244353EEEELi1ELb1EEC2B8ue170006ENS_18__default_init_tagE, symObjAddr: 0xF208, symBinAddr: 0x100011340, symSize: 0x7C }
  - { offsetInCU: 0x19416, offset: 0x19416, size: 0x8, addend: 0x0, symName: __ZNSt3__16vectorI7mod_intILx998244353EENS_9allocatorIS2_EEE9__end_capB8ue170006Ev, symObjAddr: 0xF578, symBinAddr: 0x1000116B0, symSize: 0x70 }
  - { offsetInCU: 0x19446, offset: 0x19446, size: 0x8, addend: 0x0, symName: __ZNKSt3__16vectorI7mod_intILx998244353EENS_9allocatorIS2_EEE11__recommendB8ue170006Em, symObjAddr: 0xF8F4, symBinAddr: 0x100011A2C, symSize: 0x9C }
  - { offsetInCU: 0x194F2, offset: 0x194F2, size: 0x8, addend: 0x0, symName: __ZNSt3__114__split_bufferI7mod_intILx998244353EERNS_9allocatorIS2_EEEC2EmmS5_, symObjAddr: 0x10C1C, symBinAddr: 0x100012D54, symSize: 0x35C }
  - { offsetInCU: 0x195F9, offset: 0x195F9, size: 0x8, addend: 0x0, symName: __ZNSt3__114__split_bufferI7mod_intILx998244353EERNS_9allocatorIS2_EEE18__construct_at_endEm, symObjAddr: 0xF990, symBinAddr: 0x100011AC8, symSize: 0x2D4 }
  - { offsetInCU: 0x1971E, offset: 0x1971E, size: 0x8, addend: 0x0, symName: __ZNSt3__114__split_bufferI7mod_intILx998244353EERNS_9allocatorIS2_EEED2Ev, symObjAddr: 0x11C64, symBinAddr: 0x100013D9C, symSize: 0xF4 }
  - { offsetInCU: 0x1982D, offset: 0x1982D, size: 0x8, addend: 0x0, symName: __ZNSt3__16vectorI7mod_intILx998244353EENS_9allocatorIS2_EEE18__construct_at_endEm, symObjAddr: 0xF5E8, symBinAddr: 0x100011720, symSize: 0x30C }
  - { offsetInCU: 0x199A1, offset: 0x199A1, size: 0x8, addend: 0x0, symName: __ZNSt3__114__split_bufferI7mod_intILx998244353EERNS_9allocatorIS2_EEED1Ev, symObjAddr: 0x100A4, symBinAddr: 0x1000121DC, symSize: 0x48 }
  - { offsetInCU: 0x199D1, offset: 0x199D1, size: 0x8, addend: 0x0, symName: __ZNKSt3__16vectorI7mod_intILx998244353EENS_9allocatorIS2_EEE17__annotate_shrinkB8ue170006Em, symObjAddr: 0x10838, symBinAddr: 0x100012970, symSize: 0x25C }
  - { offsetInCU: 0x19AC7, offset: 0x19AC7, size: 0x8, addend: 0x0, symName: __ZNSt3__117__compressed_pairIP7mod_intILx998244353EENS_9allocatorIS2_EEE5firstB8ue170006Ev, symObjAddr: 0x100EC, symBinAddr: 0x100012224, symSize: 0xCC }
  - { offsetInCU: 0x19C21, offset: 0x19C21, size: 0x8, addend: 0x0, symName: __ZNSt3__16vectorI7mod_intILx998244353EENS_9allocatorIS2_EEE21_ConstructTransactionC2B8ue170006ERS5_m, symObjAddr: 0x101B8, symBinAddr: 0x1000122F0, symSize: 0x194 }
  - { offsetInCU: 0x19C79, offset: 0x19C79, size: 0x8, addend: 0x0, symName: __ZNSt3__16vectorI7mod_intILx998244353EENS_9allocatorIS2_EEE21_ConstructTransactionD2B8ue170006Ev, symObjAddr: 0x10624, symBinAddr: 0x10001275C, symSize: 0x214 }
  - { offsetInCU: 0x19CC9, offset: 0x19CC9, size: 0x8, addend: 0x0, symName: __ZNKSt3__16vectorI7mod_intILx998244353EENS_9allocatorIS2_EEE7__allocB8ue170006Ev, symObjAddr: 0x10AD8, symBinAddr: 0x100012C10, symSize: 0x70 }
  - { offsetInCU: 0x19CF9, offset: 0x19CF9, size: 0x8, addend: 0x0, symName: __ZNKSt3__16vectorI7mod_intILx998244353EENS_9allocatorIS2_EEE20__throw_length_errorB8ue170006Ev, symObjAddr: 0x10A94, symBinAddr: 0x100012BCC, symSize: 0x44 }
  - { offsetInCU: 0x19D89, offset: 0x19D89, size: 0x8, addend: 0x0, symName: __ZNSt3__114__split_bufferI7mod_intILx998244353EERNS_9allocatorIS2_EEE21_ConstructTransactionC2B8ue170006EPPS2_m, symObjAddr: 0x112F4, symBinAddr: 0x10001342C, symSize: 0x1B4 }
  - { offsetInCU: 0x19DD2, offset: 0x19DD2, size: 0x8, addend: 0x0, symName: __ZNSt3__114__split_bufferI7mod_intILx998244353EERNS_9allocatorIS2_EEE7__allocB8ue170006Ev, symObjAddr: 0x10FBC, symBinAddr: 0x1000130F4, symSize: 0x70 }
  - { offsetInCU: 0x19E02, offset: 0x19E02, size: 0x8, addend: 0x0, symName: __ZNSt3__114__split_bufferI7mod_intILx998244353EERNS_9allocatorIS2_EEE21_ConstructTransactionD2B8ue170006Ev, symObjAddr: 0x114A8, symBinAddr: 0x1000135E0, symSize: 0xE8 }
  - { offsetInCU: 0x19E76, offset: 0x19E76, size: 0x8, addend: 0x0, symName: __ZNKSt3__111__move_loopINS_17_ClassicAlgPolicyEEclB8ue170006INS_16reverse_iteratorIP7mod_intILx998244353EEEES8_S8_EENS_4pairIT_T1_EESA_T0_SB_, symObjAddr: 0x11810, symBinAddr: 0x100013948, symSize: 0x394 }
  - { offsetInCU: 0x19FE7, offset: 0x19FE7, size: 0x8, addend: 0x0, symName: __ZNSt3__117__compressed_pairIP7mod_intILx998244353EERNS_9allocatorIS2_EEE5firstB8ue170006Ev, symObjAddr: 0x11228, symBinAddr: 0x100013360, symSize: 0xCC }
  - { offsetInCU: 0x1A02B, offset: 0x1A02B, size: 0x8, addend: 0x0, symName: __ZNKSt3__16vectorI7mod_intILx998244353EENS_9allocatorIS2_EEE14__annotate_newB8ue170006Em, symObjAddr: 0x11590, symBinAddr: 0x1000136C8, symSize: 0x280 }
  - { offsetInCU: 0x1A137, offset: 0x1A137, size: 0x8, addend: 0x0, symName: __ZNKSt3__16vectorI7mod_intILx998244353EENS_9allocatorIS2_EEE19__annotate_increaseB8ue170006Em, symObjAddr: 0x1034C, symBinAddr: 0x100012484, symSize: 0x2D8 }
  - { offsetInCU: 0x1A241, offset: 0x1A241, size: 0x8, addend: 0x0, symName: __ZNKSt3__117__compressed_pairIP7mod_intILx998244353EENS_9allocatorIS2_EEE6secondB8ue170006Ev, symObjAddr: 0x10B48, symBinAddr: 0x100012C80, symSize: 0xD4 }
  - { offsetInCU: 0x1A2E2, offset: 0x1A2E2, size: 0x8, addend: 0x0, symName: __ZNSt3__117__compressed_pairIP7mod_intILx998244353EERNS_9allocatorIS2_EEEC2B8ue170006IDnS6_EEOT_OT0_, symObjAddr: 0x1102C, symBinAddr: 0x100013164, symSize: 0xFC }
  - { offsetInCU: 0x1A393, offset: 0x1A393, size: 0x8, addend: 0x0, symName: __ZNSt3__117__compressed_pairIP7mod_intILx998244353EERNS_9allocatorIS2_EEE6secondB8ue170006Ev, symObjAddr: 0x11128, symBinAddr: 0x100013260, symSize: 0x100 }
  - { offsetInCU: 0x1A511, offset: 0x1A511, size: 0x8, addend: 0x0, symName: __ZNKSt3__116reverse_iteratorIP7mod_intILx998244353EEEdeB8ue170006Ev, symObjAddr: 0x11BA4, symBinAddr: 0x100013CDC, symSize: 0xC0 }
  - { offsetInCU: 0x1A55E, offset: 0x1A55E, size: 0x8, addend: 0x0, symName: __ZNSt3__114__split_bufferI7mod_intILx998244353EERNS_9allocatorIS2_EEE5clearB8ue170006Ev, symObjAddr: 0x11D58, symBinAddr: 0x100013E90, symSize: 0xAC }
  - { offsetInCU: 0x1A5B2, offset: 0x1A5B2, size: 0x8, addend: 0x0, symName: __ZNKSt3__114__split_bufferI7mod_intILx998244353EERNS_9allocatorIS2_EEE8capacityB8ue170006Ev, symObjAddr: 0x11E04, symBinAddr: 0x100013F3C, symSize: 0x8C }
  - { offsetInCU: 0x1A60E, offset: 0x1A60E, size: 0x8, addend: 0x0, symName: __ZNSt3__114__split_bufferI7mod_intILx998244353EERNS_9allocatorIS2_EEE17__destruct_at_endB8ue170006EPS2_NS_17integral_constantIbLb0EEE, symObjAddr: 0x11E90, symBinAddr: 0x100013FC8, symSize: 0x100 }
  - { offsetInCU: 0x1A662, offset: 0x1A662, size: 0x8, addend: 0x0, symName: __ZNKSt3__114__split_bufferI7mod_intILx998244353EERNS_9allocatorIS2_EEE9__end_capB8ue170006Ev, symObjAddr: 0x11F90, symBinAddr: 0x1000140C8, symSize: 0x70 }
  - { offsetInCU: 0x1A697, offset: 0x1A697, size: 0x8, addend: 0x0, symName: __ZNKSt3__117__compressed_pairIP7mod_intILx998244353EERNS_9allocatorIS2_EEE5firstB8ue170006Ev, symObjAddr: 0x12000, symBinAddr: 0x100014138, symSize: 0xCC }
  - { offsetInCU: 0x1A79D, offset: 0x1A79D, size: 0x8, addend: 0x0, symName: __ZNSt3__117__compressed_pairIP3BITI7mod_intILx998244353EEENS_9allocatorIS4_EEEC2B8ue170006IDnNS_18__default_init_tagEEEOT_OT0_, symObjAddr: 0x12938, symBinAddr: 0x100014A70, symSize: 0xB0 }
  - { offsetInCU: 0x1A81C, offset: 0x1A81C, size: 0x8, addend: 0x0, symName: __ZNSt3__16vectorI3BITI7mod_intILx998244353EEENS_9allocatorIS4_EEE11__vallocateB8ue170006Em, symObjAddr: 0x1240C, symBinAddr: 0x100014544, symSize: 0x1A0 }
  - { offsetInCU: 0x1A907, offset: 0x1A907, size: 0x8, addend: 0x0, symName: __ZNSt3__16vectorI3BITI7mod_intILx998244353EEENS_9allocatorIS4_EEE18__construct_at_endEmRKS4_, symObjAddr: 0x125AC, symBinAddr: 0x1000146E4, symSize: 0x344 }
  - { offsetInCU: 0x1AA88, offset: 0x1AA88, size: 0x8, addend: 0x0, symName: __ZNSt3__128__exception_guard_exceptionsINS_6vectorI3BITI7mod_intILx998244353EEENS_9allocatorIS5_EEE16__destroy_vectorEED2B8ue170006Ev, symObjAddr: 0x1489C, symBinAddr: 0x1000169D4, symSize: 0xE4 }
  - { offsetInCU: 0x1AAC7, offset: 0x1AAC7, size: 0x8, addend: 0x0, symName: __ZNSt3__128__exception_guard_exceptionsINS_6vectorI3BITI7mod_intILx998244353EEENS_9allocatorIS5_EEE16__destroy_vectorEED1B8ue170006Ev, symObjAddr: 0x128F0, symBinAddr: 0x100014A28, symSize: 0x48 }
  - { offsetInCU: 0x1AB25, offset: 0x1AB25, size: 0x8, addend: 0x0, symName: __ZNKSt3__16vectorI3BITI7mod_intILx998244353EEENS_9allocatorIS4_EEE7__allocB8ue170006Ev, symObjAddr: 0x12DDC, symBinAddr: 0x100014F14, symSize: 0x70 }
  - { offsetInCU: 0x1AB55, offset: 0x1AB55, size: 0x8, addend: 0x0, symName: __ZNSt3__16vectorI3BITI7mod_intILx998244353EEENS_9allocatorIS4_EEE7__allocB8ue170006Ev, symObjAddr: 0x12AEC, symBinAddr: 0x100014C24, symSize: 0x70 }
  - { offsetInCU: 0x1AB85, offset: 0x1AB85, size: 0x8, addend: 0x0, symName: __ZNSt3__117__compressed_pairIP3BITI7mod_intILx998244353EEENS_9allocatorIS4_EEE5firstB8ue170006Ev, symObjAddr: 0x12FF4, symBinAddr: 0x10001512C, symSize: 0xCC }
  - { offsetInCU: 0x1ABC9, offset: 0x1ABC9, size: 0x8, addend: 0x0, symName: __ZNKSt3__16vectorI3BITI7mod_intILx998244353EEENS_9allocatorIS4_EEE14__annotate_newB8ue170006Em, symObjAddr: 0x12B5C, symBinAddr: 0x100014C94, symSize: 0x280 }
  - { offsetInCU: 0x1ACBF, offset: 0x1ACBF, size: 0x8, addend: 0x0, symName: __ZNKSt3__16vectorI3BITI7mod_intILx998244353EEENS_9allocatorIS4_EEE20__throw_length_errorB8ue170006Ev, symObjAddr: 0x12A64, symBinAddr: 0x100014B9C, symSize: 0x44 }
  - { offsetInCU: 0x1ADB8, offset: 0x1ADB8, size: 0x8, addend: 0x0, symName: __ZNSt3__16vectorI3BITI7mod_intILx998244353EEENS_9allocatorIS4_EEE21_ConstructTransactionC2B8ue170006ERS7_m, symObjAddr: 0x132D0, symBinAddr: 0x100015408, symSize: 0x194 }
  - { offsetInCU: 0x1AE10, offset: 0x1AE10, size: 0x8, addend: 0x0, symName: __ZNSt3__117__compressed_pairIP3BITI7mod_intILx998244353EEENS_9allocatorIS4_EEE6secondB8ue170006Ev, symObjAddr: 0x12F20, symBinAddr: 0x100015058, symSize: 0xD4 }
  - { offsetInCU: 0x1AE53, offset: 0x1AE53, size: 0x8, addend: 0x0, symName: __ZNSt3__19allocatorI3BITI7mod_intILx998244353EEEE9constructB8ue170006IS4_JRKS4_EEEvPT_DpOT0_, symObjAddr: 0x137C8, symBinAddr: 0x100015900, symSize: 0x104 }
  - { offsetInCU: 0x1AF23, offset: 0x1AF23, size: 0x8, addend: 0x0, symName: __ZNSt3__16vectorI3BITI7mod_intILx998244353EEENS_9allocatorIS4_EEE21_ConstructTransactionD2B8ue170006Ev, symObjAddr: 0x1442C, symBinAddr: 0x100016564, symSize: 0x214 }
  - { offsetInCU: 0x1AF5B, offset: 0x1AF5B, size: 0x8, addend: 0x0, symName: __ZNSt3__16vectorI3BITI7mod_intILx998244353EEENS_9allocatorIS4_EEE21_ConstructTransactionD1B8ue170006Ev, symObjAddr: 0x13288, symBinAddr: 0x1000153C0, symSize: 0x48 }
  - { offsetInCU: 0x1AFBA, offset: 0x1AFBA, size: 0x8, addend: 0x0, symName: __ZNSt3__122__compressed_pair_elemINS_9allocatorI3BITI7mod_intILx998244353EEEEELi1ELb1EEC2B8ue170006ENS_18__default_init_tagE, symObjAddr: 0x129E8, symBinAddr: 0x100014B20, symSize: 0x7C }
  - { offsetInCU: 0x1B0E6, offset: 0x1B0E6, size: 0x8, addend: 0x0, symName: __ZNKSt3__16vectorI3BITI7mod_intILx998244353EEENS_9allocatorIS4_EEE8capacityB8ue170006Ev, symObjAddr: 0x130C0, symBinAddr: 0x1000151F8, symSize: 0x8C }
  - { offsetInCU: 0x1B121, offset: 0x1B121, size: 0x8, addend: 0x0, symName: __ZNKSt3__117__compressed_pairIP3BITI7mod_intILx998244353EEENS_9allocatorIS4_EEE6secondB8ue170006Ev, symObjAddr: 0x12E4C, symBinAddr: 0x100014F84, symSize: 0xD4 }
  - { offsetInCU: 0x1B1AC, offset: 0x1B1AC, size: 0x8, addend: 0x0, symName: __ZNKSt3__16vectorI3BITI7mod_intILx998244353EEENS_9allocatorIS4_EEE9__end_capB8ue170006Ev, symObjAddr: 0x1314C, symBinAddr: 0x100015284, symSize: 0x70 }
  - { offsetInCU: 0x1B1E1, offset: 0x1B1E1, size: 0x8, addend: 0x0, symName: __ZNKSt3__117__compressed_pairIP3BITI7mod_intILx998244353EEENS_9allocatorIS4_EEE5firstB8ue170006Ev, symObjAddr: 0x131BC, symBinAddr: 0x1000152F4, symSize: 0xCC }
  - { offsetInCU: 0x1B241, offset: 0x1B241, size: 0x8, addend: 0x0, symName: __ZNKSt3__16vectorI3BITI7mod_intILx998244353EEENS_9allocatorIS4_EEE19__annotate_increaseB8ue170006Em, symObjAddr: 0x13464, symBinAddr: 0x10001559C, symSize: 0x2D8 }
  - { offsetInCU: 0x1B34B, offset: 0x1B34B, size: 0x8, addend: 0x0, symName: __ZNKSt3__16vectorI3BITI7mod_intILx998244353EEENS_9allocatorIS4_EEE4sizeB8ue170006Ev, symObjAddr: 0x1373C, symBinAddr: 0x100015874, symSize: 0x8C }
  - { offsetInCU: 0x1B3DC, offset: 0x1B3DC, size: 0x8, addend: 0x0, symName: __ZNSt3__16vectorI7mod_intILx998244353EENS_9allocatorIS2_EEEC2ERKS5_, symObjAddr: 0x138CC, symBinAddr: 0x100015A04, symSize: 0x240 }
  - { offsetInCU: 0x1B519, offset: 0x1B519, size: 0x8, addend: 0x0, symName: __ZNSt3__117__compressed_pairIP7mod_intILx998244353EENS_9allocatorIS2_EEEC2B8ue170006IDnS5_EEOT_OT0_, symObjAddr: 0x13DC0, symBinAddr: 0x100015EF8, symSize: 0xB0 }
  - { offsetInCU: 0x1B58A, offset: 0x1B58A, size: 0x8, addend: 0x0, symName: __ZNSt3__16vectorI7mod_intILx998244353EENS_9allocatorIS2_EEE16__init_with_sizeB8ue170006IPS2_S7_EEvT_T0_m, symObjAddr: 0x13B0C, symBinAddr: 0x100015C44, symSize: 0x2B4 }
  - { offsetInCU: 0x1B751, offset: 0x1B751, size: 0x8, addend: 0x0, symName: __ZNSt3__16vectorI7mod_intILx998244353EENS_9allocatorIS2_EEE11__vallocateB8ue170006Em, symObjAddr: 0x13E70, symBinAddr: 0x100015FA8, symSize: 0x1A0 }
  - { offsetInCU: 0x1B83C, offset: 0x1B83C, size: 0x8, addend: 0x0, symName: __ZNSt3__16vectorI7mod_intILx998244353EENS_9allocatorIS2_EEE18__construct_at_endIPS2_S7_EEvT_T0_m, symObjAddr: 0x14010, symBinAddr: 0x100016148, symSize: 0x2F0 }
  - { offsetInCU: 0x1BB75, offset: 0x1BB75, size: 0x8, addend: 0x0, symName: __ZNSt3__128__exception_guard_exceptionsINS_6vectorI7mod_intILx998244353EENS_9allocatorIS3_EEE16__destroy_vectorEED2B8ue170006Ev, symObjAddr: 0x14348, symBinAddr: 0x100016480, symSize: 0xE4 }
  - { offsetInCU: 0x1BBB4, offset: 0x1BBB4, size: 0x8, addend: 0x0, symName: __ZNSt3__128__exception_guard_exceptionsINS_6vectorI7mod_intILx998244353EENS_9allocatorIS3_EEE16__destroy_vectorEED1B8ue170006Ev, symObjAddr: 0x14300, symBinAddr: 0x100016438, symSize: 0x48 }
  - { offsetInCU: 0x1BC7F, offset: 0x1BC7F, size: 0x8, addend: 0x0, symName: __ZNKSt3__16vectorI3BITI7mod_intILx998244353EEENS_9allocatorIS4_EEE17__annotate_shrinkB8ue170006Em, symObjAddr: 0x14640, symBinAddr: 0x100016778, symSize: 0x25C }
  - { offsetInCU: 0x1BDE3, offset: 0x1BDE3, size: 0x8, addend: 0x0, symName: __ZNSt3__16vectorI3BITI7mod_intILx998244353EEENS_9allocatorIS4_EEE22__base_destruct_at_endB8ue170006EPS4_, symObjAddr: 0x14E30, symBinAddr: 0x100016F68, symSize: 0x100 }
  - { offsetInCU: 0x1BE76, offset: 0x1BE76, size: 0x8, addend: 0x0, symName: __ZNKSt3__16vectorI3BITI7mod_intILx998244353EEENS_9allocatorIS4_EEE17__annotate_deleteB8ue170006Ev, symObjAddr: 0x14BC0, symBinAddr: 0x100016CF8, symSize: 0x270 }
  - { offsetInCU: 0x1BF9A, offset: 0x1BF9A, size: 0x8, addend: 0x0, symName: __ZNSt3__19allocatorI3BITI7mod_intILx998244353EEEE7destroyB8ue170006EPS4_, symObjAddr: 0x14F30, symBinAddr: 0x100017068, symSize: 0x1F4 }
  - { offsetInCU: 0x1C110, offset: 0x1C110, size: 0x8, addend: 0x0, symName: __ZNSt3__117__compressed_pairIPNS_6vectorI3BITI7mod_intILx998244353EEENS_9allocatorIS5_EEEENS6_IS8_EEEC2B8ue170006IDnNS_18__default_init_tagEEEOT_OT0_, symObjAddr: 0x159AC, symBinAddr: 0x100017AE4, symSize: 0xB0 }
  - { offsetInCU: 0x1C18F, offset: 0x1C18F, size: 0x8, addend: 0x0, symName: __ZNSt3__16vectorINS0_I3BITI7mod_intILx998244353EEENS_9allocatorIS4_EEEENS5_IS7_EEE11__vallocateB8ue170006Em, symObjAddr: 0x15464, symBinAddr: 0x10001759C, symSize: 0x1BC }
  - { offsetInCU: 0x1C27A, offset: 0x1C27A, size: 0x8, addend: 0x0, symName: __ZNSt3__16vectorINS0_I3BITI7mod_intILx998244353EEENS_9allocatorIS4_EEEENS5_IS7_EEE18__construct_at_endEmRKS7_, symObjAddr: 0x15620, symBinAddr: 0x100017758, symSize: 0x344 }
  - { offsetInCU: 0x1C3CF, offset: 0x1C3CF, size: 0x8, addend: 0x0, symName: __ZNSt3__128__exception_guard_exceptionsINS_6vectorINS1_I3BITI7mod_intILx998244353EEENS_9allocatorIS5_EEEENS6_IS8_EEE16__destroy_vectorEED2B8ue170006Ev, symObjAddr: 0x18080, symBinAddr: 0x10001A1B8, symSize: 0xE4 }
  - { offsetInCU: 0x1C40E, offset: 0x1C40E, size: 0x8, addend: 0x0, symName: __ZNSt3__128__exception_guard_exceptionsINS_6vectorINS1_I3BITI7mod_intILx998244353EEENS_9allocatorIS5_EEEENS6_IS8_EEE16__destroy_vectorEED1B8ue170006Ev, symObjAddr: 0x15964, symBinAddr: 0x100017A9C, symSize: 0x48 }
  - { offsetInCU: 0x1C472, offset: 0x1C472, size: 0x8, addend: 0x0, symName: __ZNKSt3__16vectorINS0_I3BITI7mod_intILx998244353EEENS_9allocatorIS4_EEEENS5_IS7_EEE7__allocB8ue170006Ev, symObjAddr: 0x15E88, symBinAddr: 0x100017FC0, symSize: 0x70 }
  - { offsetInCU: 0x1C4A7, offset: 0x1C4A7, size: 0x8, addend: 0x0, symName: __ZNSt3__16vectorINS0_I3BITI7mod_intILx998244353EEENS_9allocatorIS4_EEEENS5_IS7_EEE7__allocB8ue170006Ev, symObjAddr: 0x15B70, symBinAddr: 0x100017CA8, symSize: 0x70 }
  - { offsetInCU: 0x1C4D7, offset: 0x1C4D7, size: 0x8, addend: 0x0, symName: __ZNSt3__117__compressed_pairIPNS_6vectorI3BITI7mod_intILx998244353EEENS_9allocatorIS5_EEEENS6_IS8_EEE5firstB8ue170006Ev, symObjAddr: 0x160A0, symBinAddr: 0x1000181D8, symSize: 0xCC }
  - { offsetInCU: 0x1C51B, offset: 0x1C51B, size: 0x8, addend: 0x0, symName: __ZNKSt3__16vectorINS0_I3BITI7mod_intILx998244353EEENS_9allocatorIS4_EEEENS5_IS7_EEE14__annotate_newB8ue170006Em, symObjAddr: 0x15BE0, symBinAddr: 0x100017D18, symSize: 0x2A8 }
  - { offsetInCU: 0x1C611, offset: 0x1C611, size: 0x8, addend: 0x0, symName: __ZNKSt3__16vectorINS0_I3BITI7mod_intILx998244353EEENS_9allocatorIS4_EEEENS5_IS7_EEE20__throw_length_errorB8ue170006Ev, symObjAddr: 0x15AD8, symBinAddr: 0x100017C10, symSize: 0x44 }
  - { offsetInCU: 0x1C6C9, offset: 0x1C6C9, size: 0x8, addend: 0x0, symName: __ZNSt3__16vectorINS0_I3BITI7mod_intILx998244353EEENS_9allocatorIS4_EEEENS5_IS7_EEE21_ConstructTransactionC2B8ue170006ERS9_m, symObjAddr: 0x163DC, symBinAddr: 0x100018514, symSize: 0x1A4 }
  - { offsetInCU: 0x1C721, offset: 0x1C721, size: 0x8, addend: 0x0, symName: __ZNSt3__117__compressed_pairIPNS_6vectorI3BITI7mod_intILx998244353EEENS_9allocatorIS5_EEEENS6_IS8_EEE6secondB8ue170006Ev, symObjAddr: 0x15FCC, symBinAddr: 0x100018104, symSize: 0xD4 }
  - { offsetInCU: 0x1C764, offset: 0x1C764, size: 0x8, addend: 0x0, symName: __ZNSt3__116allocator_traitsINS_9allocatorINS_6vectorI3BITI7mod_intILx998244353EEENS1_IS6_EEEEEEE9constructB8ue170006IS8_JRKS8_EvEEvRS9_PT_DpOT0_, symObjAddr: 0x16340, symBinAddr: 0x100018478, symSize: 0x54 }
  - { offsetInCU: 0x1C80A, offset: 0x1C80A, size: 0x8, addend: 0x0, symName: __ZNSt3__16vectorINS0_I3BITI7mod_intILx998244353EEENS_9allocatorIS4_EEEENS5_IS7_EEE21_ConstructTransactionD2B8ue170006Ev, symObjAddr: 0x17BDC, symBinAddr: 0x100019D14, symSize: 0x220 }
  - { offsetInCU: 0x1C842, offset: 0x1C842, size: 0x8, addend: 0x0, symName: __ZNSt3__16vectorINS0_I3BITI7mod_intILx998244353EEENS_9allocatorIS4_EEEENS5_IS7_EEE21_ConstructTransactionD1B8ue170006Ev, symObjAddr: 0x16394, symBinAddr: 0x1000184CC, symSize: 0x48 }
  - { offsetInCU: 0x1C8A1, offset: 0x1C8A1, size: 0x8, addend: 0x0, symName: __ZNSt3__122__compressed_pair_elemINS_9allocatorINS_6vectorI3BITI7mod_intILx998244353EEENS1_IS6_EEEEEELi1ELb1EEC2B8ue170006ENS_18__default_init_tagE, symObjAddr: 0x15A5C, symBinAddr: 0x100017B94, symSize: 0x7C }
  - { offsetInCU: 0x1C9CD, offset: 0x1C9CD, size: 0x8, addend: 0x0, symName: __ZNKSt3__16vectorINS0_I3BITI7mod_intILx998244353EEENS_9allocatorIS4_EEEENS5_IS7_EEE8capacityB8ue170006Ev, symObjAddr: 0x1616C, symBinAddr: 0x1000182A4, symSize: 0x98 }
  - { offsetInCU: 0x1CA08, offset: 0x1CA08, size: 0x8, addend: 0x0, symName: __ZNKSt3__117__compressed_pairIPNS_6vectorI3BITI7mod_intILx998244353EEENS_9allocatorIS5_EEEENS6_IS8_EEE6secondB8ue170006Ev, symObjAddr: 0x15EF8, symBinAddr: 0x100018030, symSize: 0xD4 }
  - { offsetInCU: 0x1CA93, offset: 0x1CA93, size: 0x8, addend: 0x0, symName: __ZNKSt3__16vectorINS0_I3BITI7mod_intILx998244353EEENS_9allocatorIS4_EEEENS5_IS7_EEE9__end_capB8ue170006Ev, symObjAddr: 0x16204, symBinAddr: 0x10001833C, symSize: 0x70 }
  - { offsetInCU: 0x1CAC8, offset: 0x1CAC8, size: 0x8, addend: 0x0, symName: __ZNKSt3__117__compressed_pairIPNS_6vectorI3BITI7mod_intILx998244353EEENS_9allocatorIS5_EEEENS6_IS8_EEE5firstB8ue170006Ev, symObjAddr: 0x16274, symBinAddr: 0x1000183AC, symSize: 0xCC }
  - { offsetInCU: 0x1CB90, offset: 0x1CB90, size: 0x8, addend: 0x0, symName: __ZNSt3__16vectorI3BITI7mod_intILx998244353EEENS_9allocatorIS4_EEEC2ERKS7_, symObjAddr: 0x16924, symBinAddr: 0x100018A5C, symSize: 0x240 }
  - { offsetInCU: 0x1CC6F, offset: 0x1CC6F, size: 0x8, addend: 0x0, symName: __ZNKSt3__16vectorINS0_I3BITI7mod_intILx998244353EEENS_9allocatorIS4_EEEENS5_IS7_EEE19__annotate_increaseB8ue170006Em, symObjAddr: 0x16580, symBinAddr: 0x1000186B8, symSize: 0x30C }
  - { offsetInCU: 0x1CD79, offset: 0x1CD79, size: 0x8, addend: 0x0, symName: __ZNKSt3__16vectorINS0_I3BITI7mod_intILx998244353EEENS_9allocatorIS4_EEEENS5_IS7_EEE4sizeB8ue170006Ev, symObjAddr: 0x1688C, symBinAddr: 0x1000189C4, symSize: 0x98 }
  - { offsetInCU: 0x1CDFE, offset: 0x1CDFE, size: 0x8, addend: 0x0, symName: __ZNSt3__117__compressed_pairIP3BITI7mod_intILx998244353EEENS_9allocatorIS4_EEEC2B8ue170006IDnS7_EEOT_OT0_, symObjAddr: 0x16E18, symBinAddr: 0x100018F50, symSize: 0xB0 }
  - { offsetInCU: 0x1CE6F, offset: 0x1CE6F, size: 0x8, addend: 0x0, symName: __ZNSt3__16vectorI3BITI7mod_intILx998244353EEENS_9allocatorIS4_EEE16__init_with_sizeB8ue170006IPS4_S9_EEvT_T0_m, symObjAddr: 0x16B64, symBinAddr: 0x100018C9C, symSize: 0x2B4 }
  - { offsetInCU: 0x1CFB6, offset: 0x1CFB6, size: 0x8, addend: 0x0, symName: __ZNSt3__16vectorI3BITI7mod_intILx998244353EEENS_9allocatorIS4_EEE18__construct_at_endIPS4_S9_EEvT_T0_m, symObjAddr: 0x16EC8, symBinAddr: 0x100019000, symSize: 0x2F8 }
  - { offsetInCU: 0x1D2A3, offset: 0x1D2A3, size: 0x8, addend: 0x0, symName: __ZNSt3__19allocatorI3BITI7mod_intILx998244353EEEE9constructB8ue170006IS4_JRS4_EEEvPT_DpOT0_, symObjAddr: 0x17614, symBinAddr: 0x10001974C, symSize: 0x104 }
  - { offsetInCU: 0x1D373, offset: 0x1D373, size: 0x8, addend: 0x0, symName: __ZNSt3__128__exception_guard_exceptionsINS_29_AllocatorDestroyRangeReverseINS_9allocatorI3BITI7mod_intILx998244353EEEEEPS6_EEED2B8ue170006Ev, symObjAddr: 0x17718, symBinAddr: 0x100019850, symSize: 0xF4 }
  - { offsetInCU: 0x1D3B2, offset: 0x1D3B2, size: 0x8, addend: 0x0, symName: __ZNSt3__128__exception_guard_exceptionsINS_29_AllocatorDestroyRangeReverseINS_9allocatorI3BITI7mod_intILx998244353EEEEEPS6_EEED1B8ue170006Ev, symObjAddr: 0x175CC, symBinAddr: 0x100019704, symSize: 0x48 }
  - { offsetInCU: 0x1D3E2, offset: 0x1D3E2, size: 0x8, addend: 0x0, symName: __ZNKSt3__129_AllocatorDestroyRangeReverseINS_9allocatorI3BITI7mod_intILx998244353EEEEEPS5_EclB8ue170006Ev, symObjAddr: 0x1780C, symBinAddr: 0x100019944, symSize: 0x118 }
  - { offsetInCU: 0x1D468, offset: 0x1D468, size: 0x8, addend: 0x0, symName: __ZNKSt3__116reverse_iteratorIP3BITI7mod_intILx998244353EEEEdeB8ue170006Ev, symObjAddr: 0x17B1C, symBinAddr: 0x100019C54, symSize: 0xC0 }
  - { offsetInCU: 0x1D49F, offset: 0x1D49F, size: 0x8, addend: 0x0, symName: __ZNKSt3__16vectorINS0_I3BITI7mod_intILx998244353EEENS_9allocatorIS4_EEEENS5_IS7_EEE17__annotate_shrinkB8ue170006Em, symObjAddr: 0x17DFC, symBinAddr: 0x100019F34, symSize: 0x284 }
  - { offsetInCU: 0x1D603, offset: 0x1D603, size: 0x8, addend: 0x0, symName: __ZNSt3__16vectorINS0_I3BITI7mod_intILx998244353EEENS_9allocatorIS4_EEEENS5_IS7_EEE22__base_destruct_at_endB8ue170006EPS7_, symObjAddr: 0x1863C, symBinAddr: 0x10001A774, symSize: 0x100 }
  - { offsetInCU: 0x1D696, offset: 0x1D696, size: 0x8, addend: 0x0, symName: __ZNKSt3__16vectorINS0_I3BITI7mod_intILx998244353EEENS_9allocatorIS4_EEEENS5_IS7_EEE17__annotate_deleteB8ue170006Ev, symObjAddr: 0x183A4, symBinAddr: 0x10001A4DC, symSize: 0x298 }
  - { offsetInCU: 0x1D7BA, offset: 0x1D7BA, size: 0x8, addend: 0x0, symName: __ZNSt3__19allocatorINS_6vectorI3BITI7mod_intILx998244353EEENS0_IS5_EEEEE7destroyB8ue170006EPS7_, symObjAddr: 0x1873C, symBinAddr: 0x10001A874, symSize: 0x1D4 }
...
