---
triple:          'arm64-apple-darwin'
binary-path:     '/Users/eric/Workspace/compprog/codeforces/contest/998virtual/E_Graph_Composition.bin'
relocations:
  - { offsetInCU: 0x3B, offset: 0x3B, size: 0x8, addend: 0x0, symName: _.str, symObjAddr: 0x148E0, symBinAddr: 0x100016F40, symSize: 0x0 }
  - { offsetInCU: 0x6B, offset: 0x6B, size: 0x8, addend: 0x0, symName: _.str.1, symObjAddr: 0x14900, symBinAddr: 0x100016F60, symSize: 0x0 }
  - { offsetInCU: 0x7C, offset: 0x7C, size: 0x8, addend: 0x0, symName: _.str.2, symObjAddr: 0x14920, symBinAddr: 0x100016F80, symSize: 0x0 }
  - { offsetInCU: 0x8D, offset: 0x8D, size: 0x8, addend: 0x0, symName: _.str.3, symObjAddr: 0x14AA0, symBinAddr: 0x100017100, symSize: 0x0 }
  - { offsetInCU: 0xAA, offset: 0xAA, size: 0x8, addend: 0x0, symName: _.str.4, symObjAddr: 0x14940, symBinAddr: 0x100016FA0, symSize: 0x0 }
  - { offsetInCU: 0xBC, offset: 0xBC, size: 0x8, addend: 0x0, symName: _.str.13, symObjAddr: 0x14960, symBinAddr: 0x100016FC0, symSize: 0x0 }
  - { offsetInCU: 0xDA, offset: 0xDA, size: 0x8, addend: 0x0, symName: _.str.26, symObjAddr: 0x14980, symBinAddr: 0x100016FE0, symSize: 0x0 }
  - { offsetInCU: 0x4651, offset: 0x4651, size: 0x8, addend: 0x0, symName: __ZNSt3__124__put_character_sequenceB8ue170006IcNS_11char_traitsIcEEEERNS_13basic_ostreamIT_T0_EES7_PKS4_m, symObjAddr: 0x7818, symBinAddr: 0x100009B54, symSize: 0x910 }
  - { offsetInCU: 0x8FA4, offset: 0x8FA4, size: 0x8, addend: 0x0, symName: __ZNSt3__1lsB8ue170006IcNS_11char_traitsIcEENS_9allocatorIcEEEERNS_13basic_ostreamIT_T0_EES9_RKNS_12basic_stringIS6_S7_T1_EE, symObjAddr: 0xB8C, symBinAddr: 0x100002EC8, symSize: 0x48 }
  - { offsetInCU: 0x905E, offset: 0x905E, size: 0x8, addend: 0x0, symName: __ZNSt3__1neB8ue170006ERKNS_14__bit_iteratorINS_6vectorIbNS_9allocatorIbEEEELb0ELm0EEES7_, symObjAddr: 0x1104, symBinAddr: 0x100003440, symSize: 0xC4 }
  - { offsetInCU: 0x98EB, offset: 0x98EB, size: 0x8, addend: 0x0, symName: __ZNSt3__116__tree_next_iterB8ue170006IPNS_15__tree_end_nodeIPNS_16__tree_node_baseIPvEEEES5_EET_T0_, symObjAddr: 0xED1C, symBinAddr: 0x100011058, symSize: 0x41C }
  - { offsetInCU: 0x996C, offset: 0x996C, size: 0x8, addend: 0x0, symName: __ZNSt3__14iotaB8ue170006INS_11__wrap_iterIPiEEiEEvT_S4_T0_, symObjAddr: 0x44E4, symBinAddr: 0x100006820, symSize: 0x2C8 }
  - { offsetInCU: 0x9A6F, offset: 0x9A6F, size: 0x8, addend: 0x0, symName: __ZNSt3__1eqB8ue170006IPiEEbRKNS_11__wrap_iterIT_EES6_, symObjAddr: 0x756C, symBinAddr: 0x1000098A8, symSize: 0x58 }
  - { offsetInCU: 0x9AF1, offset: 0x9AF1, size: 0x8, addend: 0x0, symName: __ZNSt3__119__allocate_at_leastB8ue170006INS_9allocatorIiEEEENS_19__allocation_resultINS_16allocator_traitsIT_E7pointerEEERS5_m, symObjAddr: 0x5148, symBinAddr: 0x100007484, symSize: 0x44 }
  - { offsetInCU: 0x9B8F, offset: 0x9B8F, size: 0x8, addend: 0x0, symName: __ZNSt3__120__throw_length_errorB8ue170006EPKc, symObjAddr: 0x55C0, symBinAddr: 0x1000078FC, symSize: 0x78 }
  - { offsetInCU: 0x9CC5, offset: 0x9CC5, size: 0x8, addend: 0x0, symName: __ZNSt3__116__pad_and_outputB8ue170006IcNS_11char_traitsIcEEEENS_19ostreambuf_iteratorIT_T0_EES6_PKS4_S8_S8_RNS_8ios_baseES4_, symObjAddr: 0x8128, symBinAddr: 0x10000A464, symSize: 0x800 }
  - { offsetInCU: 0xA3BC, offset: 0xA3BC, size: 0x8, addend: 0x0, symName: __ZNSt3__19use_facetB8ue170006INS_5ctypeIcEEEERKT_RKNS_6localeE, symObjAddr: 0x9948, symBinAddr: 0x10000BC84, symSize: 0x100 }
  - { offsetInCU: 0xA411, offset: 0xA411, size: 0x8, addend: 0x0, symName: __ZNSt3__127__tree_balance_after_insertB8ue170006IPNS_16__tree_node_baseIPvEEEEvT_S5_, symObjAddr: 0xC5C0, symBinAddr: 0x10000E8FC, symSize: 0x11B8 }
  - { offsetInCU: 0xA6B0, offset: 0xA6B0, size: 0x8, addend: 0x0, symName: __ZNSt3__119__tree_right_rotateB8ue170006IPNS_16__tree_node_baseIPvEEEEvT_, symObjAddr: 0xDE8C, symBinAddr: 0x1000101C8, symSize: 0x834 }
  - { offsetInCU: 0xA762, offset: 0xA762, size: 0x8, addend: 0x0, symName: __ZNSt3__118__tree_left_rotateB8ue170006IPNS_16__tree_node_baseIPvEEEEvT_, symObjAddr: 0xD884, symBinAddr: 0x10000FBC0, symSize: 0x608 }
  - { offsetInCU: 0xA839, offset: 0xA839, size: 0x8, addend: 0x0, symName: __ZNSt3__113__tree_removeB8ue170006IPNS_16__tree_node_baseIPvEEEEvT_S5_, symObjAddr: 0xF734, symBinAddr: 0x100011A70, symSize: 0x3EC8 }
  - { offsetInCU: 0xAB91, offset: 0xAB91, size: 0x8, addend: 0x0, symName: __ZNSt3__111__tree_nextB8ue170006IPNS_16__tree_node_baseIPvEEEET_S5_, symObjAddr: 0x135FC, symBinAddr: 0x100015938, symSize: 0x3E0 }
  - { offsetInCU: 0xAF8F, offset: 0xAF8F, size: 0x8, addend: 0x0, symName: __ZSt28__throw_bad_array_new_lengthB8ue170006v, symObjAddr: 0x56E4, symBinAddr: 0x100007A20, symSize: 0x5C }
  - { offsetInCU: 0xE09C, offset: 0xE09C, size: 0x8, addend: 0x0, symName: __ZN14__DEBUG_UTIL__5printEPKc, symObjAddr: 0x0, symBinAddr: 0x10000233C, symSize: 0x30 }
  - { offsetInCU: 0xE128, offset: 0xE128, size: 0x8, addend: 0x0, symName: __ZN14__DEBUG_UTIL__5printEb, symObjAddr: 0x30, symBinAddr: 0x10000236C, symSize: 0x28 }
  - { offsetInCU: 0xE182, offset: 0xE182, size: 0x8, addend: 0x0, symName: __ZN14__DEBUG_UTIL__5printEc, symObjAddr: 0x58, symBinAddr: 0x100002394, symSize: 0x21C }
  - { offsetInCU: 0xE258, offset: 0xE258, size: 0x8, addend: 0x0, symName: __ZN14__DEBUG_UTIL__5printEs, symObjAddr: 0x274, symBinAddr: 0x1000025B0, symSize: 0xA8 }
  - { offsetInCU: 0xE281, offset: 0xE281, size: 0x8, addend: 0x0, symName: __ZN14__DEBUG_UTIL__5printEt, symObjAddr: 0x31C, symBinAddr: 0x100002658, symSize: 0xA8 }
  - { offsetInCU: 0xE2AA, offset: 0xE2AA, size: 0x8, addend: 0x0, symName: __ZN14__DEBUG_UTIL__5printEi, symObjAddr: 0x3C4, symBinAddr: 0x100002700, symSize: 0xA8 }
  - { offsetInCU: 0xE2D3, offset: 0xE2D3, size: 0x8, addend: 0x0, symName: __ZN14__DEBUG_UTIL__5printEj, symObjAddr: 0x46C, symBinAddr: 0x1000027A8, symSize: 0xA8 }
  - { offsetInCU: 0xE2FC, offset: 0xE2FC, size: 0x8, addend: 0x0, symName: __ZN14__DEBUG_UTIL__5printEl, symObjAddr: 0x514, symBinAddr: 0x100002850, symSize: 0xA8 }
  - { offsetInCU: 0xE325, offset: 0xE325, size: 0x8, addend: 0x0, symName: __ZN14__DEBUG_UTIL__5printEm, symObjAddr: 0x5BC, symBinAddr: 0x1000028F8, symSize: 0xA8 }
  - { offsetInCU: 0xE34E, offset: 0xE34E, size: 0x8, addend: 0x0, symName: __ZN14__DEBUG_UTIL__5printEx, symObjAddr: 0x664, symBinAddr: 0x1000029A0, symSize: 0xA8 }
  - { offsetInCU: 0xE377, offset: 0xE377, size: 0x8, addend: 0x0, symName: __ZN14__DEBUG_UTIL__5printEy, symObjAddr: 0x70C, symBinAddr: 0x100002A48, symSize: 0xA8 }
  - { offsetInCU: 0xE3A0, offset: 0xE3A0, size: 0x8, addend: 0x0, symName: __ZN14__DEBUG_UTIL__5printEf, symObjAddr: 0x7B4, symBinAddr: 0x100002AF0, symSize: 0xA0 }
  - { offsetInCU: 0xE3C9, offset: 0xE3C9, size: 0x8, addend: 0x0, symName: __ZN14__DEBUG_UTIL__5printEd, symObjAddr: 0x854, symBinAddr: 0x100002B90, symSize: 0xA0 }
  - { offsetInCU: 0xE3F2, offset: 0xE3F2, size: 0x8, addend: 0x0, symName: __ZN14__DEBUG_UTIL__5printEe, symObjAddr: 0x8F4, symBinAddr: 0x100002C30, symSize: 0xA0 }
  - { offsetInCU: 0xE41B, offset: 0xE41B, size: 0x8, addend: 0x0, symName: __ZN14__DEBUG_UTIL__5printENSt3__112basic_stringIcNS0_11char_traitsIcEENS0_9allocatorIcEEEE, symObjAddr: 0x994, symBinAddr: 0x100002CD0, symSize: 0x1F8 }
  - { offsetInCU: 0xE4C5, offset: 0xE4C5, size: 0x8, addend: 0x0, symName: __ZN14__DEBUG_UTIL__5printENSt3__16vectorIbNS0_9allocatorIbEEEE, symObjAddr: 0xBD4, symBinAddr: 0x100002F10, symSize: 0x4E4 }
  - { offsetInCU: 0xE735, offset: 0xE735, size: 0x8, addend: 0x0, symName: __ZN14__DEBUG_UTIL__7printerEPKc, symObjAddr: 0x1518, symBinAddr: 0x100003854, symSize: 0x4 }
  - { offsetInCU: 0xE75A, offset: 0xE75A, size: 0x8, addend: 0x0, symName: __ZN14__DEBUG_UTIL__10printerArrEPKc, symObjAddr: 0x151C, symBinAddr: 0x100003858, symSize: 0x4 }
  - { offsetInCU: 0xE7B5, offset: 0xE7B5, size: 0x8, addend: 0x0, symName: __ZNKSt3__112basic_stringIcNS_11char_traitsIcEENS_9allocatorIcEEE13__get_pointerB8ue170006Ev, symObjAddr: 0x9C40, symBinAddr: 0x10000BF7C, symSize: 0x5C }
  - { offsetInCU: 0xE818, offset: 0xE818, size: 0x8, addend: 0x0, symName: __ZNKSt3__112basic_stringIcNS_11char_traitsIcEENS_9allocatorIcEEE4sizeB8ue170006Ev, symObjAddr: 0x9BE4, symBinAddr: 0x10000BF20, symSize: 0x5C }
  - { offsetInCU: 0xE939, offset: 0xE939, size: 0x8, addend: 0x0, symName: __ZNKSt3__114__bit_iteratorINS_6vectorIbNS_9allocatorIbEEEELb0ELm0EEdeB8ue170006Ev, symObjAddr: 0x11C8, symBinAddr: 0x100003504, symSize: 0xCC }
  - { offsetInCU: 0xE960, offset: 0xE960, size: 0x8, addend: 0x0, symName: __ZNKSt3__115__bit_referenceINS_6vectorIbNS_9allocatorIbEEEELb1EEcvbB8ue170006Ev, symObjAddr: 0x1294, symBinAddr: 0x1000035D0, symSize: 0xE4 }
  - { offsetInCU: 0xE987, offset: 0xE987, size: 0x8, addend: 0x0, symName: __ZNSt3__114__bit_iteratorINS_6vectorIbNS_9allocatorIbEEEELb0ELm0EEppB8ue170006Ev, symObjAddr: 0x1378, symBinAddr: 0x1000036B4, symSize: 0x1A0 }
  - { offsetInCU: 0xE9AE, offset: 0xE9AE, size: 0x8, addend: 0x0, symName: __ZNSt3__16vectorIbNS_9allocatorIbEEE5beginB8ue170006Ev, symObjAddr: 0x10B8, symBinAddr: 0x1000033F4, symSize: 0x4C }
  - { offsetInCU: 0xE9E3, offset: 0xE9E3, size: 0x8, addend: 0x0, symName: __ZNSt3__16vectorIbNS_9allocatorIbEEE11__make_iterB8ue170006Em, symObjAddr: 0x9EA4, symBinAddr: 0x10000C1E0, symSize: 0x168 }
  - { offsetInCU: 0xEC77, offset: 0xEC77, size: 0x8, addend: 0x0, symName: __Z5solvev, symObjAddr: 0x1520, symBinAddr: 0x10000385C, symSize: 0x10DC }
  - { offsetInCU: 0xF5DD, offset: 0xF5DD, size: 0x8, addend: 0x0, symName: __ZNSt3__16__treeINS_4pairIiiEENS_4lessIS2_EENS_9allocatorIS2_EEEC2ERKS4_, symObjAddr: 0xA00C, symBinAddr: 0x10000C348, symSize: 0x258 }
  - { offsetInCU: 0xF6A8, offset: 0xF6A8, size: 0x8, addend: 0x0, symName: __ZNSt3__13setINS_4pairIiiEENS_4lessIS2_EENS_9allocatorIS2_EEE7emplaceB8ue170006IJRiS9_EEENS1_INS_21__tree_const_iteratorIS2_PNS_11__tree_nodeIS2_PvEElEEbEEDpOT_, symObjAddr: 0x25FC, symBinAddr: 0x100004938, symSize: 0x248 }
  - { offsetInCU: 0xF77E, offset: 0xF77E, size: 0x8, addend: 0x0, symName: __ZN3DSUC2Ei, symObjAddr: 0x3B6C, symBinAddr: 0x100005EA8, symSize: 0x5D4 }
  - { offsetInCU: 0xFAD0, offset: 0xFAD0, size: 0x8, addend: 0x0, symName: __ZNSt3__16__treeINS_4pairIiiEENS_4lessIS2_EENS_9allocatorIS2_EEE5beginB8ue170006Ev, symObjAddr: 0xEC90, symBinAddr: 0x100010FCC, symSize: 0x8C }
  - { offsetInCU: 0xFB16, offset: 0xFB16, size: 0x8, addend: 0x0, symName: __ZNSt3__13setINS_4pairIiiEENS_4lessIS2_EENS_9allocatorIS2_EEE3endB8ue170006Ev, symObjAddr: 0x2844, symBinAddr: 0x100004B80, symSize: 0x68 }
  - { offsetInCU: 0xFB62, offset: 0xFB62, size: 0x8, addend: 0x0, symName: __ZNKSt3__121__tree_const_iteratorINS_4pairIiiEEPNS_11__tree_nodeIS2_PvEElEdeB8ue170006Ev, symObjAddr: 0x28AC, symBinAddr: 0x100004BE8, symSize: 0xDC }
  - { offsetInCU: 0xFBA0, offset: 0xFBA0, size: 0x8, addend: 0x0, symName: __ZN3DSU5mergeEii, symObjAddr: 0x2988, symBinAddr: 0x100004CC4, symSize: 0x70C }
  - { offsetInCU: 0xFCCB, offset: 0xFCCB, size: 0x8, addend: 0x0, symName: __ZNSt3__121__tree_const_iteratorINS_4pairIiiEEPNS_11__tree_nodeIS2_PvEElEppB8ue170006Ev, symObjAddr: 0x3094, symBinAddr: 0x1000053D0, symSize: 0xD8 }
  - { offsetInCU: 0xFCFF, offset: 0xFCFF, size: 0x8, addend: 0x0, symName: __ZNKSt3__121__tree_const_iteratorINS_4pairIiiEEPNS_11__tree_nodeIS2_PvEElEptB8ue170006Ev, symObjAddr: 0x34BC, symBinAddr: 0x1000057F8, symSize: 0xDC }
  - { offsetInCU: 0xFD3D, offset: 0xFD3D, size: 0x8, addend: 0x0, symName: __ZN3DSU4findEi, symObjAddr: 0x316C, symBinAddr: 0x1000054A8, symSize: 0x350 }
  - { offsetInCU: 0xFDE4, offset: 0xFDE4, size: 0x8, addend: 0x0, symName: __ZNSt3__16__treeINS_4pairIiiEENS_4lessIS2_EENS_9allocatorIS2_EEE5eraseENS_21__tree_const_iteratorIS2_PNS_11__tree_nodeIS2_PvEElEE, symObjAddr: 0xF138, symBinAddr: 0x100011474, symSize: 0x1DC }
  - { offsetInCU: 0xFF4C, offset: 0xFF4C, size: 0x8, addend: 0x0, symName: __ZN3DSUD2Ev, symObjAddr: 0x75C4, symBinAddr: 0x100009900, symSize: 0x254 }
  - { offsetInCU: 0x1002A, offset: 0x1002A, size: 0x8, addend: 0x0, symName: __ZNSt3__16__treeINS_4pairIiiEENS_4lessIS2_EENS_9allocatorIS2_EEED1Ev, symObjAddr: 0xA5D4, symBinAddr: 0x10000C910, symSize: 0x64 }
  - { offsetInCU: 0x10096, offset: 0x10096, size: 0x8, addend: 0x0, symName: __ZN3DSUD1Ev, symObjAddr: 0x3598, symBinAddr: 0x1000058D4, symSize: 0x48 }
  - { offsetInCU: 0x100C6, offset: 0x100C6, size: 0x8, addend: 0x0, symName: __ZNSt3__13setINS_4pairIiiEENS_4lessIS2_EENS_9allocatorIS2_EEED1B8ue170006Ev, symObjAddr: 0x35E0, symBinAddr: 0x10000591C, symSize: 0x58 }
  - { offsetInCU: 0x1018F, offset: 0x1018F, size: 0x8, addend: 0x0, symName: __ZNSt3__16__treeINS_4pairIiiEENS_4lessIS2_EENS_9allocatorIS2_EEE21__emplace_unique_implIJRiS9_EEENS1_INS_15__tree_iteratorIS2_PNS_11__tree_nodeIS2_PvEElEEbEEDpOT_, symObjAddr: 0xAB6C, symBinAddr: 0x10000CEA8, symSize: 0x3A0 }
  - { offsetInCU: 0x1038B, offset: 0x1038B, size: 0x8, addend: 0x0, symName: __ZNSt3__14pairINS_21__tree_const_iteratorINS0_IiiEEPNS_11__tree_nodeIS2_PvEElEEbEC2B8ue170006INS_15__tree_iteratorIS2_S6_lEEbLS4_0EEEONS0_IT_T0_EE, symObjAddr: 0xEB24, symBinAddr: 0x100010E60, symSize: 0x16C }
  - { offsetInCU: 0x1042B, offset: 0x1042B, size: 0x8, addend: 0x0, symName: __ZNSt3__16__treeINS_4pairIiiEENS_4lessIS2_EENS_9allocatorIS2_EEE10__end_nodeB8ue170006Ev, symObjAddr: 0xA264, symBinAddr: 0x10000C5A0, symSize: 0x70 }
  - { offsetInCU: 0x104A6, offset: 0x104A6, size: 0x8, addend: 0x0, symName: _main, symObjAddr: 0x3638, symBinAddr: 0x100005974, symSize: 0x394 }
  - { offsetInCU: 0x10504, offset: 0x10504, size: 0x8, addend: 0x0, symName: __ZNSt3__19basic_iosIcNS_11char_traitsIcEEE3tieB8ue170006EPNS_13basic_ostreamIcS2_EE, symObjAddr: 0x39CC, symBinAddr: 0x100005D08, symSize: 0x1A0 }
  - { offsetInCU: 0x10727, offset: 0x10727, size: 0x8, addend: 0x0, symName: __ZNSt3__16vectorIiNS_9allocatorIiEEEC1B8ue170006Ev, symObjAddr: 0x4140, symBinAddr: 0x10000647C, symSize: 0x204 }
  - { offsetInCU: 0x1079D, offset: 0x1079D, size: 0x8, addend: 0x0, symName: __ZNSt3__117__compressed_pairIPiNS_9allocatorIiEEEC2B8ue170006IDnNS_18__default_init_tagEEEOT_OT0_, symObjAddr: 0x47B8, symBinAddr: 0x100006AF4, symSize: 0xB0 }
  - { offsetInCU: 0x1081C, offset: 0x1081C, size: 0x8, addend: 0x0, symName: __ZNSt3__16vectorIiNS_9allocatorIiEEEC2Em, symObjAddr: 0x48E4, symBinAddr: 0x100006C20, symSize: 0x338 }
  - { offsetInCU: 0x10974, offset: 0x10974, size: 0x8, addend: 0x0, symName: __ZNSt3__16vectorIiNS_9allocatorIiEEE13__move_assignERS3_NS_17integral_constantIbLb1EEE, symObjAddr: 0x6A8C, symBinAddr: 0x100008DC8, symSize: 0x1D8 }
  - { offsetInCU: 0x10A95, offset: 0x10A95, size: 0x8, addend: 0x0, symName: __ZNSt3__16vectorIiNS_9allocatorIiEEE16__destroy_vectorclB8ue170006Ev, symObjAddr: 0x64F4, symBinAddr: 0x100008830, symSize: 0x240 }
  - { offsetInCU: 0x10BC3, offset: 0x10BC3, size: 0x8, addend: 0x0, symName: __ZNSt3__16vectorIiNS_9allocatorIiEEEC2EmRKi, symObjAddr: 0x6EDC, symBinAddr: 0x100009218, symSize: 0x340 }
  - { offsetInCU: 0x10D2F, offset: 0x10D2F, size: 0x8, addend: 0x0, symName: __ZNSt3__16vectorIiNS_9allocatorIiEEED1B8ue170006Ev, symObjAddr: 0x4344, symBinAddr: 0x100006680, symSize: 0x1A0 }
  - { offsetInCU: 0x10DFD, offset: 0x10DFD, size: 0x8, addend: 0x0, symName: __ZNSt3__122__compressed_pair_elemINS_9allocatorIiEELi1ELb1EEC2B8ue170006ENS_18__default_init_tagE, symObjAddr: 0x4868, symBinAddr: 0x100006BA4, symSize: 0x7C }
  - { offsetInCU: 0x10F2C, offset: 0x10F2C, size: 0x8, addend: 0x0, symName: __ZNSt3__16vectorIiNS_9allocatorIiEEE11__vallocateB8ue170006Em, symObjAddr: 0x4C1C, symBinAddr: 0x100006F58, symSize: 0x1A0 }
  - { offsetInCU: 0x11017, offset: 0x11017, size: 0x8, addend: 0x0, symName: __ZNSt3__16vectorIiNS_9allocatorIiEEE18__construct_at_endEm, symObjAddr: 0x4DBC, symBinAddr: 0x1000070F8, symSize: 0x300 }
  - { offsetInCU: 0x11153, offset: 0x11153, size: 0x8, addend: 0x0, symName: __ZNSt3__128__exception_guard_exceptionsINS_6vectorIiNS_9allocatorIiEEE16__destroy_vectorEED2B8ue170006Ev, symObjAddr: 0x6410, symBinAddr: 0x10000874C, symSize: 0xE4 }
  - { offsetInCU: 0x11192, offset: 0x11192, size: 0x8, addend: 0x0, symName: __ZNSt3__128__exception_guard_exceptionsINS_6vectorIiNS_9allocatorIiEEE16__destroy_vectorEED1B8ue170006Ev, symObjAddr: 0x50BC, symBinAddr: 0x1000073F8, symSize: 0x48 }
  - { offsetInCU: 0x111F6, offset: 0x111F6, size: 0x8, addend: 0x0, symName: __ZNKSt3__16vectorIiNS_9allocatorIiEEE7__allocB8ue170006Ev, symObjAddr: 0x547C, symBinAddr: 0x1000077B8, symSize: 0x70 }
  - { offsetInCU: 0x1122B, offset: 0x1122B, size: 0x8, addend: 0x0, symName: __ZNSt3__16vectorIiNS_9allocatorIiEEE7__allocB8ue170006Ev, symObjAddr: 0x518C, symBinAddr: 0x1000074C8, symSize: 0x70 }
  - { offsetInCU: 0x1125B, offset: 0x1125B, size: 0x8, addend: 0x0, symName: __ZNSt3__117__compressed_pairIPiNS_9allocatorIiEEE5firstB8ue170006Ev, symObjAddr: 0x5814, symBinAddr: 0x100007B50, symSize: 0xCC }
  - { offsetInCU: 0x1129F, offset: 0x1129F, size: 0x8, addend: 0x0, symName: __ZNKSt3__16vectorIiNS_9allocatorIiEEE14__annotate_newB8ue170006Em, symObjAddr: 0x51FC, symBinAddr: 0x100007538, symSize: 0x280 }
  - { offsetInCU: 0x11395, offset: 0x11395, size: 0x8, addend: 0x0, symName: __ZNKSt3__16vectorIiNS_9allocatorIiEEE20__throw_length_errorB8ue170006Ev, symObjAddr: 0x5104, symBinAddr: 0x100007440, symSize: 0x44 }
  - { offsetInCU: 0x114AB, offset: 0x114AB, size: 0x8, addend: 0x0, symName: __ZNSt3__16vectorIiNS_9allocatorIiEEE21_ConstructTransactionC2B8ue170006ERS3_m, symObjAddr: 0x5AA8, symBinAddr: 0x100007DE4, symSize: 0x194 }
  - { offsetInCU: 0x11503, offset: 0x11503, size: 0x8, addend: 0x0, symName: __ZNSt3__117__compressed_pairIPiNS_9allocatorIiEEE6secondB8ue170006Ev, symObjAddr: 0x5740, symBinAddr: 0x100007A7C, symSize: 0xD4 }
  - { offsetInCU: 0x11546, offset: 0x11546, size: 0x8, addend: 0x0, symName: __ZNSt3__16vectorIiNS_9allocatorIiEEE21_ConstructTransactionD2B8ue170006Ev, symObjAddr: 0x5FA0, symBinAddr: 0x1000082DC, symSize: 0x214 }
  - { offsetInCU: 0x11600, offset: 0x11600, size: 0x8, addend: 0x0, symName: __ZNKSt3__16vectorIiNS_9allocatorIiEEE8capacityB8ue170006Ev, symObjAddr: 0x58E0, symBinAddr: 0x100007C1C, symSize: 0x8C }
  - { offsetInCU: 0x1163B, offset: 0x1163B, size: 0x8, addend: 0x0, symName: __ZNKSt3__117__compressed_pairIPiNS_9allocatorIiEEE6secondB8ue170006Ev, symObjAddr: 0x54EC, symBinAddr: 0x100007828, symSize: 0xD4 }
  - { offsetInCU: 0x1169A, offset: 0x1169A, size: 0x8, addend: 0x0, symName: __ZNSt12length_errorC1B8ue170006EPKc, symObjAddr: 0x5638, symBinAddr: 0x100007974, symSize: 0xAC }
  - { offsetInCU: 0x1174A, offset: 0x1174A, size: 0x8, addend: 0x0, symName: __ZNKSt3__16vectorIiNS_9allocatorIiEEE9__end_capB8ue170006Ev, symObjAddr: 0x596C, symBinAddr: 0x100007CA8, symSize: 0x70 }
  - { offsetInCU: 0x1177F, offset: 0x1177F, size: 0x8, addend: 0x0, symName: __ZNKSt3__117__compressed_pairIPiNS_9allocatorIiEEE5firstB8ue170006Ev, symObjAddr: 0x59DC, symBinAddr: 0x100007D18, symSize: 0xCC }
  - { offsetInCU: 0x117DF, offset: 0x117DF, size: 0x8, addend: 0x0, symName: __ZNKSt3__16vectorIiNS_9allocatorIiEEE19__annotate_increaseB8ue170006Em, symObjAddr: 0x5C3C, symBinAddr: 0x100007F78, symSize: 0x2D8 }
  - { offsetInCU: 0x118E9, offset: 0x118E9, size: 0x8, addend: 0x0, symName: __ZNKSt3__16vectorIiNS_9allocatorIiEEE4sizeB8ue170006Ev, symObjAddr: 0x5F14, symBinAddr: 0x100008250, symSize: 0x8C }
  - { offsetInCU: 0x11910, offset: 0x11910, size: 0x8, addend: 0x0, symName: __ZNKSt3__16vectorIiNS_9allocatorIiEEE17__annotate_shrinkB8ue170006Em, symObjAddr: 0x61B4, symBinAddr: 0x1000084F0, symSize: 0x25C }
  - { offsetInCU: 0x11A74, offset: 0x11A74, size: 0x8, addend: 0x0, symName: __ZNSt3__16vectorIiNS_9allocatorIiEEE22__base_destruct_at_endB8ue170006EPi, symObjAddr: 0x69A4, symBinAddr: 0x100008CE0, symSize: 0xE8 }
  - { offsetInCU: 0x11ACF, offset: 0x11ACF, size: 0x8, addend: 0x0, symName: __ZNKSt3__16vectorIiNS_9allocatorIiEEE17__annotate_deleteB8ue170006Ev, symObjAddr: 0x6734, symBinAddr: 0x100008A70, symSize: 0x270 }
  - { offsetInCU: 0x11BEB, offset: 0x11BEB, size: 0x8, addend: 0x0, symName: __ZNSt3__16vectorIiNS_9allocatorIiEEE13__vdeallocateEv, symObjAddr: 0x6C64, symBinAddr: 0x100008FA0, symSize: 0x17C }
  - { offsetInCU: 0x11D3C, offset: 0x11D3C, size: 0x8, addend: 0x0, symName: __ZNSt3__16vectorIiNS_9allocatorIiEEE19__move_assign_allocB8ue170006ERS3_NS_17integral_constantIbLb1EEE, symObjAddr: 0x6E84, symBinAddr: 0x1000091C0, symSize: 0x58 }
  - { offsetInCU: 0x11DB2, offset: 0x11DB2, size: 0x8, addend: 0x0, symName: __ZNSt3__16vectorIiNS_9allocatorIiEEE5clearB8ue170006Ev, symObjAddr: 0x6DE0, symBinAddr: 0x10000911C, symSize: 0xA4 }
  - { offsetInCU: 0x11E52, offset: 0x11E52, size: 0x8, addend: 0x0, symName: __ZNSt3__16vectorIiNS_9allocatorIiEEE18__construct_at_endEmRKi, symObjAddr: 0x721C, symBinAddr: 0x100009558, symSize: 0x350 }
  - { offsetInCU: 0x120CF, offset: 0x120CF, size: 0x8, addend: 0x0, symName: __ZNSt3__119ostreambuf_iteratorIcNS_11char_traitsIcEEEC2B8ue170006ERNS_13basic_ostreamIcS2_EE, symObjAddr: 0x9290, symBinAddr: 0x10000B5CC, symSize: 0x298 }
  - { offsetInCU: 0x1212C, offset: 0x1212C, size: 0x8, addend: 0x0, symName: __ZNKSt3__19basic_iosIcNS_11char_traitsIcEEE4fillB8ue170006Ev, symObjAddr: 0x8928, symBinAddr: 0x10000AC64, symSize: 0x248 }
  - { offsetInCU: 0x1216F, offset: 0x1216F, size: 0x8, addend: 0x0, symName: __ZNSt3__19basic_iosIcNS_11char_traitsIcEEE8setstateB8ue170006Ej, symObjAddr: 0x8B70, symBinAddr: 0x10000AEAC, symSize: 0xFC }
  - { offsetInCU: 0x12278, offset: 0x12278, size: 0x8, addend: 0x0, symName: __ZNSt3__117__compressed_pairINS_12basic_stringIcNS_11char_traitsIcEENS_9allocatorIcEEE5__repES5_EC1B8ue170006INS_18__default_init_tagESA_EEOT_OT0_, symObjAddr: 0x8E0C, symBinAddr: 0x10000B148, symSize: 0x98 }
  - { offsetInCU: 0x12315, offset: 0x12315, size: 0x8, addend: 0x0, symName: __ZNSt3__112basic_stringIcNS_11char_traitsIcEENS_9allocatorIcEEE13__get_pointerB8ue170006Ev, symObjAddr: 0x9044, symBinAddr: 0x10000B380, symSize: 0x5C }
  - { offsetInCU: 0x12378, offset: 0x12378, size: 0x8, addend: 0x0, symName: __ZNSt3__18ios_base5widthB8ue170006El, symObjAddr: 0x8C6C, symBinAddr: 0x10000AFA8, symSize: 0x1A0 }
  - { offsetInCU: 0x123C1, offset: 0x123C1, size: 0x8, addend: 0x0, symName: __ZNKSt3__19basic_iosIcNS_11char_traitsIcEEE5widenB8ue170006Ec, symObjAddr: 0x9608, symBinAddr: 0x10000B944, symSize: 0x340 }
  - { offsetInCU: 0x12444, offset: 0x12444, size: 0x8, addend: 0x0, symName: __ZNSt3__18ios_base8setstateB8ue170006Ej, symObjAddr: 0x9A48, symBinAddr: 0x10000BD84, symSize: 0x19C }
  - { offsetInCU: 0x124E1, offset: 0x124E1, size: 0x8, addend: 0x0, symName: __ZNSt3__122__compressed_pair_elemINS_9allocatorIcEELi1ELb1EEC2B8ue170006ENS_18__default_init_tagE, symObjAddr: 0x8EA4, symBinAddr: 0x10000B1E0, symSize: 0x7C }
  - { offsetInCU: 0x12590, offset: 0x12590, size: 0x8, addend: 0x0, symName: __ZNSt3__112basic_stringIcNS_11char_traitsIcEENS_9allocatorIcEEE19__get_short_pointerB8ue170006Ev, symObjAddr: 0x8F20, symBinAddr: 0x10000B25C, symSize: 0x58 }
  - { offsetInCU: 0x125C5, offset: 0x125C5, size: 0x8, addend: 0x0, symName: __ZNSt3__117__compressed_pairINS_12basic_stringIcNS_11char_traitsIcEENS_9allocatorIcEEE5__repES5_E5firstB8ue170006Ev, symObjAddr: 0x8F78, symBinAddr: 0x10000B2B4, symSize: 0xCC }
  - { offsetInCU: 0x1261F, offset: 0x1261F, size: 0x8, addend: 0x0, symName: __ZNKSt3__112basic_stringIcNS_11char_traitsIcEENS_9allocatorIcEEE9__is_longB8ue170006Ev, symObjAddr: 0x90A0, symBinAddr: 0x10000B3DC, symSize: 0x9C }
  - { offsetInCU: 0x12653, offset: 0x12653, size: 0x8, addend: 0x0, symName: __ZNSt3__112basic_stringIcNS_11char_traitsIcEENS_9allocatorIcEEE18__get_long_pointerB8ue170006Ev, symObjAddr: 0x913C, symBinAddr: 0x10000B478, symSize: 0x88 }
  - { offsetInCU: 0x12687, offset: 0x12687, size: 0x8, addend: 0x0, symName: __ZNKSt3__117__compressed_pairINS_12basic_stringIcNS_11char_traitsIcEENS_9allocatorIcEEE5__repES5_E5firstB8ue170006Ev, symObjAddr: 0x91C4, symBinAddr: 0x10000B500, symSize: 0xCC }
  - { offsetInCU: 0x12705, offset: 0x12705, size: 0x8, addend: 0x0, symName: __ZNKSt3__18ios_base5rdbufB8ue170006Ev, symObjAddr: 0x9528, symBinAddr: 0x10000B864, symSize: 0xE0 }
  - { offsetInCU: 0x12792, offset: 0x12792, size: 0x8, addend: 0x0, symName: __ZNKSt3__112basic_stringIcNS_11char_traitsIcEENS_9allocatorIcEEE15__get_long_sizeB8ue170006Ev, symObjAddr: 0x9D7C, symBinAddr: 0x10000C0B8, symSize: 0x8C }
  - { offsetInCU: 0x127C6, offset: 0x127C6, size: 0x8, addend: 0x0, symName: __ZNKSt3__112basic_stringIcNS_11char_traitsIcEENS_9allocatorIcEEE16__get_short_sizeB8ue170006Ev, symObjAddr: 0x9E08, symBinAddr: 0x10000C144, symSize: 0x9C }
  - { offsetInCU: 0x127FA, offset: 0x127FA, size: 0x8, addend: 0x0, symName: __ZNKSt3__112basic_stringIcNS_11char_traitsIcEENS_9allocatorIcEEE18__get_long_pointerB8ue170006Ev, symObjAddr: 0x9C9C, symBinAddr: 0x10000BFD8, symSize: 0x88 }
  - { offsetInCU: 0x1282E, offset: 0x1282E, size: 0x8, addend: 0x0, symName: __ZNKSt3__112basic_stringIcNS_11char_traitsIcEENS_9allocatorIcEEE19__get_short_pointerB8ue170006Ev, symObjAddr: 0x9D24, symBinAddr: 0x10000C060, symSize: 0x58 }
  - { offsetInCU: 0x128E6, offset: 0x128E6, size: 0x8, addend: 0x0, symName: __ZNSt3__117__compressed_pairINS_15__tree_end_nodeIPNS_16__tree_node_baseIPvEEEENS_9allocatorINS_11__tree_nodeINS_4pairIiiEES3_EEEEEC2B8ue170006ILb1EvEEv, symObjAddr: 0xA2D4, symBinAddr: 0x10000C610, symSize: 0xD0 }
  - { offsetInCU: 0x1296D, offset: 0x1296D, size: 0x8, addend: 0x0, symName: __ZNSt3__117__compressed_pairImNS_4lessINS_4pairIiiEEEEEC2B8ue170006IiRKS4_EEOT_OT0_, symObjAddr: 0xA420, symBinAddr: 0x10000C75C, symSize: 0xE8 }
  - { offsetInCU: 0x129E7, offset: 0x129E7, size: 0x8, addend: 0x0, symName: __ZNSt3__117__compressed_pairINS_15__tree_end_nodeIPNS_16__tree_node_baseIPvEEEENS_9allocatorINS_11__tree_nodeINS_4pairIiiEES3_EEEEE5firstB8ue170006Ev, symObjAddr: 0xA508, symBinAddr: 0x10000C844, symSize: 0xCC }
  - { offsetInCU: 0x12A81, offset: 0x12A81, size: 0x8, addend: 0x0, symName: __ZNSt3__122__compressed_pair_elemINS_9allocatorINS_11__tree_nodeINS_4pairIiiEEPvEEEELi1ELb1EEC2B8ue170006ENS_16__value_init_tagE, symObjAddr: 0xA3A4, symBinAddr: 0x10000C6E0, symSize: 0x7C }
  - { offsetInCU: 0x12B91, offset: 0x12B91, size: 0x8, addend: 0x0, symName: __ZNKSt3__16__treeINS_4pairIiiEENS_4lessIS2_EENS_9allocatorIS2_EEE6__rootB8ue170006Ev, symObjAddr: 0xA808, symBinAddr: 0x10000CB44, symSize: 0xE4 }
  - { offsetInCU: 0x12BC5, offset: 0x12BC5, size: 0x8, addend: 0x0, symName: __ZNSt3__16__treeINS_4pairIiiEENS_4lessIS2_EENS_9allocatorIS2_EEE7destroyEPNS_11__tree_nodeIS2_PvEE, symObjAddr: 0xA638, symBinAddr: 0x10000C974, symSize: 0x1D0 }
  - { offsetInCU: 0x12D57, offset: 0x12D57, size: 0x8, addend: 0x0, symName: __ZNSt3__16__treeINS_4pairIiiEENS_4lessIS2_EENS_9allocatorIS2_EEE12__node_allocB8ue170006Ev, symObjAddr: 0xA8EC, symBinAddr: 0x10000CC28, symSize: 0x70 }
  - { offsetInCU: 0x12D8C, offset: 0x12D8C, size: 0x8, addend: 0x0, symName: __ZNKSt3__16__treeINS_4pairIiiEENS_4lessIS2_EENS_9allocatorIS2_EEE10__end_nodeB8ue170006Ev, symObjAddr: 0xAA30, symBinAddr: 0x10000CD6C, symSize: 0x70 }
  - { offsetInCU: 0x12DC1, offset: 0x12DC1, size: 0x8, addend: 0x0, symName: __ZNSt3__117__compressed_pairINS_15__tree_end_nodeIPNS_16__tree_node_baseIPvEEEENS_9allocatorINS_11__tree_nodeINS_4pairIiiEES3_EEEEE6secondB8ue170006Ev, symObjAddr: 0xA95C, symBinAddr: 0x10000CC98, symSize: 0xD4 }
  - { offsetInCU: 0x12E1A, offset: 0x12E1A, size: 0x8, addend: 0x0, symName: __ZNKSt3__117__compressed_pairINS_15__tree_end_nodeIPNS_16__tree_node_baseIPvEEEENS_9allocatorINS_11__tree_nodeINS_4pairIiiEES3_EEEEE5firstB8ue170006Ev, symObjAddr: 0xAAA0, symBinAddr: 0x10000CDDC, symSize: 0xCC }
  - { offsetInCU: 0x12F38, offset: 0x12F38, size: 0x8, addend: 0x0, symName: __ZNSt3__16__treeINS_4pairIiiEENS_4lessIS2_EENS_9allocatorIS2_EEE16__construct_nodeIJRiS9_EEENS_10unique_ptrINS_11__tree_nodeIS2_PvEENS_22__tree_node_destructorINS5_ISD_EEEEEEDpOT_, symObjAddr: 0xAF0C, symBinAddr: 0x10000D248, symSize: 0x310 }
  - { offsetInCU: 0x1314A, offset: 0x1314A, size: 0x8, addend: 0x0, symName: __ZNKSt3__117__compressed_pairIPNS_11__tree_nodeINS_4pairIiiEEPvEENS_22__tree_node_destructorINS_9allocatorIS5_EEEEE5firstB8ue170006Ev, symObjAddr: 0xC4F4, symBinAddr: 0x10000E830, symSize: 0xCC }
  - { offsetInCU: 0x1318E, offset: 0x1318E, size: 0x8, addend: 0x0, symName: __ZNSt3__16__treeINS_4pairIiiEENS_4lessIS2_EENS_9allocatorIS2_EEE12__find_equalIS2_EERPNS_16__tree_node_baseIPvEERPNS_15__tree_end_nodeISC_EERKT_, symObjAddr: 0xB21C, symBinAddr: 0x10000D558, symSize: 0x57C }
  - { offsetInCU: 0x132BB, offset: 0x132BB, size: 0x8, addend: 0x0, symName: __ZNSt3__16__treeINS_4pairIiiEENS_4lessIS2_EENS_9allocatorIS2_EEE16__insert_node_atEPNS_15__tree_end_nodeIPNS_16__tree_node_baseIPvEEEERSC_SC_, symObjAddr: 0xB798, symBinAddr: 0x10000DAD4, symSize: 0x4BC }
  - { offsetInCU: 0x133A0, offset: 0x133A0, size: 0x8, addend: 0x0, symName: __ZNSt3__110unique_ptrINS_11__tree_nodeINS_4pairIiiEEPvEENS_22__tree_node_destructorINS_9allocatorIS5_EEEEE7releaseB8ue170006Ev, symObjAddr: 0xBC54, symBinAddr: 0x10000DF90, symSize: 0xC0 }
  - { offsetInCU: 0x133FF, offset: 0x133FF, size: 0x8, addend: 0x0, symName: __ZNSt3__110unique_ptrINS_11__tree_nodeINS_4pairIiiEEPvEENS_22__tree_node_destructorINS_9allocatorIS5_EEEEE5resetB8ue170006EPS5_, symObjAddr: 0xE858, symBinAddr: 0x100010B94, symSize: 0x104 }
  - { offsetInCU: 0x13496, offset: 0x13496, size: 0x8, addend: 0x0, symName: __ZNSt3__110unique_ptrINS_11__tree_nodeINS_4pairIiiEEPvEENS_22__tree_node_destructorINS_9allocatorIS5_EEEEED1B8ue170006Ev, symObjAddr: 0xBD14, symBinAddr: 0x10000E050, symSize: 0x5C }
  - { offsetInCU: 0x13601, offset: 0x13601, size: 0x8, addend: 0x0, symName: __ZNSt3__110unique_ptrINS_11__tree_nodeINS_4pairIiiEEPvEENS_22__tree_node_destructorINS_9allocatorIS5_EEEEEC1B8ue170006ILb1EvEEPS5_NS_16__dependent_typeINS_27__unique_ptr_deleter_sfinaeIS9_EEXT_EE20__good_rval_ref_typeE, symObjAddr: 0xBD70, symBinAddr: 0x10000E0AC, symSize: 0x20C }
  - { offsetInCU: 0x136B7, offset: 0x136B7, size: 0x8, addend: 0x0, symName: __ZNSt3__19allocatorINS_11__tree_nodeINS_4pairIiiEEPvEEE9constructB8ue170006IS3_JRiS8_EEEvPT_DpOT0_, symObjAddr: 0xC080, symBinAddr: 0x10000E3BC, symSize: 0x158 }
  - { offsetInCU: 0x13774, offset: 0x13774, size: 0x8, addend: 0x0, symName: __ZNSt3__117__compressed_pairIPNS_11__tree_nodeINS_4pairIiiEEPvEENS_22__tree_node_destructorINS_9allocatorIS5_EEEEE6secondB8ue170006Ev, symObjAddr: 0xC1D8, symBinAddr: 0x10000E514, symSize: 0xB0 }
  - { offsetInCU: 0x137D5, offset: 0x137D5, size: 0x8, addend: 0x0, symName: __ZNSt3__16__treeINS_4pairIiiEENS_4lessIS2_EENS_9allocatorIS2_EEE10value_compB8ue170006Ev, symObjAddr: 0xC288, symBinAddr: 0x10000E5C4, symSize: 0x70 }
  - { offsetInCU: 0x1380A, offset: 0x1380A, size: 0x8, addend: 0x0, symName: __ZNKSt3__14lessINS_4pairIiiEEEclB8ue170006ERKS2_S5_, symObjAddr: 0xC2F8, symBinAddr: 0x10000E634, symSize: 0x128 }
  - { offsetInCU: 0x13871, offset: 0x13871, size: 0x8, addend: 0x0, symName: __ZNSt3__16__treeINS_4pairIiiEENS_4lessIS2_EENS_9allocatorIS2_EEE4sizeB8ue170006Ev, symObjAddr: 0xD778, symBinAddr: 0x10000FAB4, symSize: 0x70 }
  - { offsetInCU: 0x138A6, offset: 0x138A6, size: 0x8, addend: 0x0, symName: __ZNSt3__117__compressed_pairIPNS_11__tree_nodeINS_4pairIiiEEPvEENS_22__tree_node_destructorINS_9allocatorIS5_EEEEE5firstB8ue170006Ev, symObjAddr: 0xE78C, symBinAddr: 0x100010AC8, symSize: 0xCC }
  - { offsetInCU: 0x13967, offset: 0x13967, size: 0x8, addend: 0x0, symName: __ZNSt3__117__compressed_pairIPNS_11__tree_nodeINS_4pairIiiEEPvEENS_22__tree_node_destructorINS_9allocatorIS5_EEEEEC2B8ue170006IRS6_SA_EEOT_OT0_, symObjAddr: 0xBF7C, symBinAddr: 0x10000E2B8, symSize: 0x104 }
  - { offsetInCU: 0x13B04, offset: 0x13B04, size: 0x8, addend: 0x0, symName: __ZNSt3__117__compressed_pairImNS_4lessINS_4pairIiiEEEEE6secondB8ue170006Ev, symObjAddr: 0xC420, symBinAddr: 0x10000E75C, symSize: 0xD4 }
  - { offsetInCU: 0x13B95, offset: 0x13B95, size: 0x8, addend: 0x0, symName: __ZNSt3__117__compressed_pairImNS_4lessINS_4pairIiiEEEEE5firstB8ue170006Ev, symObjAddr: 0xE6C0, symBinAddr: 0x1000109FC, symSize: 0xCC }
  - { offsetInCU: 0x13BD9, offset: 0x13BD9, size: 0x8, addend: 0x0, symName: __ZNKSt3__116__tree_node_baseIPvE15__parent_unsafeB8ue170006Ev, symObjAddr: 0xD7E8, symBinAddr: 0x10000FB24, symSize: 0x9C }
  - { offsetInCU: 0x13C49, offset: 0x13C49, size: 0x8, addend: 0x0, symName: __ZNSt3__122__tree_node_destructorINS_9allocatorINS_11__tree_nodeINS_4pairIiiEEPvEEEEEclB8ue170006EPS6_, symObjAddr: 0xE95C, symBinAddr: 0x100010C98, symSize: 0x1C8 }
  - { offsetInCU: 0x13D7D, offset: 0x13D7D, size: 0x8, addend: 0x0, symName: __ZNSt3__16__treeINS_4pairIiiEENS_4lessIS2_EENS_9allocatorIS2_EEE21__remove_node_pointerEPNS_11__tree_nodeIS2_PvEE, symObjAddr: 0xF314, symBinAddr: 0x100011650, symSize: 0x348 }
  - { offsetInCU: 0x13E81, offset: 0x13E81, size: 0x8, addend: 0x0, symName: __ZNSt3__115__tree_iteratorINS_4pairIiiEEPNS_11__tree_nodeIS2_PvEElEppB8ue170006Ev, symObjAddr: 0xF65C, symBinAddr: 0x100011998, symSize: 0xD8 }
...
