---
triple:          'arm64-apple-darwin'
binary-path:     '/Users/eric/Workspace/compprog/mitit-winter-25/g.bin'
relocations:
  - { offsetInCU: 0x3B, offset: 0x3B, size: 0x8, addend: 0x0, symName: _.str, symObjAddr: 0x180A0, symBinAddr: 0x10001CC00, symSize: 0x0 }
  - { offsetInCU: 0x6B, offset: 0x6B, size: 0x8, addend: 0x0, symName: _.str.1, symObjAddr: 0x180C0, symBinAddr: 0x10001CC20, symSize: 0x0 }
  - { offsetInCU: 0x7C, offset: 0x7C, size: 0x8, addend: 0x0, symName: _.str.2, symObjAddr: 0x180E0, symBinAddr: 0x10001CC40, symSize: 0x0 }
  - { offsetInCU: 0x8D, offset: 0x8D, size: 0x8, addend: 0x0, symName: _.str.3, symObjAddr: 0x15320, symBinAddr: 0x100019E40, symSize: 0x0 }
  - { offsetInCU: 0xAA, offset: 0xAA, size: 0x8, addend: 0x0, symName: _.str.4, symObjAddr: 0x18100, symBinAddr: 0x10001CC60, symSize: 0x0 }
  - { offsetInCU: 0xBB, offset: 0xBB, size: 0x8, addend: 0x0, symName: _.str.6, symObjAddr: 0x18120, symBinAddr: 0x10001CC80, symSize: 0x0 }
  - { offsetInCU: 0xD8, offset: 0xD8, size: 0x8, addend: 0x0, symName: _.str.7, symObjAddr: 0x18140, symBinAddr: 0x10001CCA0, symSize: 0x0 }
  - { offsetInCU: 0xE9, offset: 0xE9, size: 0x8, addend: 0x0, symName: _.str.8, symObjAddr: 0x18160, symBinAddr: 0x10001CCC0, symSize: 0x0 }
  - { offsetInCU: 0x106, offset: 0x106, size: 0x8, addend: 0x0, symName: _.str.9, symObjAddr: 0x18180, symBinAddr: 0x10001CCE0, symSize: 0x0 }
  - { offsetInCU: 0x11B, offset: 0x11B, size: 0x8, addend: 0x0, symName: __ZL2dd, symObjAddr: 0x15400, symBinAddr: 0x100019F20, symSize: 0x0 }
  - { offsetInCU: 0x4451, offset: 0x4451, size: 0x8, addend: 0x0, symName: __ZNSt3__124__put_character_sequenceB8ue170006IcNS_11char_traitsIcEEEERNS_13basic_ostreamIT_T0_EES7_PKS4_m, symObjAddr: 0x443C, symBinAddr: 0x100008C30, symSize: 0x910 }
  - { offsetInCU: 0x9127, offset: 0x9127, size: 0x8, addend: 0x0, symName: __ZNSt3__111__introsortINS_17_ClassicAlgPolicyERNS_6__lessIvvEEP4cellLb0EEEvT1_S7_T0_NS_15iterator_traitsIS7_E15difference_typeEb, symObjAddr: 0xF294, symBinAddr: 0x100013A88, symSize: 0xFA8 }
  - { offsetInCU: 0x9558, offset: 0x9558, size: 0x8, addend: 0x0, symName: __ZNSt3__126__insertion_sort_unguardedB8ue170006INS_17_ClassicAlgPolicyERNS_6__lessIvvEEP4cellEEvT1_S7_T0_, symObjAddr: 0x10838, symBinAddr: 0x10001502C, symSize: 0x450 }
  - { offsetInCU: 0x96A9, offset: 0x96A9, size: 0x8, addend: 0x0, symName: __ZNSt3__111__sift_downB8ue170006INS_17_ClassicAlgPolicyERNS_6__lessIvvEEP4cellEEvT1_OT0_NS_15iterator_traitsIS7_E15difference_typeES7_, symObjAddr: 0x13D00, symBinAddr: 0x1000184F4, symSize: 0x700 }
  - { offsetInCU: 0x984B, offset: 0x984B, size: 0x8, addend: 0x0, symName: __ZNSt3__117__floyd_sift_downB8ue170006INS_17_ClassicAlgPolicyERNS_6__lessIvvEEP4cellEET1_S7_OT0_NS_15iterator_traitsIS7_E15difference_typeE, symObjAddr: 0x1466C, symBinAddr: 0x100018E60, symSize: 0x2F4 }
  - { offsetInCU: 0x9933, offset: 0x9933, size: 0x8, addend: 0x0, symName: __ZNSt3__131__partition_with_equals_on_leftB8ue170006INS_17_ClassicAlgPolicyEP4cellRNS_6__lessIvvEEEET0_S7_S7_T1_, symObjAddr: 0x11484, symBinAddr: 0x100015C78, symSize: 0x7D4 }
  - { offsetInCU: 0x9ACD, offset: 0x9ACD, size: 0x8, addend: 0x0, symName: __ZNSt3__132__partition_with_equals_on_rightB8ue170006INS_17_ClassicAlgPolicyEP4cellRNS_6__lessIvvEEEENS_4pairIT0_bEES8_S8_T1_, symObjAddr: 0x11C58, symBinAddr: 0x10001644C, symSize: 0x880 }
  - { offsetInCU: 0x9CA3, offset: 0x9CA3, size: 0x8, addend: 0x0, symName: __ZNSt3__127__insertion_sort_incompleteB8ue170006INS_17_ClassicAlgPolicyERNS_6__lessIvvEEP4cellEEbT1_S7_T0_, symObjAddr: 0x124D8, symBinAddr: 0x100016CCC, symSize: 0xA00 }
  - { offsetInCU: 0xABA1, offset: 0xABA1, size: 0x8, addend: 0x0, symName: __ZNSt3__1lsB8ue170006IcNS_11char_traitsIcEENS_9allocatorIcEEEERNS_13basic_ostreamIT_T0_EES9_RKNS_12basic_stringIS6_S7_T1_EE, symObjAddr: 0xB8C, symBinAddr: 0x100005380, symSize: 0x48 }
  - { offsetInCU: 0xAC5B, offset: 0xAC5B, size: 0x8, addend: 0x0, symName: __ZNSt3__1neB8ue170006ERKNS_14__bit_iteratorINS_6vectorIbNS_9allocatorIbEEEELb0ELm0EEES7_, symObjAddr: 0x1104, symBinAddr: 0x1000058F8, symSize: 0xC4 }
  - { offsetInCU: 0xAF4C, offset: 0xAF4C, size: 0x8, addend: 0x0, symName: __ZNSt3__1eqB8ue170006IP4cellEEbRKNS_11__wrap_iterIT_EES7_, symObjAddr: 0x43E4, symBinAddr: 0x100008BD8, symSize: 0x58 }
  - { offsetInCU: 0xAFA9, offset: 0xAFA9, size: 0x8, addend: 0x0, symName: __ZNSt3__116__pad_and_outputB8ue170006IcNS_11char_traitsIcEEEENS_19ostreambuf_iteratorIT_T0_EES6_PKS4_S8_S8_RNS_8ios_baseES4_, symObjAddr: 0x4D4C, symBinAddr: 0x100009540, symSize: 0x800 }
  - { offsetInCU: 0xB209, offset: 0xB209, size: 0x8, addend: 0x0, symName: __ZNSt3__120__throw_length_errorB8ue170006EPKc, symObjAddr: 0x5BA8, symBinAddr: 0x10000A39C, symSize: 0x78 }
  - { offsetInCU: 0xB6E5, offset: 0xB6E5, size: 0x8, addend: 0x0, symName: __ZNSt3__19use_facetB8ue170006INS_5ctypeIcEEEERKT_RKNS_6localeE, symObjAddr: 0x66F8, symBinAddr: 0x10000AEEC, symSize: 0x100 }
  - { offsetInCU: 0xB740, offset: 0xB740, size: 0x8, addend: 0x0, symName: __ZNSt3__119__allocate_at_leastB8ue170006INS_9allocatorIiEEEENS_19__allocation_resultINS_16allocator_traitsIT_E7pointerEEERS5_m, symObjAddr: 0x774C, symBinAddr: 0x10000BF40, symSize: 0x44 }
  - { offsetInCU: 0xB8F7, offset: 0xB8F7, size: 0x8, addend: 0x0, symName: __ZNSt3__119__allocate_at_leastB8ue170006INS_9allocatorINS_6vectorIiNS1_IiEEEEEEEENS_19__allocation_resultINS_16allocator_traitsIT_E7pointerEEERS8_m, symObjAddr: 0x9908, symBinAddr: 0x10000E0FC, symSize: 0x54 }
  - { offsetInCU: 0xC229, offset: 0xC229, size: 0x8, addend: 0x0, symName: __ZNSt3__119__allocate_at_leastB8ue170006INS_9allocatorI4cellEEEENS_19__allocation_resultINS_16allocator_traitsIT_E7pointerEEERS6_m, symObjAddr: 0xE404, symBinAddr: 0x100012BF8, symSize: 0x44 }
  - { offsetInCU: 0xC597, offset: 0xC597, size: 0x8, addend: 0x0, symName: __ZNSt3__17__sort3B8ue170006INS_17_ClassicAlgPolicyERNS_6__lessIvvEEP4cellEEjT1_S7_S7_T0_, symObjAddr: 0x10C88, symBinAddr: 0x10001547C, symSize: 0x618 }
  - { offsetInCU: 0xC7B7, offset: 0xC7B7, size: 0x8, addend: 0x0, symName: __ZNSt3__17__sort5B8ue170006INS_17_ClassicAlgPolicyERNS_6__lessIvvEEP4cellEEvT1_S7_S7_S7_S7_T0_, symObjAddr: 0x13320, symBinAddr: 0x100017B14, symSize: 0x554 }
  - { offsetInCU: 0xC9C7, offset: 0xC9C7, size: 0x8, addend: 0x0, symName: __ZNSt3__17__sort4B8ue170006INS_17_ClassicAlgPolicyERNS_6__lessIvvEEP4cellEEvT1_S7_S7_S7_T0_, symObjAddr: 0x12ED8, symBinAddr: 0x1000176CC, symSize: 0x448 }
  - { offsetInCU: 0xCB6D, offset: 0xCB6D, size: 0x8, addend: 0x0, symName: __ZNSt3__116__insertion_sortB8ue170006INS_17_ClassicAlgPolicyERNS_6__lessIvvEEP4cellEEvT1_S7_T0_, symObjAddr: 0x10420, symBinAddr: 0x100014C14, symSize: 0x418 }
  - { offsetInCU: 0xCC98, offset: 0xCC98, size: 0x8, addend: 0x0, symName: __ZNSt3__119__partial_sort_implB8ue170006INS_17_ClassicAlgPolicyERNS_6__lessIvvEEP4cellS6_EET1_S7_S7_T2_OT0_, symObjAddr: 0x13874, symBinAddr: 0x100018068, symSize: 0x48C }
  - { offsetInCU: 0xD109, offset: 0xD109, size: 0x8, addend: 0x0, symName: __ZNSt3__110__pop_heapB8ue170006INS_17_ClassicAlgPolicyENS_6__lessIvvEEP4cellEEvT1_S6_RT0_NS_15iterator_traitsIS6_E15difference_typeE, symObjAddr: 0x14400, symBinAddr: 0x100018BF4, symSize: 0x26C }
  - { offsetInCU: 0xD20E, offset: 0xD20E, size: 0x8, addend: 0x0, symName: __ZNSt3__19__sift_upB8ue170006INS_17_ClassicAlgPolicyERNS_6__lessIvvEEP4cellEEvT1_S7_OT0_NS_15iterator_traitsIS7_E15difference_typeE, symObjAddr: 0x14960, symBinAddr: 0x100019154, symSize: 0x470 }
  - { offsetInCU: 0xD78F, offset: 0xD78F, size: 0x8, addend: 0x0, symName: __ZSt28__throw_bad_array_new_lengthB8ue170006v, symObjAddr: 0x5D98, symBinAddr: 0x10000A58C, symSize: 0x5C }
  - { offsetInCU: 0xD7D2, offset: 0xD7D2, size: 0x8, addend: 0x0, symName: _.str.22, symObjAddr: 0x181A0, symBinAddr: 0x10001CD00, symSize: 0x0 }
  - { offsetInCU: 0xD7F1, offset: 0xD7F1, size: 0x8, addend: 0x0, symName: _.str.34, symObjAddr: 0x181C0, symBinAddr: 0x10001CD20, symSize: 0x0 }
  - { offsetInCU: 0xD80E, offset: 0xD80E, size: 0x8, addend: 0x0, symName: _.str.54, symObjAddr: 0x181E0, symBinAddr: 0x10001CD40, symSize: 0x0 }
  - { offsetInCU: 0xD81F, offset: 0xD81F, size: 0x8, addend: 0x0, symName: _.str.55, symObjAddr: 0x18200, symBinAddr: 0x10001CD60, symSize: 0x0 }
  - { offsetInCU: 0xE345, offset: 0xE345, size: 0x8, addend: 0x0, symName: __ZNSt3__16vectorI4cellNS_9allocatorIS1_EEE26__swap_out_circular_bufferERNS_14__split_bufferIS1_RS3_EE, symObjAddr: 0xDA98, symBinAddr: 0x10001228C, symSize: 0x440 }
  - { offsetInCU: 0x10B1E, offset: 0x10B1E, size: 0x8, addend: 0x0, symName: __ZN14__DEBUG_UTIL__5printEPKc, symObjAddr: 0x0, symBinAddr: 0x1000047F4, symSize: 0x30 }
  - { offsetInCU: 0x10BAA, offset: 0x10BAA, size: 0x8, addend: 0x0, symName: __ZN14__DEBUG_UTIL__5printEb, symObjAddr: 0x30, symBinAddr: 0x100004824, symSize: 0x28 }
  - { offsetInCU: 0x10C04, offset: 0x10C04, size: 0x8, addend: 0x0, symName: __ZN14__DEBUG_UTIL__5printEc, symObjAddr: 0x58, symBinAddr: 0x10000484C, symSize: 0x21C }
  - { offsetInCU: 0x10CDA, offset: 0x10CDA, size: 0x8, addend: 0x0, symName: __ZN14__DEBUG_UTIL__5printEs, symObjAddr: 0x274, symBinAddr: 0x100004A68, symSize: 0xA8 }
  - { offsetInCU: 0x10D03, offset: 0x10D03, size: 0x8, addend: 0x0, symName: __ZN14__DEBUG_UTIL__5printEt, symObjAddr: 0x31C, symBinAddr: 0x100004B10, symSize: 0xA8 }
  - { offsetInCU: 0x10D2C, offset: 0x10D2C, size: 0x8, addend: 0x0, symName: __ZN14__DEBUG_UTIL__5printEi, symObjAddr: 0x3C4, symBinAddr: 0x100004BB8, symSize: 0xA8 }
  - { offsetInCU: 0x10D55, offset: 0x10D55, size: 0x8, addend: 0x0, symName: __ZN14__DEBUG_UTIL__5printEj, symObjAddr: 0x46C, symBinAddr: 0x100004C60, symSize: 0xA8 }
  - { offsetInCU: 0x10D7E, offset: 0x10D7E, size: 0x8, addend: 0x0, symName: __ZN14__DEBUG_UTIL__5printEl, symObjAddr: 0x514, symBinAddr: 0x100004D08, symSize: 0xA8 }
  - { offsetInCU: 0x10DA7, offset: 0x10DA7, size: 0x8, addend: 0x0, symName: __ZN14__DEBUG_UTIL__5printEm, symObjAddr: 0x5BC, symBinAddr: 0x100004DB0, symSize: 0xA8 }
  - { offsetInCU: 0x10DD1, offset: 0x10DD1, size: 0x8, addend: 0x0, symName: __ZN14__DEBUG_UTIL__5printEx, symObjAddr: 0x664, symBinAddr: 0x100004E58, symSize: 0xA8 }
  - { offsetInCU: 0x10DEE, offset: 0x10DEE, size: 0x8, addend: 0x0, symName: __ZN14__DEBUG_UTIL__5printEy, symObjAddr: 0x70C, symBinAddr: 0x100004F00, symSize: 0xA8 }
  - { offsetInCU: 0x10E17, offset: 0x10E17, size: 0x8, addend: 0x0, symName: __ZN14__DEBUG_UTIL__5printEf, symObjAddr: 0x7B4, symBinAddr: 0x100004FA8, symSize: 0xA0 }
  - { offsetInCU: 0x10E40, offset: 0x10E40, size: 0x8, addend: 0x0, symName: __ZN14__DEBUG_UTIL__5printEd, symObjAddr: 0x854, symBinAddr: 0x100005048, symSize: 0xA0 }
  - { offsetInCU: 0x10E69, offset: 0x10E69, size: 0x8, addend: 0x0, symName: __ZN14__DEBUG_UTIL__5printEe, symObjAddr: 0x8F4, symBinAddr: 0x1000050E8, symSize: 0xA0 }
  - { offsetInCU: 0x10E92, offset: 0x10E92, size: 0x8, addend: 0x0, symName: __ZN14__DEBUG_UTIL__5printENSt3__112basic_stringIcNS0_11char_traitsIcEENS0_9allocatorIcEEEE, symObjAddr: 0x994, symBinAddr: 0x100005188, symSize: 0x1F8 }
  - { offsetInCU: 0x10F3C, offset: 0x10F3C, size: 0x8, addend: 0x0, symName: __ZN14__DEBUG_UTIL__5printENSt3__16vectorIbNS0_9allocatorIbEEEE, symObjAddr: 0xBD4, symBinAddr: 0x1000053C8, symSize: 0x4E4 }
  - { offsetInCU: 0x111AA, offset: 0x111AA, size: 0x8, addend: 0x0, symName: __ZN14__DEBUG_UTIL__7printerEPKc, symObjAddr: 0x1518, symBinAddr: 0x100005D0C, symSize: 0x4 }
  - { offsetInCU: 0x111CF, offset: 0x111CF, size: 0x8, addend: 0x0, symName: __ZN14__DEBUG_UTIL__10printerArrEPKc, symObjAddr: 0x151C, symBinAddr: 0x100005D10, symSize: 0x4 }
  - { offsetInCU: 0x111F3, offset: 0x111F3, size: 0x8, addend: 0x0, symName: __ZN14__DEBUG_UTIL__7printerIRxJEEEvPKcOT_DpOT0_, symObjAddr: 0x34D4, symBinAddr: 0x100007CC8, symSize: 0x69C }
  - { offsetInCU: 0x11319, offset: 0x11319, size: 0x8, addend: 0x0, symName: __ZNKSt3__112basic_stringIcNS_11char_traitsIcEENS_9allocatorIcEEE13__get_pointerB8ue170006Ev, symObjAddr: 0x69F0, symBinAddr: 0x10000B1E4, symSize: 0x5C }
  - { offsetInCU: 0x1137C, offset: 0x1137C, size: 0x8, addend: 0x0, symName: __ZNKSt3__112basic_stringIcNS_11char_traitsIcEENS_9allocatorIcEEE4sizeB8ue170006Ev, symObjAddr: 0x6994, symBinAddr: 0x10000B188, symSize: 0x5C }
  - { offsetInCU: 0x1149D, offset: 0x1149D, size: 0x8, addend: 0x0, symName: __ZNKSt3__114__bit_iteratorINS_6vectorIbNS_9allocatorIbEEEELb0ELm0EEdeB8ue170006Ev, symObjAddr: 0x11C8, symBinAddr: 0x1000059BC, symSize: 0xCC }
  - { offsetInCU: 0x114C4, offset: 0x114C4, size: 0x8, addend: 0x0, symName: __ZNKSt3__115__bit_referenceINS_6vectorIbNS_9allocatorIbEEEELb1EEcvbB8ue170006Ev, symObjAddr: 0x1294, symBinAddr: 0x100005A88, symSize: 0xE4 }
  - { offsetInCU: 0x114EB, offset: 0x114EB, size: 0x8, addend: 0x0, symName: __ZNSt3__114__bit_iteratorINS_6vectorIbNS_9allocatorIbEEEELb0ELm0EEppB8ue170006Ev, symObjAddr: 0x1378, symBinAddr: 0x100005B6C, symSize: 0x1A0 }
  - { offsetInCU: 0x11512, offset: 0x11512, size: 0x8, addend: 0x0, symName: __ZNSt3__16vectorIbNS_9allocatorIbEEE5beginB8ue170006Ev, symObjAddr: 0x10B8, symBinAddr: 0x1000058AC, symSize: 0x4C }
  - { offsetInCU: 0x11547, offset: 0x11547, size: 0x8, addend: 0x0, symName: __ZNSt3__16vectorIbNS_9allocatorIbEEE11__make_iterB8ue170006Em, symObjAddr: 0x6C54, symBinAddr: 0x10000B448, symSize: 0x168 }
  - { offsetInCU: 0x1194A, offset: 0x1194A, size: 0x8, addend: 0x0, symName: __Z5solvev, symObjAddr: 0x1520, symBinAddr: 0x100005D14, symSize: 0x1D4C }
  - { offsetInCU: 0x120FC, offset: 0x120FC, size: 0x8, addend: 0x0, symName: __ZNSt3__16vectorIiNS_9allocatorIiEEEC2Em, symObjAddr: 0x6DBC, symBinAddr: 0x10000B5B0, symSize: 0x338 }
  - { offsetInCU: 0x12254, offset: 0x12254, size: 0x8, addend: 0x0, symName: __ZNSt3__16vectorINS0_IiNS_9allocatorIiEEEENS1_IS3_EEEC2EmRKS3_, symObjAddr: 0x8F10, symBinAddr: 0x10000D704, symSize: 0x340 }
  - { offsetInCU: 0x123C0, offset: 0x123C0, size: 0x8, addend: 0x0, symName: __ZNSt3__16vectorIiNS_9allocatorIiEEE16__destroy_vectorclB8ue170006Ev, symObjAddr: 0x8978, symBinAddr: 0x10000D16C, symSize: 0x240 }
  - { offsetInCU: 0x124EF, offset: 0x124EF, size: 0x8, addend: 0x0, symName: __ZNSt3__117__compressed_pairIP4cellNS_9allocatorIS1_EEEC2B8ue170006IDnNS_18__default_init_tagEEEOT_OT0_, symObjAddr: 0xBCD8, symBinAddr: 0x1000104CC, symSize: 0xB0 }
  - { offsetInCU: 0x1256E, offset: 0x1256E, size: 0x8, addend: 0x0, symName: __ZNSt3__16vectorI4cellNS_9allocatorIS1_EEE12emplace_backIJRiS6_S6_EEERS1_DpOT_, symObjAddr: 0x340C, symBinAddr: 0x100007C00, symSize: 0xC8 }
  - { offsetInCU: 0x1261E, offset: 0x1261E, size: 0x8, addend: 0x0, symName: __ZNSt3__16vectorI4cellNS_9allocatorIS1_EEE16__destroy_vectorclB8ue170006Ev, symObjAddr: 0xBE04, symBinAddr: 0x1000105F8, symSize: 0x240 }
  - { offsetInCU: 0x1274D, offset: 0x1274D, size: 0x8, addend: 0x0, symName: __ZNSt3__16vectorINS0_IiNS_9allocatorIiEEEENS1_IS3_EEE16__destroy_vectorclB8ue170006Ev, symObjAddr: 0xB52C, symBinAddr: 0x10000FD20, symSize: 0x240 }
  - { offsetInCU: 0x1287C, offset: 0x1287C, size: 0x8, addend: 0x0, symName: __ZNSt3__16vectorIiNS_9allocatorIiEEED1B8ue170006Ev, symObjAddr: 0x326C, symBinAddr: 0x100007A60, symSize: 0x1A0 }
  - { offsetInCU: 0x128DD, offset: 0x128DD, size: 0x8, addend: 0x0, symName: __ZNSt3__16vectorI4cellNS_9allocatorIS1_EEED1B8ue170006Ev, symObjAddr: 0x3B70, symBinAddr: 0x100008364, symSize: 0x1A0 }
  - { offsetInCU: 0x1293E, offset: 0x1293E, size: 0x8, addend: 0x0, symName: __ZNSt3__16vectorINS0_IiNS_9allocatorIiEEEENS1_IS3_EEED1B8ue170006Ev, symObjAddr: 0x3D10, symBinAddr: 0x100008504, symSize: 0x1A0 }
  - { offsetInCU: 0x1299F, offset: 0x1299F, size: 0x8, addend: 0x0, symName: __ZNSt3__16vectorI4cellNS_9allocatorIS1_EEE9__end_capB8ue170006Ev, symObjAddr: 0xC734, symBinAddr: 0x100010F28, symSize: 0x70 }
  - { offsetInCU: 0x129CF, offset: 0x129CF, size: 0x8, addend: 0x0, symName: __ZNSt3__16vectorI4cellNS_9allocatorIS1_EEE22__construct_one_at_endB8ue170006IJRiS6_S6_EEEvDpOT_, symObjAddr: 0xC7A4, symBinAddr: 0x100010F98, symSize: 0x300 }
  - { offsetInCU: 0x12B74, offset: 0x12B74, size: 0x8, addend: 0x0, symName: __ZNSt3__16vectorI4cellNS_9allocatorIS1_EEE24__emplace_back_slow_pathIJRiS6_S6_EEEvDpOT_, symObjAddr: 0xCAA4, symBinAddr: 0x100011298, symSize: 0x2D0 }
  - { offsetInCU: 0x12D4E, offset: 0x12D4E, size: 0x8, addend: 0x0, symName: __ZNSt3__16vectorI4cellNS_9allocatorIS1_EEE4backB8ue170006Ev, symObjAddr: 0xCD74, symBinAddr: 0x100011568, symSize: 0xC0 }
  - { offsetInCU: 0x12D75, offset: 0x12D75, size: 0x8, addend: 0x0, symName: _main, symObjAddr: 0x3EB0, symBinAddr: 0x1000086A4, symSize: 0x394 }
  - { offsetInCU: 0x12DD2, offset: 0x12DD2, size: 0x8, addend: 0x0, symName: __ZNSt3__19basic_iosIcNS_11char_traitsIcEEE3tieB8ue170006EPNS_13basic_ostreamIcS2_EE, symObjAddr: 0x4244, symBinAddr: 0x100008A38, symSize: 0x1A0 }
  - { offsetInCU: 0x12EB3, offset: 0x12EB3, size: 0x8, addend: 0x0, symName: __ZNSt3__119ostreambuf_iteratorIcNS_11char_traitsIcEEEC2B8ue170006ERNS_13basic_ostreamIcS2_EE, symObjAddr: 0x6040, symBinAddr: 0x10000A834, symSize: 0x298 }
  - { offsetInCU: 0x12F10, offset: 0x12F10, size: 0x8, addend: 0x0, symName: __ZNKSt3__19basic_iosIcNS_11char_traitsIcEEE4fillB8ue170006Ev, symObjAddr: 0x554C, symBinAddr: 0x100009D40, symSize: 0x248 }
  - { offsetInCU: 0x12F53, offset: 0x12F53, size: 0x8, addend: 0x0, symName: __ZNSt3__19basic_iosIcNS_11char_traitsIcEEE8setstateB8ue170006Ej, symObjAddr: 0x5794, symBinAddr: 0x100009F88, symSize: 0xFC }
  - { offsetInCU: 0x1305C, offset: 0x1305C, size: 0x8, addend: 0x0, symName: __ZNSt3__117__compressed_pairINS_12basic_stringIcNS_11char_traitsIcEENS_9allocatorIcEEE5__repES5_EC1B8ue170006INS_18__default_init_tagESA_EEOT_OT0_, symObjAddr: 0x5A3C, symBinAddr: 0x10000A230, symSize: 0x98 }
  - { offsetInCU: 0x130F9, offset: 0x130F9, size: 0x8, addend: 0x0, symName: __ZNSt3__112basic_stringIcNS_11char_traitsIcEENS_9allocatorIcEEE13__get_pointerB8ue170006Ev, symObjAddr: 0x5DF4, symBinAddr: 0x10000A5E8, symSize: 0x5C }
  - { offsetInCU: 0x1315C, offset: 0x1315C, size: 0x8, addend: 0x0, symName: __ZNSt3__18ios_base5widthB8ue170006El, symObjAddr: 0x589C, symBinAddr: 0x10000A090, symSize: 0x1A0 }
  - { offsetInCU: 0x131A5, offset: 0x131A5, size: 0x8, addend: 0x0, symName: __ZNKSt3__19basic_iosIcNS_11char_traitsIcEEE5widenB8ue170006Ec, symObjAddr: 0x63B8, symBinAddr: 0x10000ABAC, symSize: 0x340 }
  - { offsetInCU: 0x13228, offset: 0x13228, size: 0x8, addend: 0x0, symName: __ZNSt3__18ios_base8setstateB8ue170006Ej, symObjAddr: 0x67F8, symBinAddr: 0x10000AFEC, symSize: 0x19C }
  - { offsetInCU: 0x132C5, offset: 0x132C5, size: 0x8, addend: 0x0, symName: __ZNSt3__122__compressed_pair_elemINS_9allocatorIcEELi1ELb1EEC2B8ue170006ENS_18__default_init_tagE, symObjAddr: 0x5AD4, symBinAddr: 0x10000A2C8, symSize: 0x7C }
  - { offsetInCU: 0x13374, offset: 0x13374, size: 0x8, addend: 0x0, symName: __ZNSt3__112basic_stringIcNS_11char_traitsIcEENS_9allocatorIcEEE19__get_short_pointerB8ue170006Ev, symObjAddr: 0x5B50, symBinAddr: 0x10000A344, symSize: 0x58 }
  - { offsetInCU: 0x133A9, offset: 0x133A9, size: 0x8, addend: 0x0, symName: __ZNSt3__117__compressed_pairINS_12basic_stringIcNS_11char_traitsIcEENS_9allocatorIcEEE5__repES5_E5firstB8ue170006Ev, symObjAddr: 0x5CCC, symBinAddr: 0x10000A4C0, symSize: 0xCC }
  - { offsetInCU: 0x133ED, offset: 0x133ED, size: 0x8, addend: 0x0, symName: __ZNSt12length_errorC1B8ue170006EPKc, symObjAddr: 0x5C20, symBinAddr: 0x10000A414, symSize: 0xAC }
  - { offsetInCU: 0x13487, offset: 0x13487, size: 0x8, addend: 0x0, symName: __ZNKSt3__112basic_stringIcNS_11char_traitsIcEENS_9allocatorIcEEE9__is_longB8ue170006Ev, symObjAddr: 0x5E50, symBinAddr: 0x10000A644, symSize: 0x9C }
  - { offsetInCU: 0x134BB, offset: 0x134BB, size: 0x8, addend: 0x0, symName: __ZNSt3__112basic_stringIcNS_11char_traitsIcEENS_9allocatorIcEEE18__get_long_pointerB8ue170006Ev, symObjAddr: 0x5EEC, symBinAddr: 0x10000A6E0, symSize: 0x88 }
  - { offsetInCU: 0x134EF, offset: 0x134EF, size: 0x8, addend: 0x0, symName: __ZNKSt3__117__compressed_pairINS_12basic_stringIcNS_11char_traitsIcEENS_9allocatorIcEEE5__repES5_E5firstB8ue170006Ev, symObjAddr: 0x5F74, symBinAddr: 0x10000A768, symSize: 0xCC }
  - { offsetInCU: 0x1356D, offset: 0x1356D, size: 0x8, addend: 0x0, symName: __ZNKSt3__18ios_base5rdbufB8ue170006Ev, symObjAddr: 0x62D8, symBinAddr: 0x10000AACC, symSize: 0xE0 }
  - { offsetInCU: 0x135F5, offset: 0x135F5, size: 0x8, addend: 0x0, symName: __ZNKSt3__112basic_stringIcNS_11char_traitsIcEENS_9allocatorIcEEE15__get_long_sizeB8ue170006Ev, symObjAddr: 0x6B2C, symBinAddr: 0x10000B320, symSize: 0x8C }
  - { offsetInCU: 0x13629, offset: 0x13629, size: 0x8, addend: 0x0, symName: __ZNKSt3__112basic_stringIcNS_11char_traitsIcEENS_9allocatorIcEEE16__get_short_sizeB8ue170006Ev, symObjAddr: 0x6BB8, symBinAddr: 0x10000B3AC, symSize: 0x9C }
  - { offsetInCU: 0x1365D, offset: 0x1365D, size: 0x8, addend: 0x0, symName: __ZNKSt3__112basic_stringIcNS_11char_traitsIcEENS_9allocatorIcEEE18__get_long_pointerB8ue170006Ev, symObjAddr: 0x6A4C, symBinAddr: 0x10000B240, symSize: 0x88 }
  - { offsetInCU: 0x13691, offset: 0x13691, size: 0x8, addend: 0x0, symName: __ZNKSt3__112basic_stringIcNS_11char_traitsIcEENS_9allocatorIcEEE19__get_short_pointerB8ue170006Ev, symObjAddr: 0x6AD4, symBinAddr: 0x10000B2C8, symSize: 0x58 }
  - { offsetInCU: 0x13788, offset: 0x13788, size: 0x8, addend: 0x0, symName: __ZNSt3__117__compressed_pairIPiNS_9allocatorIiEEEC2B8ue170006IDnNS_18__default_init_tagEEEOT_OT0_, symObjAddr: 0x75DC, symBinAddr: 0x10000BDD0, symSize: 0xB0 }
  - { offsetInCU: 0x13807, offset: 0x13807, size: 0x8, addend: 0x0, symName: __ZNSt3__16vectorIiNS_9allocatorIiEEE11__vallocateB8ue170006Em, symObjAddr: 0x70F4, symBinAddr: 0x10000B8E8, symSize: 0x1A0 }
  - { offsetInCU: 0x138F2, offset: 0x138F2, size: 0x8, addend: 0x0, symName: __ZNSt3__16vectorIiNS_9allocatorIiEEE18__construct_at_endEm, symObjAddr: 0x7294, symBinAddr: 0x10000BA88, symSize: 0x300 }
  - { offsetInCU: 0x13A2E, offset: 0x13A2E, size: 0x8, addend: 0x0, symName: __ZNSt3__128__exception_guard_exceptionsINS_6vectorIiNS_9allocatorIiEEE16__destroy_vectorEED2B8ue170006Ev, symObjAddr: 0x8894, symBinAddr: 0x10000D088, symSize: 0xE4 }
  - { offsetInCU: 0x13A6D, offset: 0x13A6D, size: 0x8, addend: 0x0, symName: __ZNSt3__128__exception_guard_exceptionsINS_6vectorIiNS_9allocatorIiEEE16__destroy_vectorEED1B8ue170006Ev, symObjAddr: 0x7594, symBinAddr: 0x10000BD88, symSize: 0x48 }
  - { offsetInCU: 0x13ACB, offset: 0x13ACB, size: 0x8, addend: 0x0, symName: __ZNKSt3__16vectorIiNS_9allocatorIiEEE7__allocB8ue170006Ev, symObjAddr: 0x7A80, symBinAddr: 0x10000C274, symSize: 0x70 }
  - { offsetInCU: 0x13AFB, offset: 0x13AFB, size: 0x8, addend: 0x0, symName: __ZNSt3__16vectorIiNS_9allocatorIiEEE7__allocB8ue170006Ev, symObjAddr: 0x7790, symBinAddr: 0x10000BF84, symSize: 0x70 }
  - { offsetInCU: 0x13B2B, offset: 0x13B2B, size: 0x8, addend: 0x0, symName: __ZNSt3__117__compressed_pairIPiNS_9allocatorIiEEE5firstB8ue170006Ev, symObjAddr: 0x7C98, symBinAddr: 0x10000C48C, symSize: 0xCC }
  - { offsetInCU: 0x13B6F, offset: 0x13B6F, size: 0x8, addend: 0x0, symName: __ZNKSt3__16vectorIiNS_9allocatorIiEEE14__annotate_newB8ue170006Em, symObjAddr: 0x7800, symBinAddr: 0x10000BFF4, symSize: 0x280 }
  - { offsetInCU: 0x13C65, offset: 0x13C65, size: 0x8, addend: 0x0, symName: __ZNKSt3__16vectorIiNS_9allocatorIiEEE20__throw_length_errorB8ue170006Ev, symObjAddr: 0x7708, symBinAddr: 0x10000BEFC, symSize: 0x44 }
  - { offsetInCU: 0x13D81, offset: 0x13D81, size: 0x8, addend: 0x0, symName: __ZNSt3__16vectorIiNS_9allocatorIiEEE21_ConstructTransactionC2B8ue170006ERS3_m, symObjAddr: 0x7F2C, symBinAddr: 0x10000C720, symSize: 0x194 }
  - { offsetInCU: 0x13DD9, offset: 0x13DD9, size: 0x8, addend: 0x0, symName: __ZNSt3__117__compressed_pairIPiNS_9allocatorIiEEE6secondB8ue170006Ev, symObjAddr: 0x7BC4, symBinAddr: 0x10000C3B8, symSize: 0xD4 }
  - { offsetInCU: 0x13E1C, offset: 0x13E1C, size: 0x8, addend: 0x0, symName: __ZNSt3__16vectorIiNS_9allocatorIiEEE21_ConstructTransactionD2B8ue170006Ev, symObjAddr: 0x8424, symBinAddr: 0x10000CC18, symSize: 0x214 }
  - { offsetInCU: 0x13E83, offset: 0x13E83, size: 0x8, addend: 0x0, symName: __ZNSt3__122__compressed_pair_elemINS_9allocatorIiEELi1ELb1EEC2B8ue170006ENS_18__default_init_tagE, symObjAddr: 0x768C, symBinAddr: 0x10000BE80, symSize: 0x7C }
  - { offsetInCU: 0x13FAE, offset: 0x13FAE, size: 0x8, addend: 0x0, symName: __ZNKSt3__16vectorIiNS_9allocatorIiEEE8capacityB8ue170006Ev, symObjAddr: 0x7D64, symBinAddr: 0x10000C558, symSize: 0x8C }
  - { offsetInCU: 0x13FE9, offset: 0x13FE9, size: 0x8, addend: 0x0, symName: __ZNKSt3__117__compressed_pairIPiNS_9allocatorIiEEE6secondB8ue170006Ev, symObjAddr: 0x7AF0, symBinAddr: 0x10000C2E4, symSize: 0xD4 }
  - { offsetInCU: 0x14074, offset: 0x14074, size: 0x8, addend: 0x0, symName: __ZNKSt3__16vectorIiNS_9allocatorIiEEE9__end_capB8ue170006Ev, symObjAddr: 0x7DF0, symBinAddr: 0x10000C5E4, symSize: 0x70 }
  - { offsetInCU: 0x140A9, offset: 0x140A9, size: 0x8, addend: 0x0, symName: __ZNKSt3__117__compressed_pairIPiNS_9allocatorIiEEE5firstB8ue170006Ev, symObjAddr: 0x7E60, symBinAddr: 0x10000C654, symSize: 0xCC }
  - { offsetInCU: 0x14109, offset: 0x14109, size: 0x8, addend: 0x0, symName: __ZNKSt3__16vectorIiNS_9allocatorIiEEE19__annotate_increaseB8ue170006Em, symObjAddr: 0x80C0, symBinAddr: 0x10000C8B4, symSize: 0x2D8 }
  - { offsetInCU: 0x14213, offset: 0x14213, size: 0x8, addend: 0x0, symName: __ZNKSt3__16vectorIiNS_9allocatorIiEEE4sizeB8ue170006Ev, symObjAddr: 0x8398, symBinAddr: 0x10000CB8C, symSize: 0x8C }
  - { offsetInCU: 0x1423A, offset: 0x1423A, size: 0x8, addend: 0x0, symName: __ZNKSt3__16vectorIiNS_9allocatorIiEEE17__annotate_shrinkB8ue170006Em, symObjAddr: 0x8638, symBinAddr: 0x10000CE2C, symSize: 0x25C }
  - { offsetInCU: 0x1439E, offset: 0x1439E, size: 0x8, addend: 0x0, symName: __ZNSt3__16vectorIiNS_9allocatorIiEEE22__base_destruct_at_endB8ue170006EPi, symObjAddr: 0x8E28, symBinAddr: 0x10000D61C, symSize: 0xE8 }
  - { offsetInCU: 0x143F9, offset: 0x143F9, size: 0x8, addend: 0x0, symName: __ZNKSt3__16vectorIiNS_9allocatorIiEEE17__annotate_deleteB8ue170006Ev, symObjAddr: 0x8BB8, symBinAddr: 0x10000D3AC, symSize: 0x270 }
  - { offsetInCU: 0x145B5, offset: 0x145B5, size: 0x8, addend: 0x0, symName: __ZNSt3__117__compressed_pairIPNS_6vectorIiNS_9allocatorIiEEEENS2_IS4_EEEC2B8ue170006IDnNS_18__default_init_tagEEEOT_OT0_, symObjAddr: 0x9798, symBinAddr: 0x10000DF8C, symSize: 0xB0 }
  - { offsetInCU: 0x14634, offset: 0x14634, size: 0x8, addend: 0x0, symName: __ZNSt3__16vectorINS0_IiNS_9allocatorIiEEEENS1_IS3_EEE11__vallocateB8ue170006Em, symObjAddr: 0x9250, symBinAddr: 0x10000DA44, symSize: 0x1BC }
  - { offsetInCU: 0x1471F, offset: 0x1471F, size: 0x8, addend: 0x0, symName: __ZNSt3__16vectorINS0_IiNS_9allocatorIiEEEENS1_IS3_EEE18__construct_at_endEmRKS3_, symObjAddr: 0x940C, symBinAddr: 0x10000DC00, symSize: 0x344 }
  - { offsetInCU: 0x14874, offset: 0x14874, size: 0x8, addend: 0x0, symName: __ZNSt3__128__exception_guard_exceptionsINS_6vectorINS1_IiNS_9allocatorIiEEEENS2_IS4_EEE16__destroy_vectorEED2B8ue170006Ev, symObjAddr: 0xB448, symBinAddr: 0x10000FC3C, symSize: 0xE4 }
  - { offsetInCU: 0x148B3, offset: 0x148B3, size: 0x8, addend: 0x0, symName: __ZNSt3__128__exception_guard_exceptionsINS_6vectorINS1_IiNS_9allocatorIiEEEENS2_IS4_EEE16__destroy_vectorEED1B8ue170006Ev, symObjAddr: 0x9750, symBinAddr: 0x10000DF44, symSize: 0x48 }
  - { offsetInCU: 0x14917, offset: 0x14917, size: 0x8, addend: 0x0, symName: __ZNKSt3__16vectorINS0_IiNS_9allocatorIiEEEENS1_IS3_EEE7__allocB8ue170006Ev, symObjAddr: 0x9C74, symBinAddr: 0x10000E468, symSize: 0x70 }
  - { offsetInCU: 0x1494C, offset: 0x1494C, size: 0x8, addend: 0x0, symName: __ZNSt3__16vectorINS0_IiNS_9allocatorIiEEEENS1_IS3_EEE7__allocB8ue170006Ev, symObjAddr: 0x995C, symBinAddr: 0x10000E150, symSize: 0x70 }
  - { offsetInCU: 0x1497C, offset: 0x1497C, size: 0x8, addend: 0x0, symName: __ZNSt3__117__compressed_pairIPNS_6vectorIiNS_9allocatorIiEEEENS2_IS4_EEE5firstB8ue170006Ev, symObjAddr: 0x9E8C, symBinAddr: 0x10000E680, symSize: 0xCC }
  - { offsetInCU: 0x149C0, offset: 0x149C0, size: 0x8, addend: 0x0, symName: __ZNKSt3__16vectorINS0_IiNS_9allocatorIiEEEENS1_IS3_EEE14__annotate_newB8ue170006Em, symObjAddr: 0x99CC, symBinAddr: 0x10000E1C0, symSize: 0x2A8 }
  - { offsetInCU: 0x14AB6, offset: 0x14AB6, size: 0x8, addend: 0x0, symName: __ZNKSt3__16vectorINS0_IiNS_9allocatorIiEEEENS1_IS3_EEE20__throw_length_errorB8ue170006Ev, symObjAddr: 0x98C4, symBinAddr: 0x10000E0B8, symSize: 0x44 }
  - { offsetInCU: 0x14B6E, offset: 0x14B6E, size: 0x8, addend: 0x0, symName: __ZNSt3__16vectorINS0_IiNS_9allocatorIiEEEENS1_IS3_EEE21_ConstructTransactionC2B8ue170006ERS5_m, symObjAddr: 0xA1C8, symBinAddr: 0x10000E9BC, symSize: 0x1A4 }
  - { offsetInCU: 0x14BC6, offset: 0x14BC6, size: 0x8, addend: 0x0, symName: __ZNSt3__117__compressed_pairIPNS_6vectorIiNS_9allocatorIiEEEENS2_IS4_EEE6secondB8ue170006Ev, symObjAddr: 0x9DB8, symBinAddr: 0x10000E5AC, symSize: 0xD4 }
  - { offsetInCU: 0x14C09, offset: 0x14C09, size: 0x8, addend: 0x0, symName: __ZNSt3__116allocator_traitsINS_9allocatorINS_6vectorIiNS1_IiEEEEEEE9constructB8ue170006IS4_JRKS4_EvEEvRS5_PT_DpOT0_, symObjAddr: 0xA12C, symBinAddr: 0x10000E920, symSize: 0x54 }
  - { offsetInCU: 0x14CAF, offset: 0x14CAF, size: 0x8, addend: 0x0, symName: __ZNSt3__16vectorINS0_IiNS_9allocatorIiEEEENS1_IS3_EEE21_ConstructTransactionD2B8ue170006Ev, symObjAddr: 0xAFA4, symBinAddr: 0x10000F798, symSize: 0x220 }
  - { offsetInCU: 0x14CE7, offset: 0x14CE7, size: 0x8, addend: 0x0, symName: __ZNSt3__16vectorINS0_IiNS_9allocatorIiEEEENS1_IS3_EEE21_ConstructTransactionD1B8ue170006Ev, symObjAddr: 0xA180, symBinAddr: 0x10000E974, symSize: 0x48 }
  - { offsetInCU: 0x14D46, offset: 0x14D46, size: 0x8, addend: 0x0, symName: __ZNSt3__122__compressed_pair_elemINS_9allocatorINS_6vectorIiNS1_IiEEEEEELi1ELb1EEC2B8ue170006ENS_18__default_init_tagE, symObjAddr: 0x9848, symBinAddr: 0x10000E03C, symSize: 0x7C }
  - { offsetInCU: 0x14E72, offset: 0x14E72, size: 0x8, addend: 0x0, symName: __ZNKSt3__16vectorINS0_IiNS_9allocatorIiEEEENS1_IS3_EEE8capacityB8ue170006Ev, symObjAddr: 0x9F58, symBinAddr: 0x10000E74C, symSize: 0x98 }
  - { offsetInCU: 0x14EAD, offset: 0x14EAD, size: 0x8, addend: 0x0, symName: __ZNKSt3__117__compressed_pairIPNS_6vectorIiNS_9allocatorIiEEEENS2_IS4_EEE6secondB8ue170006Ev, symObjAddr: 0x9CE4, symBinAddr: 0x10000E4D8, symSize: 0xD4 }
  - { offsetInCU: 0x14F38, offset: 0x14F38, size: 0x8, addend: 0x0, symName: __ZNKSt3__16vectorINS0_IiNS_9allocatorIiEEEENS1_IS3_EEE9__end_capB8ue170006Ev, symObjAddr: 0x9FF0, symBinAddr: 0x10000E7E4, symSize: 0x70 }
  - { offsetInCU: 0x14F6D, offset: 0x14F6D, size: 0x8, addend: 0x0, symName: __ZNKSt3__117__compressed_pairIPNS_6vectorIiNS_9allocatorIiEEEENS2_IS4_EEE5firstB8ue170006Ev, symObjAddr: 0xA060, symBinAddr: 0x10000E854, symSize: 0xCC }
  - { offsetInCU: 0x15035, offset: 0x15035, size: 0x8, addend: 0x0, symName: __ZNSt3__16vectorIiNS_9allocatorIiEEEC2ERKS3_, symObjAddr: 0xA710, symBinAddr: 0x10000EF04, symSize: 0x240 }
  - { offsetInCU: 0x15114, offset: 0x15114, size: 0x8, addend: 0x0, symName: __ZNKSt3__16vectorINS0_IiNS_9allocatorIiEEEENS1_IS3_EEE19__annotate_increaseB8ue170006Em, symObjAddr: 0xA36C, symBinAddr: 0x10000EB60, symSize: 0x30C }
  - { offsetInCU: 0x1521E, offset: 0x1521E, size: 0x8, addend: 0x0, symName: __ZNKSt3__16vectorINS0_IiNS_9allocatorIiEEEENS1_IS3_EEE4sizeB8ue170006Ev, symObjAddr: 0xA678, symBinAddr: 0x10000EE6C, symSize: 0x98 }
  - { offsetInCU: 0x152A3, offset: 0x152A3, size: 0x8, addend: 0x0, symName: __ZNSt3__117__compressed_pairIPiNS_9allocatorIiEEEC2B8ue170006IDnS3_EEOT_OT0_, symObjAddr: 0xAC04, symBinAddr: 0x10000F3F8, symSize: 0xB0 }
  - { offsetInCU: 0x15314, offset: 0x15314, size: 0x8, addend: 0x0, symName: __ZNSt3__16vectorIiNS_9allocatorIiEEE16__init_with_sizeB8ue170006IPiS5_EEvT_T0_m, symObjAddr: 0xA950, symBinAddr: 0x10000F144, symSize: 0x2B4 }
  - { offsetInCU: 0x1545B, offset: 0x1545B, size: 0x8, addend: 0x0, symName: __ZNSt3__16vectorIiNS_9allocatorIiEEE18__construct_at_endIPiS5_EEvT_T0_m, symObjAddr: 0xACB4, symBinAddr: 0x10000F4A8, symSize: 0x2F0 }
  - { offsetInCU: 0x15830, offset: 0x15830, size: 0x8, addend: 0x0, symName: __ZNKSt3__16vectorINS0_IiNS_9allocatorIiEEEENS1_IS3_EEE17__annotate_shrinkB8ue170006Em, symObjAddr: 0xB1C4, symBinAddr: 0x10000F9B8, symSize: 0x284 }
  - { offsetInCU: 0x15994, offset: 0x15994, size: 0x8, addend: 0x0, symName: __ZNSt3__16vectorINS0_IiNS_9allocatorIiEEEENS1_IS3_EEE22__base_destruct_at_endB8ue170006EPS3_, symObjAddr: 0xBA04, symBinAddr: 0x1000101F8, symSize: 0x100 }
  - { offsetInCU: 0x15A27, offset: 0x15A27, size: 0x8, addend: 0x0, symName: __ZNKSt3__16vectorINS0_IiNS_9allocatorIiEEEENS1_IS3_EEE17__annotate_deleteB8ue170006Ev, symObjAddr: 0xB76C, symBinAddr: 0x10000FF60, symSize: 0x298 }
  - { offsetInCU: 0x15B4B, offset: 0x15B4B, size: 0x8, addend: 0x0, symName: __ZNSt3__19allocatorINS_6vectorIiNS0_IiEEEEE7destroyB8ue170006EPS3_, symObjAddr: 0xBB04, symBinAddr: 0x1000102F8, symSize: 0x1D4 }
  - { offsetInCU: 0x15C01, offset: 0x15C01, size: 0x8, addend: 0x0, symName: __ZNSt3__122__compressed_pair_elemINS_9allocatorI4cellEELi1ELb1EEC2B8ue170006ENS_18__default_init_tagE, symObjAddr: 0xBD88, symBinAddr: 0x10001057C, symSize: 0x7C }
  - { offsetInCU: 0x15D1E, offset: 0x15D1E, size: 0x8, addend: 0x0, symName: __ZNSt3__16vectorI4cellNS_9allocatorIS1_EEE22__base_destruct_at_endB8ue170006EPS1_, symObjAddr: 0xC3B0, symBinAddr: 0x100010BA4, symSize: 0xE8 }
  - { offsetInCU: 0x15D79, offset: 0x15D79, size: 0x8, addend: 0x0, symName: __ZNKSt3__16vectorI4cellNS_9allocatorIS1_EEE17__annotate_deleteB8ue170006Ev, symObjAddr: 0xC044, symBinAddr: 0x100010838, symSize: 0x270 }
  - { offsetInCU: 0x15E73, offset: 0x15E73, size: 0x8, addend: 0x0, symName: __ZNSt3__16vectorI4cellNS_9allocatorIS1_EEE7__allocB8ue170006Ev, symObjAddr: 0xC2B4, symBinAddr: 0x100010AA8, symSize: 0x70 }
  - { offsetInCU: 0x15EA3, offset: 0x15EA3, size: 0x8, addend: 0x0, symName: __ZNKSt3__16vectorI4cellNS_9allocatorIS1_EEE8capacityB8ue170006Ev, symObjAddr: 0xC324, symBinAddr: 0x100010B18, symSize: 0x8C }
  - { offsetInCU: 0x15F40, offset: 0x15F40, size: 0x8, addend: 0x0, symName: __ZNKSt3__16vectorI4cellNS_9allocatorIS1_EEE4sizeB8ue170006Ev, symObjAddr: 0xC498, symBinAddr: 0x100010C8C, symSize: 0x8C }
  - { offsetInCU: 0x15F67, offset: 0x15F67, size: 0x8, addend: 0x0, symName: __ZNSt3__117__compressed_pairIP4cellNS_9allocatorIS1_EEE6secondB8ue170006Ev, symObjAddr: 0xC524, symBinAddr: 0x100010D18, symSize: 0xD4 }
  - { offsetInCU: 0x15FAA, offset: 0x15FAA, size: 0x8, addend: 0x0, symName: __ZNKSt3__16vectorI4cellNS_9allocatorIS1_EEE9__end_capB8ue170006Ev, symObjAddr: 0xC5F8, symBinAddr: 0x100010DEC, symSize: 0x70 }
  - { offsetInCU: 0x15FF5, offset: 0x15FF5, size: 0x8, addend: 0x0, symName: __ZNKSt3__117__compressed_pairIP4cellNS_9allocatorIS1_EEE5firstB8ue170006Ev, symObjAddr: 0xC668, symBinAddr: 0x100010E5C, symSize: 0xCC }
  - { offsetInCU: 0x16055, offset: 0x16055, size: 0x8, addend: 0x0, symName: __ZNSt3__117__compressed_pairIP4cellNS_9allocatorIS1_EEE5firstB8ue170006Ev, symObjAddr: 0xCE34, symBinAddr: 0x100011628, symSize: 0xCC }
  - { offsetInCU: 0x16180, offset: 0x16180, size: 0x8, addend: 0x0, symName: __ZNSt3__16vectorI4cellNS_9allocatorIS1_EEE21_ConstructTransactionC2B8ue170006ERS4_m, symObjAddr: 0xCF48, symBinAddr: 0x10001173C, symSize: 0x194 }
  - { offsetInCU: 0x161D8, offset: 0x161D8, size: 0x8, addend: 0x0, symName: __ZNSt3__19allocatorI4cellE9constructB8ue170006IS1_JRiS4_S4_EEEvPT_DpOT0_, symObjAddr: 0xD3B4, symBinAddr: 0x100011BA8, symSize: 0x1D8 }
  - { offsetInCU: 0x162B2, offset: 0x162B2, size: 0x8, addend: 0x0, symName: __ZNSt3__16vectorI4cellNS_9allocatorIS1_EEE21_ConstructTransactionD2B8ue170006Ev, symObjAddr: 0xD58C, symBinAddr: 0x100011D80, symSize: 0x214 }
  - { offsetInCU: 0x162EA, offset: 0x162EA, size: 0x8, addend: 0x0, symName: __ZNSt3__16vectorI4cellNS_9allocatorIS1_EEE21_ConstructTransactionD1B8ue170006Ev, symObjAddr: 0xCF00, symBinAddr: 0x1000116F4, symSize: 0x48 }
  - { offsetInCU: 0x16379, offset: 0x16379, size: 0x8, addend: 0x0, symName: __ZNKSt3__16vectorI4cellNS_9allocatorIS1_EEE11__recommendB8ue170006Em, symObjAddr: 0xD9FC, symBinAddr: 0x1000121F0, symSize: 0x9C }
  - { offsetInCU: 0x16425, offset: 0x16425, size: 0x8, addend: 0x0, symName: __ZNSt3__114__split_bufferI4cellRNS_9allocatorIS1_EEEC2EmmS4_, symObjAddr: 0xE0A8, symBinAddr: 0x10001289C, symSize: 0x35C }
  - { offsetInCU: 0x1652C, offset: 0x1652C, size: 0x8, addend: 0x0, symName: __ZNSt3__114__split_bufferI4cellRNS_9allocatorIS1_EEED2Ev, symObjAddr: 0xEE2C, symBinAddr: 0x100013620, symSize: 0xF4 }
  - { offsetInCU: 0x1663C, offset: 0x1663C, size: 0x8, addend: 0x0, symName: __ZNSt3__114__split_bufferI4cellRNS_9allocatorIS1_EEED1Ev, symObjAddr: 0xDED8, symBinAddr: 0x1000126CC, symSize: 0x48 }
  - { offsetInCU: 0x16682, offset: 0x16682, size: 0x8, addend: 0x0, symName: __ZNKSt3__16vectorI4cellNS_9allocatorIS1_EEE19__annotate_increaseB8ue170006Em, symObjAddr: 0xD0DC, symBinAddr: 0x1000118D0, symSize: 0x2D8 }
  - { offsetInCU: 0x16802, offset: 0x16802, size: 0x8, addend: 0x0, symName: __ZNKSt3__16vectorI4cellNS_9allocatorIS1_EEE17__annotate_shrinkB8ue170006Em, symObjAddr: 0xD7A0, symBinAddr: 0x100011F94, symSize: 0x25C }
  - { offsetInCU: 0x16910, offset: 0x16910, size: 0x8, addend: 0x0, symName: __ZNKSt3__16vectorI4cellNS_9allocatorIS1_EEE7__allocB8ue170006Ev, symObjAddr: 0xDF64, symBinAddr: 0x100012758, symSize: 0x70 }
  - { offsetInCU: 0x16945, offset: 0x16945, size: 0x8, addend: 0x0, symName: __ZNKSt3__16vectorI4cellNS_9allocatorIS1_EEE20__throw_length_errorB8ue170006Ev, symObjAddr: 0xDF20, symBinAddr: 0x100012714, symSize: 0x44 }
  - { offsetInCU: 0x169CD, offset: 0x169CD, size: 0x8, addend: 0x0, symName: __ZNKSt3__111__move_loopINS_17_ClassicAlgPolicyEEclB8ue170006INS_16reverse_iteratorIP4cellEES7_S7_EENS_4pairIT_T1_EES9_T0_SA_, symObjAddr: 0xEA00, symBinAddr: 0x1000131F4, symSize: 0x36C }
  - { offsetInCU: 0x16B3D, offset: 0x16B3D, size: 0x8, addend: 0x0, symName: __ZNSt3__117__compressed_pairIP4cellRNS_9allocatorIS1_EEE5firstB8ue170006Ev, symObjAddr: 0xE6B4, symBinAddr: 0x100012EA8, symSize: 0xCC }
  - { offsetInCU: 0x16B81, offset: 0x16B81, size: 0x8, addend: 0x0, symName: __ZNKSt3__16vectorI4cellNS_9allocatorIS1_EEE14__annotate_newB8ue170006Em, symObjAddr: 0xE780, symBinAddr: 0x100012F74, symSize: 0x280 }
  - { offsetInCU: 0x16C77, offset: 0x16C77, size: 0x8, addend: 0x0, symName: __ZNKSt3__117__compressed_pairIP4cellNS_9allocatorIS1_EEE6secondB8ue170006Ev, symObjAddr: 0xDFD4, symBinAddr: 0x1000127C8, symSize: 0xD4 }
  - { offsetInCU: 0x16D18, offset: 0x16D18, size: 0x8, addend: 0x0, symName: __ZNSt3__117__compressed_pairIP4cellRNS_9allocatorIS1_EEEC2B8ue170006IDnS5_EEOT_OT0_, symObjAddr: 0xE4B8, symBinAddr: 0x100012CAC, symSize: 0xFC }
  - { offsetInCU: 0x16DA8, offset: 0x16DA8, size: 0x8, addend: 0x0, symName: __ZNSt3__114__split_bufferI4cellRNS_9allocatorIS1_EEE7__allocB8ue170006Ev, symObjAddr: 0xE448, symBinAddr: 0x100012C3C, symSize: 0x70 }
  - { offsetInCU: 0x16DF9, offset: 0x16DF9, size: 0x8, addend: 0x0, symName: __ZNSt3__117__compressed_pairIP4cellRNS_9allocatorIS1_EEE6secondB8ue170006Ev, symObjAddr: 0xE5B4, symBinAddr: 0x100012DA8, symSize: 0x100 }
  - { offsetInCU: 0x16F79, offset: 0x16F79, size: 0x8, addend: 0x0, symName: __ZNKSt3__116reverse_iteratorIP4cellEdeB8ue170006Ev, symObjAddr: 0xED6C, symBinAddr: 0x100013560, symSize: 0xC0 }
  - { offsetInCU: 0x16FC5, offset: 0x16FC5, size: 0x8, addend: 0x0, symName: __ZNSt3__114__split_bufferI4cellRNS_9allocatorIS1_EEE5clearB8ue170006Ev, symObjAddr: 0xEF20, symBinAddr: 0x100013714, symSize: 0xAC }
  - { offsetInCU: 0x17019, offset: 0x17019, size: 0x8, addend: 0x0, symName: __ZNKSt3__114__split_bufferI4cellRNS_9allocatorIS1_EEE8capacityB8ue170006Ev, symObjAddr: 0xEFCC, symBinAddr: 0x1000137C0, symSize: 0x8C }
  - { offsetInCU: 0x17075, offset: 0x17075, size: 0x8, addend: 0x0, symName: __ZNSt3__114__split_bufferI4cellRNS_9allocatorIS1_EEE17__destruct_at_endB8ue170006EPS1_NS_17integral_constantIbLb0EEE, symObjAddr: 0xF058, symBinAddr: 0x10001384C, symSize: 0x100 }
  - { offsetInCU: 0x170C9, offset: 0x170C9, size: 0x8, addend: 0x0, symName: __ZNKSt3__114__split_bufferI4cellRNS_9allocatorIS1_EEE9__end_capB8ue170006Ev, symObjAddr: 0xF158, symBinAddr: 0x10001394C, symSize: 0x70 }
  - { offsetInCU: 0x170FE, offset: 0x170FE, size: 0x8, addend: 0x0, symName: __ZNKSt3__117__compressed_pairIP4cellRNS_9allocatorIS1_EEE5firstB8ue170006Ev, symObjAddr: 0xF1C8, symBinAddr: 0x1000139BC, symSize: 0xCC }
  - { offsetInCU: 0x171A7, offset: 0x171A7, size: 0x8, addend: 0x0, symName: __ZNSt3__18_IterOpsINS_17_ClassicAlgPolicyEE9iter_swapB8ue170006IRP4cellS5_EEvOT_OT0_, symObjAddr: 0x112A0, symBinAddr: 0x100015A94, symSize: 0x1E4 }
  - { offsetInCU: 0x17236, offset: 0x17236, size: 0x8, addend: 0x0, symName: __ZNSt3__18_IterOpsINS_17_ClassicAlgPolicyEE9iter_swapB8ue170006IRP4cellS6_EEvOT_OT0_, symObjAddr: 0x1023C, symBinAddr: 0x100014A30, symSize: 0x1E4 }
  - { offsetInCU: 0x172FE, offset: 0x172FE, size: 0x8, addend: 0x0, symName: __ZNSt3__14pairIP4cellbEC1B8ue170006IRS2_RbLPv0EEEOT_OT0_, symObjAddr: 0x14DD0, symBinAddr: 0x1000195C4, symSize: 0x130 }
...
