---
triple:          'arm64-apple-darwin'
binary-path:     '/Users/eric/Workspace/compprog/codeforces/contest/915virtual/D_Cyclic_MEX.bin'
relocations:
  - { offsetInCU: 0x3B, offset: 0x3B, size: 0x8, addend: 0x0, symName: _.str, symObjAddr: 0x18240, symBinAddr: 0x10001C9A0, symSize: 0x0 }
  - { offsetInCU: 0x6B, offset: 0x6B, size: 0x8, addend: 0x0, symName: _.str.1, symObjAddr: 0x18260, symBinAddr: 0x10001C9C0, symSize: 0x0 }
  - { offsetInCU: 0x7C, offset: 0x7C, size: 0x8, addend: 0x0, symName: _.str.2, symObjAddr: 0x18280, symBinAddr: 0x10001C9E0, symSize: 0x0 }
  - { offsetInCU: 0x8D, offset: 0x8D, size: 0x8, addend: 0x0, symName: _.str.3, symObjAddr: 0x18520, symBinAddr: 0x10001CC80, symSize: 0x0 }
  - { offsetInCU: 0xAA, offset: 0xAA, size: 0x8, addend: 0x0, symName: _.str.4, symObjAddr: 0x182A0, symBinAddr: 0x10001CA00, symSize: 0x0 }
  - { offsetInCU: 0xBB, offset: 0xBB, size: 0x8, addend: 0x0, symName: _.str.6, symObjAddr: 0x182C0, symBinAddr: 0x10001CA20, symSize: 0x0 }
  - { offsetInCU: 0xD8, offset: 0xD8, size: 0x8, addend: 0x0, symName: _.str.7, symObjAddr: 0x182E0, symBinAddr: 0x10001CA40, symSize: 0x0 }
  - { offsetInCU: 0xF5, offset: 0xF5, size: 0x8, addend: 0x0, symName: _.str.8, symObjAddr: 0x18340, symBinAddr: 0x10001CAA0, symSize: 0x0 }
  - { offsetInCU: 0x113, offset: 0x113, size: 0x8, addend: 0x0, symName: _.str.20, symObjAddr: 0x18380, symBinAddr: 0x10001CAE0, symSize: 0x0 }
  - { offsetInCU: 0x131, offset: 0x131, size: 0x8, addend: 0x0, symName: _.str.32, symObjAddr: 0x183A0, symBinAddr: 0x10001CB00, symSize: 0x0 }
  - { offsetInCU: 0x15C, offset: 0x15C, size: 0x8, addend: 0x0, symName: __ZNSt3__119piecewise_constructE, symObjAddr: 0x1AEC0, symBinAddr: 0x10001F620, symSize: 0x0 }
  - { offsetInCU: 0x3439, offset: 0x3439, size: 0x8, addend: 0x0, symName: __ZNSt3__124__put_character_sequenceB8ue170006IcNS_11char_traitsIcEEEERNS_13basic_ostreamIT_T0_EES7_PKS4_m, symObjAddr: 0x4FDC, symBinAddr: 0x100009420, symSize: 0x910 }
  - { offsetInCU: 0xC0EB, offset: 0xC0EB, size: 0x8, addend: 0x0, symName: __ZNSt3__1lsB8ue170006IcNS_11char_traitsIcEENS_9allocatorIcEEEERNS_13basic_ostreamIT_T0_EES9_RKNS_12basic_stringIS6_S7_T1_EE, symObjAddr: 0xB8C, symBinAddr: 0x100004FD0, symSize: 0x48 }
  - { offsetInCU: 0xC1A5, offset: 0xC1A5, size: 0x8, addend: 0x0, symName: __ZNSt3__1neB8ue170006ERKNS_14__bit_iteratorINS_6vectorIbNS_9allocatorIbEEEELb0ELm0EEES7_, symObjAddr: 0x1104, symBinAddr: 0x100005548, symSize: 0xC4 }
  - { offsetInCU: 0xCFA4, offset: 0xCFA4, size: 0x8, addend: 0x0, symName: __ZNSt3__1eqB8ue170006IPiEEbRKNS_11__wrap_iterIT_EES6_, symObjAddr: 0x4F84, symBinAddr: 0x1000093C8, symSize: 0x58 }
  - { offsetInCU: 0xD038, offset: 0xD038, size: 0x8, addend: 0x0, symName: __ZNSt3__116__pad_and_outputB8ue170006IcNS_11char_traitsIcEEEENS_19ostreambuf_iteratorIT_T0_EES6_PKS4_S8_S8_RNS_8ios_baseES4_, symObjAddr: 0x58EC, symBinAddr: 0x100009D30, symSize: 0x800 }
  - { offsetInCU: 0xD298, offset: 0xD298, size: 0x8, addend: 0x0, symName: __ZNSt3__120__throw_length_errorB8ue170006EPKc, symObjAddr: 0x6748, symBinAddr: 0x10000AB8C, symSize: 0x78 }
  - { offsetInCU: 0xD774, offset: 0xD774, size: 0x8, addend: 0x0, symName: __ZNSt3__19use_facetB8ue170006INS_5ctypeIcEEEERKT_RKNS_6localeE, symObjAddr: 0x7298, symBinAddr: 0x10000B6DC, symSize: 0x100 }
  - { offsetInCU: 0xD7CF, offset: 0xD7CF, size: 0x8, addend: 0x0, symName: __ZNSt3__119__allocate_at_leastB8ue170006INS_9allocatorIiEEEENS_19__allocation_resultINS_16allocator_traitsIT_E7pointerEEERS5_m, symObjAddr: 0x82EC, symBinAddr: 0x10000C730, symSize: 0x44 }
  - { offsetInCU: 0xDA5B, offset: 0xDA5B, size: 0x8, addend: 0x0, symName: __ZNSt3__127__tree_balance_after_insertB8ue170006IPNS_16__tree_node_baseIPvEEEEvT_S5_, symObjAddr: 0xD430, symBinAddr: 0x100011874, symSize: 0x11B8 }
  - { offsetInCU: 0xDC8C, offset: 0xDC8C, size: 0x8, addend: 0x0, symName: __ZNSt3__116__tree_prev_iterB8ue170006IPNS_16__tree_node_baseIPvEEPNS_15__tree_end_nodeIS4_EEEET_T0_, symObjAddr: 0xC4B8, symBinAddr: 0x1000108FC, symSize: 0x3D0 }
  - { offsetInCU: 0xDD7D, offset: 0xDD7D, size: 0x8, addend: 0x0, symName: __ZNSt3__116__tree_next_iterB8ue170006IPNS_15__tree_end_nodeIPNS_16__tree_node_baseIPvEEEES5_EET_T0_, symObjAddr: 0xCA44, symBinAddr: 0x100010E88, symSize: 0x41C }
  - { offsetInCU: 0xDE24, offset: 0xDE24, size: 0x8, addend: 0x0, symName: __ZNSt3__119__tree_right_rotateB8ue170006IPNS_16__tree_node_baseIPvEEEEvT_, symObjAddr: 0xEC60, symBinAddr: 0x1000130A4, symSize: 0x834 }
  - { offsetInCU: 0xDED7, offset: 0xDED7, size: 0x8, addend: 0x0, symName: __ZNSt3__118__tree_left_rotateB8ue170006IPNS_16__tree_node_baseIPvEEEEvT_, symObjAddr: 0xE658, symBinAddr: 0x100012A9C, symSize: 0x608 }
  - { offsetInCU: 0xE7F4, offset: 0xE7F4, size: 0x8, addend: 0x0, symName: __ZSt28__throw_bad_array_new_lengthB8ue170006v, symObjAddr: 0x6938, symBinAddr: 0x10000AD7C, symSize: 0x5C }
  - { offsetInCU: 0xE821, offset: 0xE821, size: 0x8, addend: 0x0, symName: _.str.50, symObjAddr: 0x183C0, symBinAddr: 0x10001CB20, symSize: 0x0 }
  - { offsetInCU: 0xE832, offset: 0xE832, size: 0x8, addend: 0x0, symName: _.str.51, symObjAddr: 0x183E0, symBinAddr: 0x10001CB40, symSize: 0x0 }
  - { offsetInCU: 0xE843, offset: 0xE843, size: 0x8, addend: 0x0, symName: _.str.52, symObjAddr: 0x18400, symBinAddr: 0x10001CB60, symSize: 0x0 }
  - { offsetInCU: 0xF7B9, offset: 0xF7B9, size: 0x8, addend: 0x0, symName: __ZNSt3__16vectorIiNS_9allocatorIiEEE26__swap_out_circular_bufferERNS_14__split_bufferIiRS2_EE, symObjAddr: 0x13294, symBinAddr: 0x1000176D8, symSize: 0x440 }
  - { offsetInCU: 0x11FF1, offset: 0x11FF1, size: 0x8, addend: 0x0, symName: __ZN14__DEBUG_UTIL__5printEPKc, symObjAddr: 0x0, symBinAddr: 0x100004444, symSize: 0x30 }
  - { offsetInCU: 0x1207F, offset: 0x1207F, size: 0x8, addend: 0x0, symName: __ZN14__DEBUG_UTIL__5printEb, symObjAddr: 0x30, symBinAddr: 0x100004474, symSize: 0x28 }
  - { offsetInCU: 0x120DB, offset: 0x120DB, size: 0x8, addend: 0x0, symName: __ZN14__DEBUG_UTIL__5printEc, symObjAddr: 0x58, symBinAddr: 0x10000449C, symSize: 0x21C }
  - { offsetInCU: 0x121B5, offset: 0x121B5, size: 0x8, addend: 0x0, symName: __ZN14__DEBUG_UTIL__5printEs, symObjAddr: 0x274, symBinAddr: 0x1000046B8, symSize: 0xA8 }
  - { offsetInCU: 0x121DF, offset: 0x121DF, size: 0x8, addend: 0x0, symName: __ZN14__DEBUG_UTIL__5printEt, symObjAddr: 0x31C, symBinAddr: 0x100004760, symSize: 0xA8 }
  - { offsetInCU: 0x12209, offset: 0x12209, size: 0x8, addend: 0x0, symName: __ZN14__DEBUG_UTIL__5printEi, symObjAddr: 0x3C4, symBinAddr: 0x100004808, symSize: 0xA8 }
  - { offsetInCU: 0x12227, offset: 0x12227, size: 0x8, addend: 0x0, symName: __ZN14__DEBUG_UTIL__5printEj, symObjAddr: 0x46C, symBinAddr: 0x1000048B0, symSize: 0xA8 }
  - { offsetInCU: 0x12251, offset: 0x12251, size: 0x8, addend: 0x0, symName: __ZN14__DEBUG_UTIL__5printEl, symObjAddr: 0x514, symBinAddr: 0x100004958, symSize: 0xA8 }
  - { offsetInCU: 0x1227B, offset: 0x1227B, size: 0x8, addend: 0x0, symName: __ZN14__DEBUG_UTIL__5printEm, symObjAddr: 0x5BC, symBinAddr: 0x100004A00, symSize: 0xA8 }
  - { offsetInCU: 0x122A5, offset: 0x122A5, size: 0x8, addend: 0x0, symName: __ZN14__DEBUG_UTIL__5printEx, symObjAddr: 0x664, symBinAddr: 0x100004AA8, symSize: 0xA8 }
  - { offsetInCU: 0x122CF, offset: 0x122CF, size: 0x8, addend: 0x0, symName: __ZN14__DEBUG_UTIL__5printEy, symObjAddr: 0x70C, symBinAddr: 0x100004B50, symSize: 0xA8 }
  - { offsetInCU: 0x122F9, offset: 0x122F9, size: 0x8, addend: 0x0, symName: __ZN14__DEBUG_UTIL__5printEf, symObjAddr: 0x7B4, symBinAddr: 0x100004BF8, symSize: 0xA0 }
  - { offsetInCU: 0x12323, offset: 0x12323, size: 0x8, addend: 0x0, symName: __ZN14__DEBUG_UTIL__5printEd, symObjAddr: 0x854, symBinAddr: 0x100004C98, symSize: 0xA0 }
  - { offsetInCU: 0x1234D, offset: 0x1234D, size: 0x8, addend: 0x0, symName: __ZN14__DEBUG_UTIL__5printEe, symObjAddr: 0x8F4, symBinAddr: 0x100004D38, symSize: 0xA0 }
  - { offsetInCU: 0x12377, offset: 0x12377, size: 0x8, addend: 0x0, symName: __ZN14__DEBUG_UTIL__5printENSt3__112basic_stringIcNS0_11char_traitsIcEENS0_9allocatorIcEEEE, symObjAddr: 0x994, symBinAddr: 0x100004DD8, symSize: 0x1F8 }
  - { offsetInCU: 0x12424, offset: 0x12424, size: 0x8, addend: 0x0, symName: __ZN14__DEBUG_UTIL__5printENSt3__16vectorIbNS0_9allocatorIbEEEE, symObjAddr: 0xBD4, symBinAddr: 0x100005018, symSize: 0x4E4 }
  - { offsetInCU: 0x12699, offset: 0x12699, size: 0x8, addend: 0x0, symName: __ZN14__DEBUG_UTIL__7printerEPKc, symObjAddr: 0x1518, symBinAddr: 0x10000595C, symSize: 0x4 }
  - { offsetInCU: 0x126BE, offset: 0x126BE, size: 0x8, addend: 0x0, symName: __ZN14__DEBUG_UTIL__10printerArrEPKc, symObjAddr: 0x151C, symBinAddr: 0x100005960, symSize: 0x4 }
  - { offsetInCU: 0x126E3, offset: 0x126E3, size: 0x8, addend: 0x0, symName: __ZN14__DEBUG_UTIL__7printerIRiJiiEEEvPKcOT_DpOT0_, symObjAddr: 0x3AF4, symBinAddr: 0x100007F38, symSize: 0x898 }
  - { offsetInCU: 0x12812, offset: 0x12812, size: 0x8, addend: 0x0, symName: __ZN14__DEBUG_UTIL__7printerIRiJS1_EEEvPKcOT_DpOT0_, symObjAddr: 0x14F8C, symBinAddr: 0x1000193D0, symSize: 0x8D0 }
  - { offsetInCU: 0x1291C, offset: 0x1291C, size: 0x8, addend: 0x0, symName: __ZN14__DEBUG_UTIL__7printerIRiJEEEvPKcOT_DpOT0_, symObjAddr: 0x1585C, symBinAddr: 0x100019CA0, symSize: 0x6AC }
  - { offsetInCU: 0x12A2B, offset: 0x12A2B, size: 0x8, addend: 0x0, symName: __ZNKSt3__112basic_stringIcNS_11char_traitsIcEENS_9allocatorIcEEE13__get_pointerB8ue170006Ev, symObjAddr: 0x7590, symBinAddr: 0x10000B9D4, symSize: 0x5C }
  - { offsetInCU: 0x12A8E, offset: 0x12A8E, size: 0x8, addend: 0x0, symName: __ZNKSt3__112basic_stringIcNS_11char_traitsIcEENS_9allocatorIcEEE4sizeB8ue170006Ev, symObjAddr: 0x7534, symBinAddr: 0x10000B978, symSize: 0x5C }
  - { offsetInCU: 0x12BAF, offset: 0x12BAF, size: 0x8, addend: 0x0, symName: __ZNKSt3__114__bit_iteratorINS_6vectorIbNS_9allocatorIbEEEELb0ELm0EEdeB8ue170006Ev, symObjAddr: 0x11C8, symBinAddr: 0x10000560C, symSize: 0xCC }
  - { offsetInCU: 0x12BD6, offset: 0x12BD6, size: 0x8, addend: 0x0, symName: __ZNKSt3__115__bit_referenceINS_6vectorIbNS_9allocatorIbEEEELb1EEcvbB8ue170006Ev, symObjAddr: 0x1294, symBinAddr: 0x1000056D8, symSize: 0xE4 }
  - { offsetInCU: 0x12BFD, offset: 0x12BFD, size: 0x8, addend: 0x0, symName: __ZNSt3__114__bit_iteratorINS_6vectorIbNS_9allocatorIbEEEELb0ELm0EEppB8ue170006Ev, symObjAddr: 0x1378, symBinAddr: 0x1000057BC, symSize: 0x1A0 }
  - { offsetInCU: 0x12C24, offset: 0x12C24, size: 0x8, addend: 0x0, symName: __ZNSt3__16vectorIbNS_9allocatorIbEEE5beginB8ue170006Ev, symObjAddr: 0x10B8, symBinAddr: 0x1000054FC, symSize: 0x4C }
  - { offsetInCU: 0x12C59, offset: 0x12C59, size: 0x8, addend: 0x0, symName: __ZNSt3__16vectorIbNS_9allocatorIbEEE11__make_iterB8ue170006Em, symObjAddr: 0x77F4, symBinAddr: 0x10000BC38, symSize: 0x168 }
  - { offsetInCU: 0x1309F, offset: 0x1309F, size: 0x8, addend: 0x0, symName: __Z5solvev, symObjAddr: 0x1520, symBinAddr: 0x100005964, symSize: 0x20CC }
  - { offsetInCU: 0x13A49, offset: 0x13A49, size: 0x8, addend: 0x0, symName: __ZNSt3__16vectorIiNS_9allocatorIiEEEC2Em, symObjAddr: 0x795C, symBinAddr: 0x10000BDA0, symSize: 0x338 }
  - { offsetInCU: 0x13BA1, offset: 0x13BA1, size: 0x8, addend: 0x0, symName: __ZNSt3__13setIiNS_4lessIiEENS_9allocatorIiEEEC2B8ue170006ESt16initializer_listIiERKS2_, symObjAddr: 0x9B20, symBinAddr: 0x10000DF64, symSize: 0x234 }
  - { offsetInCU: 0x13C80, offset: 0x13C80, size: 0x8, addend: 0x0, symName: __ZNSt3__16__treeINS_12__value_typeIiNS_6vectorIiNS_9allocatorIiEEEEEENS_19__map_value_compareIiS6_NS_4lessIiEELb1EEENS3_IS6_EEEC2ERKSA_, symObjAddr: 0xFAC8, symBinAddr: 0x100013F0C, symSize: 0x258 }
  - { offsetInCU: 0x13D4B, offset: 0x13D4B, size: 0x8, addend: 0x0, symName: __ZNSt3__13mapIiNS_6vectorIiNS_9allocatorIiEEEENS_4lessIiEENS2_INS_4pairIKiS4_EEEEEixEOi, symObjAddr: 0x35EC, symBinAddr: 0x100007A30, symSize: 0x264 }
  - { offsetInCU: 0x13DD2, offset: 0x13DD2, size: 0x8, addend: 0x0, symName: __ZNSt3__16vectorIiNS_9allocatorIiEEE9push_backB8ue170006ERKi, symObjAddr: 0x3850, symBinAddr: 0x100007C94, symSize: 0xB0 }
  - { offsetInCU: 0x13E3B, offset: 0x13E3B, size: 0x8, addend: 0x0, symName: __ZNSt3__16__treeIiNS_4lessIiEENS_9allocatorIiEEE11upper_boundB8ue170006IiEENS_15__tree_iteratorIiPNS_11__tree_nodeIiPvEElEERKT_, symObjAddr: 0x14684, symBinAddr: 0x100018AC8, symSize: 0x6C }
  - { offsetInCU: 0x13EC3, offset: 0x13EC3, size: 0x8, addend: 0x0, symName: __ZNSt3__13setIiNS_4lessIiEENS_9allocatorIiEEE3endB8ue170006Ev, symObjAddr: 0x3900, symBinAddr: 0x100007D44, symSize: 0x68 }
  - { offsetInCU: 0x13F0F, offset: 0x13F0F, size: 0x8, addend: 0x0, symName: __ZNKSt3__121__tree_const_iteratorIiPNS_11__tree_nodeIiPvEElEdeB8ue170006Ev, symObjAddr: 0x3968, symBinAddr: 0x100007DAC, symSize: 0xDC }
  - { offsetInCU: 0x13F4D, offset: 0x13F4D, size: 0x8, addend: 0x0, symName: __ZNSt3__16vectorIiNS_9allocatorIiEEE9push_backB8ue170006EOi, symObjAddr: 0x3A44, symBinAddr: 0x100007E88, symSize: 0xB0 }
  - { offsetInCU: 0x13FB6, offset: 0x13FB6, size: 0x8, addend: 0x0, symName: __ZNSt3__16__treeIiNS_4lessIiEENS_9allocatorIiEEE5beginB8ue170006Ev, symObjAddr: 0xBC4C, symBinAddr: 0x100010090, symSize: 0x8C }
  - { offsetInCU: 0x13FFC, offset: 0x13FFC, size: 0x8, addend: 0x0, symName: __ZNSt3__13setIiNS_4lessIiEENS_9allocatorIiEEE6insertB8ue170006ERKi, symObjAddr: 0x438C, symBinAddr: 0x1000087D0, symSize: 0x210 }
  - { offsetInCU: 0x14087, offset: 0x14087, size: 0x8, addend: 0x0, symName: __ZNSt3__13mapIiNS_6vectorIiNS_9allocatorIiEEEENS_4lessIiEENS2_INS_4pairIKiS4_EEEEEixERS8_, symObjAddr: 0x459C, symBinAddr: 0x1000089E0, symSize: 0x264 }
  - { offsetInCU: 0x1410E, offset: 0x1410E, size: 0x8, addend: 0x0, symName: __ZNSt3__16__treeINS_12__value_typeIiNS_6vectorIiNS_9allocatorIiEEEEEENS_19__map_value_compareIiS6_NS_4lessIiEELb1EEENS3_IS6_EEED1Ev, symObjAddr: 0x10090, symBinAddr: 0x1000144D4, symSize: 0x64 }
  - { offsetInCU: 0x1417A, offset: 0x1417A, size: 0x8, addend: 0x0, symName: __ZNSt3__16__treeIiNS_4lessIiEENS_9allocatorIiEEED1Ev, symObjAddr: 0x9F44, symBinAddr: 0x10000E388, symSize: 0x64 }
  - { offsetInCU: 0x141E6, offset: 0x141E6, size: 0x8, addend: 0x0, symName: __ZNSt3__16vectorIiNS_9allocatorIiEEE16__destroy_vectorclB8ue170006Ev, symObjAddr: 0x9588, symBinAddr: 0x10000D9CC, symSize: 0x240 }
  - { offsetInCU: 0x14316, offset: 0x14316, size: 0x8, addend: 0x0, symName: __ZNSt3__13mapIiNS_6vectorIiNS_9allocatorIiEEEENS_4lessIiEENS2_INS_4pairIKiS4_EEEEED1B8ue170006Ev, symObjAddr: 0x4800, symBinAddr: 0x100008C44, symSize: 0x58 }
  - { offsetInCU: 0x1435D, offset: 0x1435D, size: 0x8, addend: 0x0, symName: __ZNSt3__13setIiNS_4lessIiEENS_9allocatorIiEEED1B8ue170006Ev, symObjAddr: 0x4858, symBinAddr: 0x100008C9C, symSize: 0x58 }
  - { offsetInCU: 0x143A4, offset: 0x143A4, size: 0x8, addend: 0x0, symName: __ZNSt3__16vectorIiNS_9allocatorIiEEED1B8ue170006Ev, symObjAddr: 0x48B0, symBinAddr: 0x100008CF4, symSize: 0x1A0 }
  - { offsetInCU: 0x14434, offset: 0x14434, size: 0x8, addend: 0x0, symName: __ZNSt3__16__treeINS_12__value_typeIiNS_6vectorIiNS_9allocatorIiEEEEEENS_19__map_value_compareIiS6_NS_4lessIiEELb1EEENS3_IS6_EEE25__emplace_unique_key_argsIiJRKNS_21piecewise_construct_tENS_5tupleIJOiEEENSH_IJEEEEEENS_4pairINS_15__tree_iteratorIS6_PNS_11__tree_nodeIS6_PvEElEEbEERKT_DpOT0_, symObjAddr: 0x10814, symBinAddr: 0x100014C58, symSize: 0x2D8 }
  - { offsetInCU: 0x14627, offset: 0x14627, size: 0x8, addend: 0x0, symName: __ZNKSt3__115__tree_iteratorINS_12__value_typeIiNS_6vectorIiNS_9allocatorIiEEEEEEPNS_11__tree_nodeIS6_PvEElEptB8ue170006Ev, symObjAddr: 0x10AEC, symBinAddr: 0x100014F30, symSize: 0xDC }
  - { offsetInCU: 0x14665, offset: 0x14665, size: 0x8, addend: 0x0, symName: __ZNSt3__16vectorIiNS_9allocatorIiEEE9__end_capB8ue170006Ev, symObjAddr: 0x83A0, symBinAddr: 0x10000C7E4, symSize: 0x70 }
  - { offsetInCU: 0x14695, offset: 0x14695, size: 0x8, addend: 0x0, symName: __ZNSt3__16vectorIiNS_9allocatorIiEEE22__construct_one_at_endB8ue170006IJRKiEEEvDpOT_, symObjAddr: 0x12BA4, symBinAddr: 0x100016FE8, symSize: 0x314 }
  - { offsetInCU: 0x147E8, offset: 0x147E8, size: 0x8, addend: 0x0, symName: __ZNSt3__16vectorIiNS_9allocatorIiEEE21__push_back_slow_pathIRKiEEvOT_, symObjAddr: 0x12EB8, symBinAddr: 0x1000172FC, symSize: 0x340 }
  - { offsetInCU: 0x149A5, offset: 0x149A5, size: 0x8, addend: 0x0, symName: __ZNSt3__16__treeIiNS_4lessIiEENS_9allocatorIiEEE10__end_nodeB8ue170006Ev, symObjAddr: 0xA200, symBinAddr: 0x10000E644, symSize: 0x70 }
  - { offsetInCU: 0x149F6, offset: 0x149F6, size: 0x8, addend: 0x0, symName: __ZNSt3__16vectorIiNS_9allocatorIiEEE22__construct_one_at_endB8ue170006IJiEEEvDpOT_, symObjAddr: 0x14938, symBinAddr: 0x100018D7C, symSize: 0x314 }
  - { offsetInCU: 0x14B49, offset: 0x14B49, size: 0x8, addend: 0x0, symName: __ZNSt3__16vectorIiNS_9allocatorIiEEE21__push_back_slow_pathIiEEvOT_, symObjAddr: 0x14C4C, symBinAddr: 0x100019090, symSize: 0x340 }
  - { offsetInCU: 0x14D2E, offset: 0x14D2E, size: 0x8, addend: 0x0, symName: __ZNSt3__16__treeIiNS_4lessIiEENS_9allocatorIiEEE15__insert_uniqueB8ue170006ERKi, symObjAddr: 0x15F08, symBinAddr: 0x10001A34C, symSize: 0x50 }
  - { offsetInCU: 0x14D73, offset: 0x14D73, size: 0x8, addend: 0x0, symName: __ZNSt3__14pairINS_21__tree_const_iteratorIiPNS_11__tree_nodeIiPvEElEEbEC2B8ue170006INS_15__tree_iteratorIiS5_lEEbLS3_0EEEONS0_IT_T0_EE, symObjAddr: 0x16228, symBinAddr: 0x10001A66C, symSize: 0x16C }
  - { offsetInCU: 0x14DFD, offset: 0x14DFD, size: 0x8, addend: 0x0, symName: __ZNSt3__16__treeINS_12__value_typeIiNS_6vectorIiNS_9allocatorIiEEEEEENS_19__map_value_compareIiS6_NS_4lessIiEELb1EEENS3_IS6_EEE25__emplace_unique_key_argsIiJRKNS_21piecewise_construct_tENS_5tupleIJRKiEEENSH_IJEEEEEENS_4pairINS_15__tree_iteratorIS6_PNS_11__tree_nodeIS6_PvEElEEbEERKT_DpOT0_, symObjAddr: 0x16394, symBinAddr: 0x10001A7D8, symSize: 0x2D8 }
  - { offsetInCU: 0x14FF0, offset: 0x14FF0, size: 0x8, addend: 0x0, symName: _main, symObjAddr: 0x4A50, symBinAddr: 0x100008E94, symSize: 0x394 }
  - { offsetInCU: 0x1504E, offset: 0x1504E, size: 0x8, addend: 0x0, symName: __ZNSt3__19basic_iosIcNS_11char_traitsIcEEE3tieB8ue170006EPNS_13basic_ostreamIcS2_EE, symObjAddr: 0x4DE4, symBinAddr: 0x100009228, symSize: 0x1A0 }
  - { offsetInCU: 0x1512F, offset: 0x1512F, size: 0x8, addend: 0x0, symName: __ZNSt3__119ostreambuf_iteratorIcNS_11char_traitsIcEEEC2B8ue170006ERNS_13basic_ostreamIcS2_EE, symObjAddr: 0x6BE0, symBinAddr: 0x10000B024, symSize: 0x298 }
  - { offsetInCU: 0x1518C, offset: 0x1518C, size: 0x8, addend: 0x0, symName: __ZNKSt3__19basic_iosIcNS_11char_traitsIcEEE4fillB8ue170006Ev, symObjAddr: 0x60EC, symBinAddr: 0x10000A530, symSize: 0x248 }
  - { offsetInCU: 0x151CF, offset: 0x151CF, size: 0x8, addend: 0x0, symName: __ZNSt3__19basic_iosIcNS_11char_traitsIcEEE8setstateB8ue170006Ej, symObjAddr: 0x6334, symBinAddr: 0x10000A778, symSize: 0xFC }
  - { offsetInCU: 0x152DE, offset: 0x152DE, size: 0x8, addend: 0x0, symName: __ZNSt3__117__compressed_pairINS_12basic_stringIcNS_11char_traitsIcEENS_9allocatorIcEEE5__repES5_EC1B8ue170006INS_18__default_init_tagESA_EEOT_OT0_, symObjAddr: 0x65DC, symBinAddr: 0x10000AA20, symSize: 0x98 }
  - { offsetInCU: 0x1537C, offset: 0x1537C, size: 0x8, addend: 0x0, symName: __ZNSt3__112basic_stringIcNS_11char_traitsIcEENS_9allocatorIcEEE13__get_pointerB8ue170006Ev, symObjAddr: 0x6994, symBinAddr: 0x10000ADD8, symSize: 0x5C }
  - { offsetInCU: 0x153DF, offset: 0x153DF, size: 0x8, addend: 0x0, symName: __ZNSt3__18ios_base5widthB8ue170006El, symObjAddr: 0x643C, symBinAddr: 0x10000A880, symSize: 0x1A0 }
  - { offsetInCU: 0x15428, offset: 0x15428, size: 0x8, addend: 0x0, symName: __ZNKSt3__19basic_iosIcNS_11char_traitsIcEEE5widenB8ue170006Ec, symObjAddr: 0x6F58, symBinAddr: 0x10000B39C, symSize: 0x340 }
  - { offsetInCU: 0x154AB, offset: 0x154AB, size: 0x8, addend: 0x0, symName: __ZNSt3__18ios_base8setstateB8ue170006Ej, symObjAddr: 0x7398, symBinAddr: 0x10000B7DC, symSize: 0x19C }
  - { offsetInCU: 0x15548, offset: 0x15548, size: 0x8, addend: 0x0, symName: __ZNSt3__122__compressed_pair_elemINS_9allocatorIcEELi1ELb1EEC2B8ue170006ENS_18__default_init_tagE, symObjAddr: 0x6674, symBinAddr: 0x10000AAB8, symSize: 0x7C }
  - { offsetInCU: 0x155F9, offset: 0x155F9, size: 0x8, addend: 0x0, symName: __ZNSt3__112basic_stringIcNS_11char_traitsIcEENS_9allocatorIcEEE19__get_short_pointerB8ue170006Ev, symObjAddr: 0x66F0, symBinAddr: 0x10000AB34, symSize: 0x58 }
  - { offsetInCU: 0x1562E, offset: 0x1562E, size: 0x8, addend: 0x0, symName: __ZNSt3__117__compressed_pairINS_12basic_stringIcNS_11char_traitsIcEENS_9allocatorIcEEE5__repES5_E5firstB8ue170006Ev, symObjAddr: 0x686C, symBinAddr: 0x10000ACB0, symSize: 0xCC }
  - { offsetInCU: 0x15673, offset: 0x15673, size: 0x8, addend: 0x0, symName: __ZNSt12length_errorC1B8ue170006EPKc, symObjAddr: 0x67C0, symBinAddr: 0x10000AC04, symSize: 0xAC }
  - { offsetInCU: 0x1570D, offset: 0x1570D, size: 0x8, addend: 0x0, symName: __ZNKSt3__112basic_stringIcNS_11char_traitsIcEENS_9allocatorIcEEE9__is_longB8ue170006Ev, symObjAddr: 0x69F0, symBinAddr: 0x10000AE34, symSize: 0x9C }
  - { offsetInCU: 0x15741, offset: 0x15741, size: 0x8, addend: 0x0, symName: __ZNSt3__112basic_stringIcNS_11char_traitsIcEENS_9allocatorIcEEE18__get_long_pointerB8ue170006Ev, symObjAddr: 0x6A8C, symBinAddr: 0x10000AED0, symSize: 0x88 }
  - { offsetInCU: 0x15775, offset: 0x15775, size: 0x8, addend: 0x0, symName: __ZNKSt3__117__compressed_pairINS_12basic_stringIcNS_11char_traitsIcEENS_9allocatorIcEEE5__repES5_E5firstB8ue170006Ev, symObjAddr: 0x6B14, symBinAddr: 0x10000AF58, symSize: 0xCC }
  - { offsetInCU: 0x157F4, offset: 0x157F4, size: 0x8, addend: 0x0, symName: __ZNKSt3__18ios_base5rdbufB8ue170006Ev, symObjAddr: 0x6E78, symBinAddr: 0x10000B2BC, symSize: 0xE0 }
  - { offsetInCU: 0x15881, offset: 0x15881, size: 0x8, addend: 0x0, symName: __ZNKSt3__112basic_stringIcNS_11char_traitsIcEENS_9allocatorIcEEE15__get_long_sizeB8ue170006Ev, symObjAddr: 0x76CC, symBinAddr: 0x10000BB10, symSize: 0x8C }
  - { offsetInCU: 0x158B5, offset: 0x158B5, size: 0x8, addend: 0x0, symName: __ZNKSt3__112basic_stringIcNS_11char_traitsIcEENS_9allocatorIcEEE16__get_short_sizeB8ue170006Ev, symObjAddr: 0x7758, symBinAddr: 0x10000BB9C, symSize: 0x9C }
  - { offsetInCU: 0x158E9, offset: 0x158E9, size: 0x8, addend: 0x0, symName: __ZNKSt3__112basic_stringIcNS_11char_traitsIcEENS_9allocatorIcEEE18__get_long_pointerB8ue170006Ev, symObjAddr: 0x75EC, symBinAddr: 0x10000BA30, symSize: 0x88 }
  - { offsetInCU: 0x1591D, offset: 0x1591D, size: 0x8, addend: 0x0, symName: __ZNKSt3__112basic_stringIcNS_11char_traitsIcEENS_9allocatorIcEEE19__get_short_pointerB8ue170006Ev, symObjAddr: 0x7674, symBinAddr: 0x10000BAB8, symSize: 0x58 }
  - { offsetInCU: 0x15A1A, offset: 0x15A1A, size: 0x8, addend: 0x0, symName: __ZNSt3__117__compressed_pairIPiNS_9allocatorIiEEEC2B8ue170006IDnNS_18__default_init_tagEEEOT_OT0_, symObjAddr: 0x817C, symBinAddr: 0x10000C5C0, symSize: 0xB0 }
  - { offsetInCU: 0x15A99, offset: 0x15A99, size: 0x8, addend: 0x0, symName: __ZNSt3__16vectorIiNS_9allocatorIiEEE11__vallocateB8ue170006Em, symObjAddr: 0x7C94, symBinAddr: 0x10000C0D8, symSize: 0x1A0 }
  - { offsetInCU: 0x15B84, offset: 0x15B84, size: 0x8, addend: 0x0, symName: __ZNSt3__16vectorIiNS_9allocatorIiEEE18__construct_at_endEm, symObjAddr: 0x7E34, symBinAddr: 0x10000C278, symSize: 0x300 }
  - { offsetInCU: 0x15CC0, offset: 0x15CC0, size: 0x8, addend: 0x0, symName: __ZNSt3__128__exception_guard_exceptionsINS_6vectorIiNS_9allocatorIiEEE16__destroy_vectorEED2B8ue170006Ev, symObjAddr: 0x94A4, symBinAddr: 0x10000D8E8, symSize: 0xE4 }
  - { offsetInCU: 0x15CFF, offset: 0x15CFF, size: 0x8, addend: 0x0, symName: __ZNSt3__128__exception_guard_exceptionsINS_6vectorIiNS_9allocatorIiEEE16__destroy_vectorEED1B8ue170006Ev, symObjAddr: 0x8134, symBinAddr: 0x10000C578, symSize: 0x48 }
  - { offsetInCU: 0x15D63, offset: 0x15D63, size: 0x8, addend: 0x0, symName: __ZNKSt3__16vectorIiNS_9allocatorIiEEE7__allocB8ue170006Ev, symObjAddr: 0x8690, symBinAddr: 0x10000CAD4, symSize: 0x70 }
  - { offsetInCU: 0x15D98, offset: 0x15D98, size: 0x8, addend: 0x0, symName: __ZNSt3__16vectorIiNS_9allocatorIiEEE7__allocB8ue170006Ev, symObjAddr: 0x8330, symBinAddr: 0x10000C774, symSize: 0x70 }
  - { offsetInCU: 0x15DC8, offset: 0x15DC8, size: 0x8, addend: 0x0, symName: __ZNSt3__117__compressed_pairIPiNS_9allocatorIiEEE5firstB8ue170006Ev, symObjAddr: 0x88A8, symBinAddr: 0x10000CCEC, symSize: 0xCC }
  - { offsetInCU: 0x15E0D, offset: 0x15E0D, size: 0x8, addend: 0x0, symName: __ZNKSt3__16vectorIiNS_9allocatorIiEEE14__annotate_newB8ue170006Em, symObjAddr: 0x8410, symBinAddr: 0x10000C854, symSize: 0x280 }
  - { offsetInCU: 0x15F03, offset: 0x15F03, size: 0x8, addend: 0x0, symName: __ZNKSt3__16vectorIiNS_9allocatorIiEEE20__throw_length_errorB8ue170006Ev, symObjAddr: 0x82A8, symBinAddr: 0x10000C6EC, symSize: 0x44 }
  - { offsetInCU: 0x16019, offset: 0x16019, size: 0x8, addend: 0x0, symName: __ZNSt3__16vectorIiNS_9allocatorIiEEE21_ConstructTransactionC2B8ue170006ERS3_m, symObjAddr: 0x8B3C, symBinAddr: 0x10000CF80, symSize: 0x194 }
  - { offsetInCU: 0x16071, offset: 0x16071, size: 0x8, addend: 0x0, symName: __ZNSt3__117__compressed_pairIPiNS_9allocatorIiEEE6secondB8ue170006Ev, symObjAddr: 0x87D4, symBinAddr: 0x10000CC18, symSize: 0xD4 }
  - { offsetInCU: 0x160B5, offset: 0x160B5, size: 0x8, addend: 0x0, symName: __ZNSt3__16vectorIiNS_9allocatorIiEEE21_ConstructTransactionD2B8ue170006Ev, symObjAddr: 0x9034, symBinAddr: 0x10000D478, symSize: 0x214 }
  - { offsetInCU: 0x1611C, offset: 0x1611C, size: 0x8, addend: 0x0, symName: __ZNSt3__122__compressed_pair_elemINS_9allocatorIiEELi1ELb1EEC2B8ue170006ENS_18__default_init_tagE, symObjAddr: 0x822C, symBinAddr: 0x10000C670, symSize: 0x7C }
  - { offsetInCU: 0x16249, offset: 0x16249, size: 0x8, addend: 0x0, symName: __ZNKSt3__16vectorIiNS_9allocatorIiEEE8capacityB8ue170006Ev, symObjAddr: 0x8974, symBinAddr: 0x10000CDB8, symSize: 0x8C }
  - { offsetInCU: 0x16284, offset: 0x16284, size: 0x8, addend: 0x0, symName: __ZNKSt3__117__compressed_pairIPiNS_9allocatorIiEEE6secondB8ue170006Ev, symObjAddr: 0x8700, symBinAddr: 0x10000CB44, symSize: 0xD4 }
  - { offsetInCU: 0x16310, offset: 0x16310, size: 0x8, addend: 0x0, symName: __ZNKSt3__16vectorIiNS_9allocatorIiEEE9__end_capB8ue170006Ev, symObjAddr: 0x8A00, symBinAddr: 0x10000CE44, symSize: 0x70 }
  - { offsetInCU: 0x16345, offset: 0x16345, size: 0x8, addend: 0x0, symName: __ZNKSt3__117__compressed_pairIPiNS_9allocatorIiEEE5firstB8ue170006Ev, symObjAddr: 0x8A70, symBinAddr: 0x10000CEB4, symSize: 0xCC }
  - { offsetInCU: 0x163A6, offset: 0x163A6, size: 0x8, addend: 0x0, symName: __ZNKSt3__16vectorIiNS_9allocatorIiEEE19__annotate_increaseB8ue170006Em, symObjAddr: 0x8CD0, symBinAddr: 0x10000D114, symSize: 0x2D8 }
  - { offsetInCU: 0x164B0, offset: 0x164B0, size: 0x8, addend: 0x0, symName: __ZNKSt3__16vectorIiNS_9allocatorIiEEE4sizeB8ue170006Ev, symObjAddr: 0x8FA8, symBinAddr: 0x10000D3EC, symSize: 0x8C }
  - { offsetInCU: 0x164D7, offset: 0x164D7, size: 0x8, addend: 0x0, symName: __ZNKSt3__16vectorIiNS_9allocatorIiEEE17__annotate_shrinkB8ue170006Em, symObjAddr: 0x9248, symBinAddr: 0x10000D68C, symSize: 0x25C }
  - { offsetInCU: 0x1663B, offset: 0x1663B, size: 0x8, addend: 0x0, symName: __ZNSt3__16vectorIiNS_9allocatorIiEEE22__base_destruct_at_endB8ue170006EPi, symObjAddr: 0x9A38, symBinAddr: 0x10000DE7C, symSize: 0xE8 }
  - { offsetInCU: 0x16696, offset: 0x16696, size: 0x8, addend: 0x0, symName: __ZNKSt3__16vectorIiNS_9allocatorIiEEE17__annotate_deleteB8ue170006Ev, symObjAddr: 0x97C8, symBinAddr: 0x10000DC0C, symSize: 0x270 }
  - { offsetInCU: 0x167D4, offset: 0x167D4, size: 0x8, addend: 0x0, symName: __ZNSt3__16__treeIiNS_4lessIiEENS_9allocatorIiEEEC2ERKS2_, symObjAddr: 0x9FA8, symBinAddr: 0x10000E3EC, symSize: 0x258 }
  - { offsetInCU: 0x1689F, offset: 0x1689F, size: 0x8, addend: 0x0, symName: __ZNKSt16initializer_listIiE3endB8ue170006Ev, symObjAddr: 0x9E6C, symBinAddr: 0x10000E2B0, symSize: 0xD8 }
  - { offsetInCU: 0x168C6, offset: 0x168C6, size: 0x8, addend: 0x0, symName: __ZNSt3__13setIiNS_4lessIiEENS_9allocatorIiEEE6insertB8ue170006IPKiEEvT_S9_, symObjAddr: 0x9D54, symBinAddr: 0x10000E198, symSize: 0x118 }
  - { offsetInCU: 0x16993, offset: 0x16993, size: 0x8, addend: 0x0, symName: __ZNKSt3__13setIiNS_4lessIiEENS_9allocatorIiEEE3endB8ue170006Ev, symObjAddr: 0xA5C4, symBinAddr: 0x10000EA08, symSize: 0x68 }
  - { offsetInCU: 0x169DF, offset: 0x169DF, size: 0x8, addend: 0x0, symName: __ZNSt3__16__treeIiNS_4lessIiEENS_9allocatorIiEEE15__insert_uniqueB8ue170006ENS_21__tree_const_iteratorIiPNS_11__tree_nodeIiPvEElEERKi, symObjAddr: 0xA570, symBinAddr: 0x10000E9B4, symSize: 0x54 }
  - { offsetInCU: 0x16A50, offset: 0x16A50, size: 0x8, addend: 0x0, symName: __ZNKSt3__16__treeIiNS_4lessIiEENS_9allocatorIiEEE6__rootB8ue170006Ev, symObjAddr: 0xC888, symBinAddr: 0x100010CCC, symSize: 0xE4 }
  - { offsetInCU: 0x16A84, offset: 0x16A84, size: 0x8, addend: 0x0, symName: __ZNSt3__16__treeIiNS_4lessIiEENS_9allocatorIiEEE7destroyEPNS_11__tree_nodeIiPvEE, symObjAddr: 0xF8F8, symBinAddr: 0x100013D3C, symSize: 0x1D0 }
  - { offsetInCU: 0x16C3D, offset: 0x16C3D, size: 0x8, addend: 0x0, symName: __ZNSt3__117__compressed_pairINS_15__tree_end_nodeIPNS_16__tree_node_baseIPvEEEENS_9allocatorINS_11__tree_nodeIiS3_EEEEEC2B8ue170006ILb1EvEEv, symObjAddr: 0xA270, symBinAddr: 0x10000E6B4, symSize: 0xD0 }
  - { offsetInCU: 0x16CC4, offset: 0x16CC4, size: 0x8, addend: 0x0, symName: __ZNSt3__117__compressed_pairImNS_4lessIiEEEC2B8ue170006IiRKS2_EEOT_OT0_, symObjAddr: 0xA3BC, symBinAddr: 0x10000E800, symSize: 0xE8 }
  - { offsetInCU: 0x16D3E, offset: 0x16D3E, size: 0x8, addend: 0x0, symName: __ZNSt3__117__compressed_pairINS_15__tree_end_nodeIPNS_16__tree_node_baseIPvEEEENS_9allocatorINS_11__tree_nodeIiS3_EEEEE5firstB8ue170006Ev, symObjAddr: 0xA4A4, symBinAddr: 0x10000E8E8, symSize: 0xCC }
  - { offsetInCU: 0x16DD9, offset: 0x16DD9, size: 0x8, addend: 0x0, symName: __ZNSt3__122__compressed_pair_elemINS_9allocatorINS_11__tree_nodeIiPvEEEELi1ELb1EEC2B8ue170006ENS_16__value_init_tagE, symObjAddr: 0xA340, symBinAddr: 0x10000E784, symSize: 0x7C }
  - { offsetInCU: 0x16ECF, offset: 0x16ECF, size: 0x8, addend: 0x0, symName: __ZNSt3__16__treeIiNS_4lessIiEENS_9allocatorIiEEE30__emplace_hint_unique_key_argsIiJRKiEEENS_4pairINS_15__tree_iteratorIiPNS_11__tree_nodeIiPvEElEEbEENS_21__tree_const_iteratorIiSE_lEERKT_DpOT0_, symObjAddr: 0xA768, symBinAddr: 0x10000EBAC, symSize: 0x2F8 }
  - { offsetInCU: 0x170E4, offset: 0x170E4, size: 0x8, addend: 0x0, symName: __ZNKSt3__16__treeIiNS_4lessIiEENS_9allocatorIiEEE10__end_nodeB8ue170006Ev, symObjAddr: 0xA62C, symBinAddr: 0x10000EA70, symSize: 0x70 }
  - { offsetInCU: 0x17119, offset: 0x17119, size: 0x8, addend: 0x0, symName: __ZNKSt3__117__compressed_pairINS_15__tree_end_nodeIPNS_16__tree_node_baseIPvEEEENS_9allocatorINS_11__tree_nodeIiS3_EEEEE5firstB8ue170006Ev, symObjAddr: 0xA69C, symBinAddr: 0x10000EAE0, symSize: 0xCC }
  - { offsetInCU: 0x17222, offset: 0x17222, size: 0x8, addend: 0x0, symName: __ZNSt3__16__treeIiNS_4lessIiEENS_9allocatorIiEEE12__find_equalIiEERPNS_16__tree_node_baseIPvEENS_21__tree_const_iteratorIiPNS_11__tree_nodeIiS8_EElEERPNS_15__tree_end_nodeISA_EESB_RKT_, symObjAddr: 0xAA60, symBinAddr: 0x10000EEA4, symSize: 0x8A8 }
  - { offsetInCU: 0x1757A, offset: 0x1757A, size: 0x8, addend: 0x0, symName: __ZNSt3__16__treeIiNS_4lessIiEENS_9allocatorIiEEE16__construct_nodeIJRKiEEENS_10unique_ptrINS_11__tree_nodeIiPvEENS_22__tree_node_destructorINS3_ISC_EEEEEEDpOT_, symObjAddr: 0xB308, symBinAddr: 0x10000F74C, symSize: 0x358 }
  - { offsetInCU: 0x1776E, offset: 0x1776E, size: 0x8, addend: 0x0, symName: __ZNKSt3__117__compressed_pairIPNS_11__tree_nodeIiPvEENS_22__tree_node_destructorINS_9allocatorIS3_EEEEE5firstB8ue170006Ev, symObjAddr: 0xD2B4, symBinAddr: 0x1000116F8, symSize: 0xCC }
  - { offsetInCU: 0x177B3, offset: 0x177B3, size: 0x8, addend: 0x0, symName: __ZNSt3__16__treeIiNS_4lessIiEENS_9allocatorIiEEE16__insert_node_atEPNS_15__tree_end_nodeIPNS_16__tree_node_baseIPvEEEERSA_SA_, symObjAddr: 0xB660, symBinAddr: 0x10000FAA4, symSize: 0x4BC }
  - { offsetInCU: 0x17898, offset: 0x17898, size: 0x8, addend: 0x0, symName: __ZNSt3__110unique_ptrINS_11__tree_nodeIiPvEENS_22__tree_node_destructorINS_9allocatorIS3_EEEEE7releaseB8ue170006Ev, symObjAddr: 0xBB1C, symBinAddr: 0x10000FF60, symSize: 0xC0 }
  - { offsetInCU: 0x178F7, offset: 0x178F7, size: 0x8, addend: 0x0, symName: __ZNSt3__110unique_ptrINS_11__tree_nodeIiPvEENS_22__tree_node_destructorINS_9allocatorIS3_EEEEE5resetB8ue170006EPS3_, symObjAddr: 0xF62C, symBinAddr: 0x100013A70, symSize: 0x104 }
  - { offsetInCU: 0x179C2, offset: 0x179C2, size: 0x8, addend: 0x0, symName: __ZNSt3__16__treeIiNS_4lessIiEENS_9allocatorIiEEE10value_compB8ue170006Ev, symObjAddr: 0xBBDC, symBinAddr: 0x100010020, symSize: 0x70 }
  - { offsetInCU: 0x179F7, offset: 0x179F7, size: 0x8, addend: 0x0, symName: __ZNSt3__121__tree_const_iteratorIiPNS_11__tree_nodeIiPvEElEmmB8ue170006Ev, symObjAddr: 0xBCD8, symBinAddr: 0x10001011C, symSize: 0xDC }
  - { offsetInCU: 0x17A2B, offset: 0x17A2B, size: 0x8, addend: 0x0, symName: __ZNSt3__121__tree_const_iteratorIiPNS_11__tree_nodeIiPvEElEppB8ue170006Ev, symObjAddr: 0xC96C, symBinAddr: 0x100010DB0, symSize: 0xD8 }
  - { offsetInCU: 0x17A5F, offset: 0x17A5F, size: 0x8, addend: 0x0, symName: __ZNSt3__16__treeIiNS_4lessIiEENS_9allocatorIiEEE12__find_equalIiEERPNS_16__tree_node_baseIPvEERPNS_15__tree_end_nodeISA_EERKT_, symObjAddr: 0xBDB4, symBinAddr: 0x1000101F8, symSize: 0x630 }
  - { offsetInCU: 0x17CE4, offset: 0x17CE4, size: 0x8, addend: 0x0, symName: __ZNSt3__16__treeIiNS_4lessIiEENS_9allocatorIiEEE12__node_allocB8ue170006Ev, symObjAddr: 0xCE60, symBinAddr: 0x1000112A4, symSize: 0x70 }
  - { offsetInCU: 0x17D1F, offset: 0x17D1F, size: 0x8, addend: 0x0, symName: __ZNSt3__110unique_ptrINS_11__tree_nodeIiPvEENS_22__tree_node_destructorINS_9allocatorIS3_EEEEEC1B8ue170006ILb1EvEEPS3_NS_16__dependent_typeINS_27__unique_ptr_deleter_sfinaeIS7_EEXT_EE20__good_rval_ref_typeE, symObjAddr: 0xCED0, symBinAddr: 0x100011314, symSize: 0x20C }
  - { offsetInCU: 0x17DD5, offset: 0x17DD5, size: 0x8, addend: 0x0, symName: __ZNSt3__117__compressed_pairIPNS_11__tree_nodeIiPvEENS_22__tree_node_destructorINS_9allocatorIS3_EEEEE6secondB8ue170006Ev, symObjAddr: 0xD380, symBinAddr: 0x1000117C4, symSize: 0xB0 }
  - { offsetInCU: 0x17E1B, offset: 0x17E1B, size: 0x8, addend: 0x0, symName: __ZNSt3__16__treeIiNS_4lessIiEENS_9allocatorIiEEE4sizeB8ue170006Ev, symObjAddr: 0xE5E8, symBinAddr: 0x100012A2C, symSize: 0x70 }
  - { offsetInCU: 0x17E50, offset: 0x17E50, size: 0x8, addend: 0x0, symName: __ZNSt3__117__compressed_pairIPNS_11__tree_nodeIiPvEENS_22__tree_node_destructorINS_9allocatorIS3_EEEEE5firstB8ue170006Ev, symObjAddr: 0xF560, symBinAddr: 0x1000139A4, symSize: 0xCC }
  - { offsetInCU: 0x17E95, offset: 0x17E95, size: 0x8, addend: 0x0, symName: __ZNSt3__117__compressed_pairImNS_4lessIiEEE6secondB8ue170006Ev, symObjAddr: 0xC3E4, symBinAddr: 0x100010828, symSize: 0xD4 }
  - { offsetInCU: 0x17F21, offset: 0x17F21, size: 0x8, addend: 0x0, symName: __ZNSt3__117__compressed_pairINS_15__tree_end_nodeIPNS_16__tree_node_baseIPvEEEENS_9allocatorINS_11__tree_nodeIiS3_EEEEE6secondB8ue170006Ev, symObjAddr: 0xD0DC, symBinAddr: 0x100011520, symSize: 0xD4 }
  - { offsetInCU: 0x17FE2, offset: 0x17FE2, size: 0x8, addend: 0x0, symName: __ZNSt3__117__compressed_pairIPNS_11__tree_nodeIiPvEENS_22__tree_node_destructorINS_9allocatorIS3_EEEEEC2B8ue170006IRS4_S8_EEOT_OT0_, symObjAddr: 0xD1B0, symBinAddr: 0x1000115F4, symSize: 0x104 }
  - { offsetInCU: 0x18121, offset: 0x18121, size: 0x8, addend: 0x0, symName: __ZNSt3__117__compressed_pairImNS_4lessIiEEE5firstB8ue170006Ev, symObjAddr: 0xF494, symBinAddr: 0x1000138D8, symSize: 0xCC }
  - { offsetInCU: 0x181B4, offset: 0x181B4, size: 0x8, addend: 0x0, symName: __ZNSt3__122__tree_node_destructorINS_9allocatorINS_11__tree_nodeIiPvEEEEEclB8ue170006EPS4_, symObjAddr: 0xF730, symBinAddr: 0x100013B74, symSize: 0x1C8 }
  - { offsetInCU: 0x1836C, offset: 0x1836C, size: 0x8, addend: 0x0, symName: __ZNSt3__117__compressed_pairINS_15__tree_end_nodeIPNS_16__tree_node_baseIPvEEEENS_9allocatorINS_11__tree_nodeINS_12__value_typeIiNS_6vectorIiNS7_IiEEEEEES3_EEEEEC2B8ue170006ILb1EvEEv, symObjAddr: 0xFD90, symBinAddr: 0x1000141D4, symSize: 0xD0 }
  - { offsetInCU: 0x183F3, offset: 0x183F3, size: 0x8, addend: 0x0, symName: __ZNSt3__117__compressed_pairImNS_19__map_value_compareIiNS_12__value_typeIiNS_6vectorIiNS_9allocatorIiEEEEEENS_4lessIiEELb1EEEEC2B8ue170006IiRKSA_EEOT_OT0_, symObjAddr: 0xFEDC, symBinAddr: 0x100014320, symSize: 0xE8 }
  - { offsetInCU: 0x1846D, offset: 0x1846D, size: 0x8, addend: 0x0, symName: __ZNSt3__16__treeINS_12__value_typeIiNS_6vectorIiNS_9allocatorIiEEEEEENS_19__map_value_compareIiS6_NS_4lessIiEELb1EEENS3_IS6_EEE10__end_nodeB8ue170006Ev, symObjAddr: 0xFD20, symBinAddr: 0x100014164, symSize: 0x70 }
  - { offsetInCU: 0x184A2, offset: 0x184A2, size: 0x8, addend: 0x0, symName: __ZNSt3__117__compressed_pairINS_15__tree_end_nodeIPNS_16__tree_node_baseIPvEEEENS_9allocatorINS_11__tree_nodeINS_12__value_typeIiNS_6vectorIiNS7_IiEEEEEES3_EEEEE5firstB8ue170006Ev, symObjAddr: 0xFFC4, symBinAddr: 0x100014408, symSize: 0xCC }
  - { offsetInCU: 0x184E7, offset: 0x184E7, size: 0x8, addend: 0x0, symName: __ZNSt3__122__compressed_pair_elemINS_9allocatorINS_11__tree_nodeINS_12__value_typeIiNS_6vectorIiNS1_IiEEEEEEPvEEEELi1ELb1EEC2B8ue170006ENS_16__value_init_tagE, symObjAddr: 0xFE60, symBinAddr: 0x1000142A4, symSize: 0x7C }
  - { offsetInCU: 0x185B4, offset: 0x185B4, size: 0x8, addend: 0x0, symName: __ZNKSt3__16__treeINS_12__value_typeIiNS_6vectorIiNS_9allocatorIiEEEEEENS_19__map_value_compareIiS6_NS_4lessIiEELb1EEENS3_IS6_EEE6__rootB8ue170006Ev, symObjAddr: 0x102E0, symBinAddr: 0x100014724, symSize: 0xE4 }
  - { offsetInCU: 0x185E8, offset: 0x185E8, size: 0x8, addend: 0x0, symName: __ZNSt3__16__treeINS_12__value_typeIiNS_6vectorIiNS_9allocatorIiEEEEEENS_19__map_value_compareIiS6_NS_4lessIiEELb1EEENS3_IS6_EEE7destroyEPNS_11__tree_nodeIS6_PvEE, symObjAddr: 0x100F4, symBinAddr: 0x100014538, symSize: 0x1EC }
  - { offsetInCU: 0x187CF, offset: 0x187CF, size: 0x8, addend: 0x0, symName: __ZNSt3__16__treeINS_12__value_typeIiNS_6vectorIiNS_9allocatorIiEEEEEENS_19__map_value_compareIiS6_NS_4lessIiEELb1EEENS3_IS6_EEE12__node_allocB8ue170006Ev, symObjAddr: 0x103C4, symBinAddr: 0x100014808, symSize: 0x70 }
  - { offsetInCU: 0x18804, offset: 0x18804, size: 0x8, addend: 0x0, symName: __ZNSt3__14pairIKiNS_6vectorIiNS_9allocatorIiEEEEED1Ev, symObjAddr: 0x10508, symBinAddr: 0x10001494C, symSize: 0x1D0 }
  - { offsetInCU: 0x1889D, offset: 0x1889D, size: 0x8, addend: 0x0, symName: __ZNKSt3__16__treeINS_12__value_typeIiNS_6vectorIiNS_9allocatorIiEEEEEENS_19__map_value_compareIiS6_NS_4lessIiEELb1EEENS3_IS6_EEE10__end_nodeB8ue170006Ev, symObjAddr: 0x106D8, symBinAddr: 0x100014B1C, symSize: 0x70 }
  - { offsetInCU: 0x188D2, offset: 0x188D2, size: 0x8, addend: 0x0, symName: __ZNSt3__117__compressed_pairINS_15__tree_end_nodeIPNS_16__tree_node_baseIPvEEEENS_9allocatorINS_11__tree_nodeINS_12__value_typeIiNS_6vectorIiNS7_IiEEEEEES3_EEEEE6secondB8ue170006Ev, symObjAddr: 0x10434, symBinAddr: 0x100014878, symSize: 0xD4 }
  - { offsetInCU: 0x18948, offset: 0x18948, size: 0x8, addend: 0x0, symName: __ZNKSt3__117__compressed_pairINS_15__tree_end_nodeIPNS_16__tree_node_baseIPvEEEENS_9allocatorINS_11__tree_nodeINS_12__value_typeIiNS_6vectorIiNS7_IiEEEEEES3_EEEEE5firstB8ue170006Ev, symObjAddr: 0x10748, symBinAddr: 0x100014B8C, symSize: 0xCC }
  - { offsetInCU: 0x18A35, offset: 0x18A35, size: 0x8, addend: 0x0, symName: __ZNSt3__16__treeINS_12__value_typeIiNS_6vectorIiNS_9allocatorIiEEEEEENS_19__map_value_compareIiS6_NS_4lessIiEELb1EEENS3_IS6_EEE12__find_equalIiEERPNS_16__tree_node_baseIPvEERPNS_15__tree_end_nodeISH_EERKT_, symObjAddr: 0x10BC8, symBinAddr: 0x10001500C, symSize: 0x57C }
  - { offsetInCU: 0x18B62, offset: 0x18B62, size: 0x8, addend: 0x0, symName: __ZNSt3__16__treeINS_12__value_typeIiNS_6vectorIiNS_9allocatorIiEEEEEENS_19__map_value_compareIiS6_NS_4lessIiEELb1EEENS3_IS6_EEE16__construct_nodeIJRKNS_21piecewise_construct_tENS_5tupleIJOiEEENSH_IJEEEEEENS_10unique_ptrINS_11__tree_nodeIS6_PvEENS_22__tree_node_destructorINS3_ISO_EEEEEEDpOT_, symObjAddr: 0x11144, symBinAddr: 0x100015588, symSize: 0x36C }
  - { offsetInCU: 0x18D74, offset: 0x18D74, size: 0x8, addend: 0x0, symName: __ZNKSt3__117__compressed_pairIPNS_11__tree_nodeINS_12__value_typeIiNS_6vectorIiNS_9allocatorIiEEEEEEPvEENS_22__tree_node_destructorINS4_IS9_EEEEE5firstB8ue170006Ev, symObjAddr: 0x12590, symBinAddr: 0x1000169D4, symSize: 0xCC }
  - { offsetInCU: 0x18DB9, offset: 0x18DB9, size: 0x8, addend: 0x0, symName: __ZNSt3__16__treeINS_12__value_typeIiNS_6vectorIiNS_9allocatorIiEEEEEENS_19__map_value_compareIiS6_NS_4lessIiEELb1EEENS3_IS6_EEE16__insert_node_atEPNS_15__tree_end_nodeIPNS_16__tree_node_baseIPvEEEERSH_SH_, symObjAddr: 0x114B0, symBinAddr: 0x1000158F4, symSize: 0x4BC }
  - { offsetInCU: 0x18E9E, offset: 0x18E9E, size: 0x8, addend: 0x0, symName: __ZNSt3__110unique_ptrINS_11__tree_nodeINS_12__value_typeIiNS_6vectorIiNS_9allocatorIiEEEEEEPvEENS_22__tree_node_destructorINS4_IS9_EEEEE7releaseB8ue170006Ev, symObjAddr: 0x1196C, symBinAddr: 0x100015DB0, symSize: 0xC0 }
  - { offsetInCU: 0x18EFD, offset: 0x18EFD, size: 0x8, addend: 0x0, symName: __ZNSt3__110unique_ptrINS_11__tree_nodeINS_12__value_typeIiNS_6vectorIiNS_9allocatorIiEEEEEEPvEENS_22__tree_node_destructorINS4_IS9_EEEEE5resetB8ue170006EPS9_, symObjAddr: 0x12914, symBinAddr: 0x100016D58, symSize: 0x104 }
  - { offsetInCU: 0x18FCC, offset: 0x18FCC, size: 0x8, addend: 0x0, symName: __ZNSt3__16__treeINS_12__value_typeIiNS_6vectorIiNS_9allocatorIiEEEEEENS_19__map_value_compareIiS6_NS_4lessIiEELb1EEENS3_IS6_EEE10value_compB8ue170006Ev, symObjAddr: 0x11A88, symBinAddr: 0x100015ECC, symSize: 0x70 }
  - { offsetInCU: 0x19001, offset: 0x19001, size: 0x8, addend: 0x0, symName: __ZNKSt3__119__map_value_compareIiNS_12__value_typeIiNS_6vectorIiNS_9allocatorIiEEEEEENS_4lessIiEELb1EEclB8ue170006ERKiRKS6_, symObjAddr: 0x11AF8, symBinAddr: 0x100015F3C, symSize: 0xDC }
  - { offsetInCU: 0x19068, offset: 0x19068, size: 0x8, addend: 0x0, symName: __ZNKSt3__119__map_value_compareIiNS_12__value_typeIiNS_6vectorIiNS_9allocatorIiEEEEEENS_4lessIiEELb1EEclB8ue170006ERKS6_RKi, symObjAddr: 0x11BD4, symBinAddr: 0x100016018, symSize: 0xDC }
  - { offsetInCU: 0x191AC, offset: 0x191AC, size: 0x8, addend: 0x0, symName: __ZNSt3__110unique_ptrINS_11__tree_nodeINS_12__value_typeIiNS_6vectorIiNS_9allocatorIiEEEEEEPvEENS_22__tree_node_destructorINS4_IS9_EEEEEC1B8ue170006ILb1EvEEPS9_NS_16__dependent_typeINS_27__unique_ptr_deleter_sfinaeISC_EEXT_EE20__good_rval_ref_typeE, symObjAddr: 0x11D84, symBinAddr: 0x1000161C8, symSize: 0x20C }
  - { offsetInCU: 0x19262, offset: 0x19262, size: 0x8, addend: 0x0, symName: __ZNSt3__116allocator_traitsINS_9allocatorINS_11__tree_nodeINS_12__value_typeIiNS_6vectorIiNS1_IiEEEEEEPvEEEEE9constructB8ue170006INS_4pairIKiS6_EEJRKNS_21piecewise_construct_tENS_5tupleIJOiEEENSJ_IJEEEEvEEvRSA_PT_DpOT0_, symObjAddr: 0x11F90, symBinAddr: 0x1000163D4, symSize: 0x230 }
  - { offsetInCU: 0x1935D, offset: 0x1935D, size: 0x8, addend: 0x0, symName: __ZNSt3__117__compressed_pairIPNS_11__tree_nodeINS_12__value_typeIiNS_6vectorIiNS_9allocatorIiEEEEEEPvEENS_22__tree_node_destructorINS4_IS9_EEEEE6secondB8ue170006Ev, symObjAddr: 0x1265C, symBinAddr: 0x100016AA0, symSize: 0xB0 }
  - { offsetInCU: 0x193A3, offset: 0x193A3, size: 0x8, addend: 0x0, symName: __ZNSt3__110unique_ptrINS_11__tree_nodeINS_12__value_typeIiNS_6vectorIiNS_9allocatorIiEEEEEEPvEENS_22__tree_node_destructorINS4_IS9_EEEEED1B8ue170006Ev, symObjAddr: 0x11A2C, symBinAddr: 0x100015E70, symSize: 0x5C }
  - { offsetInCU: 0x193F5, offset: 0x193F5, size: 0x8, addend: 0x0, symName: __ZNSt3__16__treeINS_12__value_typeIiNS_6vectorIiNS_9allocatorIiEEEEEENS_19__map_value_compareIiS6_NS_4lessIiEELb1EEENS3_IS6_EEE4sizeB8ue170006Ev, symObjAddr: 0x1270C, symBinAddr: 0x100016B50, symSize: 0x70 }
  - { offsetInCU: 0x1942A, offset: 0x1942A, size: 0x8, addend: 0x0, symName: __ZNSt3__117__compressed_pairIPNS_11__tree_nodeINS_12__value_typeIiNS_6vectorIiNS_9allocatorIiEEEEEEPvEENS_22__tree_node_destructorINS4_IS9_EEEEE5firstB8ue170006Ev, symObjAddr: 0x12848, symBinAddr: 0x100016C8C, symSize: 0xCC }
  - { offsetInCU: 0x1946F, offset: 0x1946F, size: 0x8, addend: 0x0, symName: __ZNSt3__117__compressed_pairImNS_19__map_value_compareIiNS_12__value_typeIiNS_6vectorIiNS_9allocatorIiEEEEEENS_4lessIiEELb1EEEE6secondB8ue170006Ev, symObjAddr: 0x11CB0, symBinAddr: 0x1000160F4, symSize: 0xD4 }
  - { offsetInCU: 0x19546, offset: 0x19546, size: 0x8, addend: 0x0, symName: __ZNSt3__117__compressed_pairIPNS_11__tree_nodeINS_12__value_typeIiNS_6vectorIiNS_9allocatorIiEEEEEEPvEENS_22__tree_node_destructorINS4_IS9_EEEEEC2B8ue170006IRSA_SD_EEOT_OT0_, symObjAddr: 0x121C0, symBinAddr: 0x100016604, symSize: 0x104 }
  - { offsetInCU: 0x196FE, offset: 0x196FE, size: 0x8, addend: 0x0, symName: __ZNSt3__14pairIKiNS_6vectorIiNS_9allocatorIiEEEEEC2B8ue170006IJOiEJEJLm0EEJEEENS_21piecewise_construct_tERNS_5tupleIJDpT_EEERNSA_IJDpT0_EEENS_15__tuple_indicesIJXspT1_EEEENSJ_IJXspT2_EEEE, symObjAddr: 0x122C4, symBinAddr: 0x100016708, symSize: 0x2CC }
  - { offsetInCU: 0x198E7, offset: 0x198E7, size: 0x8, addend: 0x0, symName: __ZNSt3__117__compressed_pairImNS_19__map_value_compareIiNS_12__value_typeIiNS_6vectorIiNS_9allocatorIiEEEEEENS_4lessIiEELb1EEEE5firstB8ue170006Ev, symObjAddr: 0x1277C, symBinAddr: 0x100016BC0, symSize: 0xCC }
  - { offsetInCU: 0x19942, offset: 0x19942, size: 0x8, addend: 0x0, symName: __ZNSt3__122__tree_node_destructorINS_9allocatorINS_11__tree_nodeINS_12__value_typeIiNS_6vectorIiNS1_IiEEEEEEPvEEEEEclB8ue170006EPS9_, symObjAddr: 0x12A18, symBinAddr: 0x100016E5C, symSize: 0x18C }
  - { offsetInCU: 0x19B31, offset: 0x19B31, size: 0x8, addend: 0x0, symName: __ZNKSt3__16vectorIiNS_9allocatorIiEEE11__recommendB8ue170006Em, symObjAddr: 0x131F8, symBinAddr: 0x10001763C, symSize: 0x9C }
  - { offsetInCU: 0x19BDD, offset: 0x19BDD, size: 0x8, addend: 0x0, symName: __ZNSt3__114__split_bufferIiRNS_9allocatorIiEEEC2EmmS3_, symObjAddr: 0x1371C, symBinAddr: 0x100017B60, symSize: 0x35C }
  - { offsetInCU: 0x19CE4, offset: 0x19CE4, size: 0x8, addend: 0x0, symName: __ZNSt3__114__split_bufferIiRNS_9allocatorIiEEED2Ev, symObjAddr: 0x1421C, symBinAddr: 0x100018660, symSize: 0xF4 }
  - { offsetInCU: 0x19DF5, offset: 0x19DF5, size: 0x8, addend: 0x0, symName: __ZNSt3__114__split_bufferIiRNS_9allocatorIiEEED1Ev, symObjAddr: 0x136D4, symBinAddr: 0x100017B18, symSize: 0x48 }
  - { offsetInCU: 0x19E63, offset: 0x19E63, size: 0x8, addend: 0x0, symName: __ZNKSt3__111__move_loopINS_17_ClassicAlgPolicyEEclB8ue170006INS_16reverse_iteratorIPiEES6_S6_EENS_4pairIT_T1_EES8_T0_S9_, symObjAddr: 0x13DB0, symBinAddr: 0x1000181F4, symSize: 0x3AC }
  - { offsetInCU: 0x19FD3, offset: 0x19FD3, size: 0x8, addend: 0x0, symName: __ZNSt3__117__compressed_pairIPiRNS_9allocatorIiEEE5firstB8ue170006Ev, symObjAddr: 0x13CE4, symBinAddr: 0x100018128, symSize: 0xCC }
  - { offsetInCU: 0x1A05A, offset: 0x1A05A, size: 0x8, addend: 0x0, symName: __ZNSt3__117__compressed_pairIPiRNS_9allocatorIiEEEC2B8ue170006IDnS4_EEOT_OT0_, symObjAddr: 0x13AE8, symBinAddr: 0x100017F2C, symSize: 0xFC }
  - { offsetInCU: 0x1A0EA, offset: 0x1A0EA, size: 0x8, addend: 0x0, symName: __ZNSt3__114__split_bufferIiRNS_9allocatorIiEEE7__allocB8ue170006Ev, symObjAddr: 0x13A78, symBinAddr: 0x100017EBC, symSize: 0x70 }
  - { offsetInCU: 0x1A11A, offset: 0x1A11A, size: 0x8, addend: 0x0, symName: __ZNSt3__117__compressed_pairIPiRNS_9allocatorIiEEE6secondB8ue170006Ev, symObjAddr: 0x13BE4, symBinAddr: 0x100018028, symSize: 0x100 }
  - { offsetInCU: 0x1A292, offset: 0x1A292, size: 0x8, addend: 0x0, symName: __ZNKSt3__116reverse_iteratorIPiEdeB8ue170006Ev, symObjAddr: 0x1415C, symBinAddr: 0x1000185A0, symSize: 0xC0 }
  - { offsetInCU: 0x1A2DF, offset: 0x1A2DF, size: 0x8, addend: 0x0, symName: __ZNSt3__114__split_bufferIiRNS_9allocatorIiEEE5clearB8ue170006Ev, symObjAddr: 0x14310, symBinAddr: 0x100018754, symSize: 0xAC }
  - { offsetInCU: 0x1A333, offset: 0x1A333, size: 0x8, addend: 0x0, symName: __ZNKSt3__114__split_bufferIiRNS_9allocatorIiEEE8capacityB8ue170006Ev, symObjAddr: 0x143BC, symBinAddr: 0x100018800, symSize: 0x8C }
  - { offsetInCU: 0x1A38F, offset: 0x1A38F, size: 0x8, addend: 0x0, symName: __ZNSt3__114__split_bufferIiRNS_9allocatorIiEEE17__destruct_at_endB8ue170006EPiNS_17integral_constantIbLb0EEE, symObjAddr: 0x14448, symBinAddr: 0x10001888C, symSize: 0x100 }
  - { offsetInCU: 0x1A3E3, offset: 0x1A3E3, size: 0x8, addend: 0x0, symName: __ZNKSt3__114__split_bufferIiRNS_9allocatorIiEEE9__end_capB8ue170006Ev, symObjAddr: 0x14548, symBinAddr: 0x10001898C, symSize: 0x70 }
  - { offsetInCU: 0x1A418, offset: 0x1A418, size: 0x8, addend: 0x0, symName: __ZNKSt3__117__compressed_pairIPiRNS_9allocatorIiEEE5firstB8ue170006Ev, symObjAddr: 0x145B8, symBinAddr: 0x1000189FC, symSize: 0xCC }
  - { offsetInCU: 0x1A45D, offset: 0x1A45D, size: 0x8, addend: 0x0, symName: __ZNSt3__16__treeIiNS_4lessIiEENS_9allocatorIiEEE13__upper_boundIiEENS_15__tree_iteratorIiPNS_11__tree_nodeIiPvEElEERKT_SB_PNS_15__tree_end_nodeIPNS_16__tree_node_baseIS9_EEEE, symObjAddr: 0x146F0, symBinAddr: 0x100018B34, symSize: 0x248 }
  - { offsetInCU: 0x1A574, offset: 0x1A574, size: 0x8, addend: 0x0, symName: __ZNSt3__16__treeIiNS_4lessIiEENS_9allocatorIiEEE25__emplace_unique_key_argsIiJRKiEEENS_4pairINS_15__tree_iteratorIiPNS_11__tree_nodeIiPvEElEEbEERKT_DpOT0_, symObjAddr: 0x15F58, symBinAddr: 0x10001A39C, symSize: 0x2D0 }
  - { offsetInCU: 0x1A797, offset: 0x1A797, size: 0x8, addend: 0x0, symName: __ZNSt3__16__treeINS_12__value_typeIiNS_6vectorIiNS_9allocatorIiEEEEEENS_19__map_value_compareIiS6_NS_4lessIiEELb1EEENS3_IS6_EEE16__construct_nodeIJRKNS_21piecewise_construct_tENS_5tupleIJRKiEEENSH_IJEEEEEENS_10unique_ptrINS_11__tree_nodeIS6_PvEENS_22__tree_node_destructorINS3_ISP_EEEEEEDpOT_, symObjAddr: 0x1666C, symBinAddr: 0x10001AAB0, symSize: 0x36C }
  - { offsetInCU: 0x1A9A9, offset: 0x1A9A9, size: 0x8, addend: 0x0, symName: __ZNSt3__116allocator_traitsINS_9allocatorINS_11__tree_nodeINS_12__value_typeIiNS_6vectorIiNS1_IiEEEEEEPvEEEEE9constructB8ue170006INS_4pairIKiS6_EEJRKNS_21piecewise_construct_tENS_5tupleIJRSE_EEENSJ_IJEEEEvEEvRSA_PT_DpOT0_, symObjAddr: 0x169D8, symBinAddr: 0x10001AE1C, symSize: 0x230 }
  - { offsetInCU: 0x1ABC3, offset: 0x1ABC3, size: 0x8, addend: 0x0, symName: __ZNSt3__14pairIKiNS_6vectorIiNS_9allocatorIiEEEEEC2B8ue170006IJRS1_EJEJLm0EEJEEENS_21piecewise_construct_tERNS_5tupleIJDpT_EEERNSA_IJDpT0_EEENS_15__tuple_indicesIJXspT1_EEEENSJ_IJXspT2_EEEE, symObjAddr: 0x16C08, symBinAddr: 0x10001B04C, symSize: 0x2CC }
...
