---
triple:          'arm64-apple-darwin'
binary-path:     '/Users/eric/Workspace/compprog/codeforces/contest/963virtual/C_Light_Switches.bin'
relocations:
  - { offsetInCU: 0x3B, offset: 0x3B, size: 0x8, addend: 0x0, symName: _.str, symObjAddr: 0xF600, symBinAddr: 0x100011840, symSize: 0x0 }
  - { offsetInCU: 0x6B, offset: 0x6B, size: 0x8, addend: 0x0, symName: _.str.1, symObjAddr: 0xF620, symBinAddr: 0x100011860, symSize: 0x0 }
  - { offsetInCU: 0x7C, offset: 0x7C, size: 0x8, addend: 0x0, symName: _.str.2, symObjAddr: 0xF640, symBinAddr: 0x100011880, symSize: 0x0 }
  - { offsetInCU: 0x8D, offset: 0x8D, size: 0x8, addend: 0x0, symName: _.str.3, symObjAddr: 0xD7A0, symBinAddr: 0x10000F9C0, symSize: 0x0 }
  - { offsetInCU: 0xAA, offset: 0xAA, size: 0x8, addend: 0x0, symName: _.str.4, symObjAddr: 0xF660, symBinAddr: 0x1000118A0, symSize: 0x0 }
  - { offsetInCU: 0xBB, offset: 0xBB, size: 0x8, addend: 0x0, symName: _.str.6, symObjAddr: 0xF680, symBinAddr: 0x1000118C0, symSize: 0x0 }
  - { offsetInCU: 0xD8, offset: 0xD8, size: 0x8, addend: 0x0, symName: _.str.7, symObjAddr: 0xF6A0, symBinAddr: 0x1000118E0, symSize: 0x0 }
  - { offsetInCU: 0xE9, offset: 0xE9, size: 0x8, addend: 0x0, symName: _.str.8, symObjAddr: 0xF6C0, symBinAddr: 0x100011900, symSize: 0x0 }
  - { offsetInCU: 0xFB, offset: 0xFB, size: 0x8, addend: 0x0, symName: _.str.21, symObjAddr: 0xF6E0, symBinAddr: 0x100011920, symSize: 0x0 }
  - { offsetInCU: 0x119, offset: 0x119, size: 0x8, addend: 0x0, symName: _.str.32, symObjAddr: 0xF700, symBinAddr: 0x100011940, symSize: 0x0 }
  - { offsetInCU: 0x136, offset: 0x136, size: 0x8, addend: 0x0, symName: _.str.47, symObjAddr: 0xF720, symBinAddr: 0x100011960, symSize: 0x0 }
  - { offsetInCU: 0x147, offset: 0x147, size: 0x8, addend: 0x0, symName: _.str.48, symObjAddr: 0xF740, symBinAddr: 0x100011980, symSize: 0x0 }
  - { offsetInCU: 0x35EE, offset: 0x35EE, size: 0x8, addend: 0x0, symName: __ZNSt3__124__put_character_sequenceB8ue170006IcNS_11char_traitsIcEEEERNS_13basic_ostreamIT_T0_EES7_PKS4_m, symObjAddr: 0x43FC, symBinAddr: 0x1000062E4, symSize: 0x910 }
  - { offsetInCU: 0x8657, offset: 0x8657, size: 0x8, addend: 0x0, symName: __ZNSt3__1lsB8ue170006IcNS_11char_traitsIcEENS_9allocatorIcEEEERNS_13basic_ostreamIT_T0_EES9_RKNS_12basic_stringIS6_S7_T1_EE, symObjAddr: 0xB8C, symBinAddr: 0x100002A74, symSize: 0x48 }
  - { offsetInCU: 0x8711, offset: 0x8711, size: 0x8, addend: 0x0, symName: __ZNSt3__1neB8ue170006ERKNS_14__bit_iteratorINS_6vectorIbNS_9allocatorIbEEEELb0ELm0EEES7_, symObjAddr: 0x1104, symBinAddr: 0x100002FEC, symSize: 0xC4 }
  - { offsetInCU: 0x9820, offset: 0x9820, size: 0x8, addend: 0x0, symName: __ZNSt3__116__pad_and_outputB8ue170006IcNS_11char_traitsIcEEEENS_19ostreambuf_iteratorIT_T0_EES6_PKS4_S8_S8_RNS_8ios_baseES4_, symObjAddr: 0x4D0C, symBinAddr: 0x100006BF4, symSize: 0x800 }
  - { offsetInCU: 0x9A7F, offset: 0x9A7F, size: 0x8, addend: 0x0, symName: __ZNSt3__120__throw_length_errorB8ue170006EPKc, symObjAddr: 0x5B5C, symBinAddr: 0x100007A44, symSize: 0x78 }
  - { offsetInCU: 0x9F5C, offset: 0x9F5C, size: 0x8, addend: 0x0, symName: __ZNSt3__19use_facetB8ue170006INS_5ctypeIcEEEERKT_RKNS_6localeE, symObjAddr: 0x66AC, symBinAddr: 0x100008594, symSize: 0x100 }
  - { offsetInCU: 0x9FB7, offset: 0x9FB7, size: 0x8, addend: 0x0, symName: __ZNSt3__119__allocate_at_leastB8ue170006INS_9allocatorIxEEEENS_19__allocation_resultINS_16allocator_traitsIT_E7pointerEEERS5_m, symObjAddr: 0x7700, symBinAddr: 0x1000095E8, symSize: 0x44 }
  - { offsetInCU: 0xA527, offset: 0xA527, size: 0x8, addend: 0x0, symName: __ZNSt3__1eqB8ue170006IPxEEbRKNS_11__wrap_iterIT_EES6_, symObjAddr: 0xB028, symBinAddr: 0x10000CF10, symSize: 0x58 }
  - { offsetInCU: 0xA964, offset: 0xA964, size: 0x8, addend: 0x0, symName: __ZSt28__throw_bad_array_new_lengthB8ue170006v, symObjAddr: 0x5D4C, symBinAddr: 0x100007C34, symSize: 0x5C }
  - { offsetInCU: 0xB1EB, offset: 0xB1EB, size: 0x8, addend: 0x0, symName: __ZNSt3__16vectorIxNS_9allocatorIxEEE26__swap_out_circular_bufferERNS_14__split_bufferIxRS2_EE, symObjAddr: 0x95E4, symBinAddr: 0x10000B4CC, symSize: 0x440 }
  - { offsetInCU: 0xDA9B, offset: 0xDA9B, size: 0x8, addend: 0x0, symName: __ZN14__DEBUG_UTIL__5printEPKc, symObjAddr: 0x0, symBinAddr: 0x100001EE8, symSize: 0x30 }
  - { offsetInCU: 0xDB27, offset: 0xDB27, size: 0x8, addend: 0x0, symName: __ZN14__DEBUG_UTIL__5printEb, symObjAddr: 0x30, symBinAddr: 0x100001F18, symSize: 0x28 }
  - { offsetInCU: 0xDB82, offset: 0xDB82, size: 0x8, addend: 0x0, symName: __ZN14__DEBUG_UTIL__5printEc, symObjAddr: 0x58, symBinAddr: 0x100001F40, symSize: 0x21C }
  - { offsetInCU: 0xDC59, offset: 0xDC59, size: 0x8, addend: 0x0, symName: __ZN14__DEBUG_UTIL__5printEs, symObjAddr: 0x274, symBinAddr: 0x10000215C, symSize: 0xA8 }
  - { offsetInCU: 0xDC83, offset: 0xDC83, size: 0x8, addend: 0x0, symName: __ZN14__DEBUG_UTIL__5printEt, symObjAddr: 0x31C, symBinAddr: 0x100002204, symSize: 0xA8 }
  - { offsetInCU: 0xDCAD, offset: 0xDCAD, size: 0x8, addend: 0x0, symName: __ZN14__DEBUG_UTIL__5printEi, symObjAddr: 0x3C4, symBinAddr: 0x1000022AC, symSize: 0xA8 }
  - { offsetInCU: 0xDCD7, offset: 0xDCD7, size: 0x8, addend: 0x0, symName: __ZN14__DEBUG_UTIL__5printEj, symObjAddr: 0x46C, symBinAddr: 0x100002354, symSize: 0xA8 }
  - { offsetInCU: 0xDD01, offset: 0xDD01, size: 0x8, addend: 0x0, symName: __ZN14__DEBUG_UTIL__5printEl, symObjAddr: 0x514, symBinAddr: 0x1000023FC, symSize: 0xA8 }
  - { offsetInCU: 0xDD2B, offset: 0xDD2B, size: 0x8, addend: 0x0, symName: __ZN14__DEBUG_UTIL__5printEm, symObjAddr: 0x5BC, symBinAddr: 0x1000024A4, symSize: 0xA8 }
  - { offsetInCU: 0xDD55, offset: 0xDD55, size: 0x8, addend: 0x0, symName: __ZN14__DEBUG_UTIL__5printEx, symObjAddr: 0x664, symBinAddr: 0x10000254C, symSize: 0xA8 }
  - { offsetInCU: 0xDD73, offset: 0xDD73, size: 0x8, addend: 0x0, symName: __ZN14__DEBUG_UTIL__5printEy, symObjAddr: 0x70C, symBinAddr: 0x1000025F4, symSize: 0xA8 }
  - { offsetInCU: 0xDD9D, offset: 0xDD9D, size: 0x8, addend: 0x0, symName: __ZN14__DEBUG_UTIL__5printEf, symObjAddr: 0x7B4, symBinAddr: 0x10000269C, symSize: 0xA0 }
  - { offsetInCU: 0xDDC7, offset: 0xDDC7, size: 0x8, addend: 0x0, symName: __ZN14__DEBUG_UTIL__5printEd, symObjAddr: 0x854, symBinAddr: 0x10000273C, symSize: 0xA0 }
  - { offsetInCU: 0xDDF1, offset: 0xDDF1, size: 0x8, addend: 0x0, symName: __ZN14__DEBUG_UTIL__5printEe, symObjAddr: 0x8F4, symBinAddr: 0x1000027DC, symSize: 0xA0 }
  - { offsetInCU: 0xDE1B, offset: 0xDE1B, size: 0x8, addend: 0x0, symName: __ZN14__DEBUG_UTIL__5printENSt3__112basic_stringIcNS0_11char_traitsIcEENS0_9allocatorIcEEEE, symObjAddr: 0x994, symBinAddr: 0x10000287C, symSize: 0x1F8 }
  - { offsetInCU: 0xDEC6, offset: 0xDEC6, size: 0x8, addend: 0x0, symName: __ZN14__DEBUG_UTIL__5printENSt3__16vectorIbNS0_9allocatorIbEEEE, symObjAddr: 0xBD4, symBinAddr: 0x100002ABC, symSize: 0x4E4 }
  - { offsetInCU: 0xE138, offset: 0xE138, size: 0x8, addend: 0x0, symName: __ZN14__DEBUG_UTIL__7printerEPKc, symObjAddr: 0x1518, symBinAddr: 0x100003400, symSize: 0x4 }
  - { offsetInCU: 0xE15D, offset: 0xE15D, size: 0x8, addend: 0x0, symName: __ZN14__DEBUG_UTIL__10printerArrEPKc, symObjAddr: 0x151C, symBinAddr: 0x100003404, symSize: 0x4 }
  - { offsetInCU: 0xE182, offset: 0xE182, size: 0x8, addend: 0x0, symName: __ZN14__DEBUG_UTIL__7printerIRNSt3__14listIxNS1_9allocatorIxEEEEJEEEvPKcOT_DpOT0_, symObjAddr: 0x2528, symBinAddr: 0x100004410, symSize: 0x578 }
  - { offsetInCU: 0xE259, offset: 0xE259, size: 0x8, addend: 0x0, symName: __ZN14__DEBUG_UTIL__5printIRNSt3__14listIxNS1_9allocatorIxEEEEEEvOT_, symObjAddr: 0xC12C, symBinAddr: 0x10000E014, symSize: 0x334 }
  - { offsetInCU: 0xE458, offset: 0xE458, size: 0x8, addend: 0x0, symName: __ZNKSt3__112basic_stringIcNS_11char_traitsIcEENS_9allocatorIcEEE13__get_pointerB8ue170006Ev, symObjAddr: 0x69A4, symBinAddr: 0x10000888C, symSize: 0x5C }
  - { offsetInCU: 0xE4BB, offset: 0xE4BB, size: 0x8, addend: 0x0, symName: __ZNKSt3__112basic_stringIcNS_11char_traitsIcEENS_9allocatorIcEEE4sizeB8ue170006Ev, symObjAddr: 0x6948, symBinAddr: 0x100008830, symSize: 0x5C }
  - { offsetInCU: 0xE5DC, offset: 0xE5DC, size: 0x8, addend: 0x0, symName: __ZNKSt3__114__bit_iteratorINS_6vectorIbNS_9allocatorIbEEEELb0ELm0EEdeB8ue170006Ev, symObjAddr: 0x11C8, symBinAddr: 0x1000030B0, symSize: 0xCC }
  - { offsetInCU: 0xE603, offset: 0xE603, size: 0x8, addend: 0x0, symName: __ZNKSt3__115__bit_referenceINS_6vectorIbNS_9allocatorIbEEEELb1EEcvbB8ue170006Ev, symObjAddr: 0x1294, symBinAddr: 0x10000317C, symSize: 0xE4 }
  - { offsetInCU: 0xE62A, offset: 0xE62A, size: 0x8, addend: 0x0, symName: __ZNSt3__114__bit_iteratorINS_6vectorIbNS_9allocatorIbEEEELb0ELm0EEppB8ue170006Ev, symObjAddr: 0x1378, symBinAddr: 0x100003260, symSize: 0x1A0 }
  - { offsetInCU: 0xE651, offset: 0xE651, size: 0x8, addend: 0x0, symName: __ZNSt3__16vectorIbNS_9allocatorIbEEE5beginB8ue170006Ev, symObjAddr: 0x10B8, symBinAddr: 0x100002FA0, symSize: 0x4C }
  - { offsetInCU: 0xE686, offset: 0xE686, size: 0x8, addend: 0x0, symName: __ZNSt3__16vectorIbNS_9allocatorIbEEE11__make_iterB8ue170006Em, symObjAddr: 0x6C08, symBinAddr: 0x100008AF0, symSize: 0x168 }
  - { offsetInCU: 0xEA8A, offset: 0xEA8A, size: 0x8, addend: 0x0, symName: __Z5solvev, symObjAddr: 0x1520, symBinAddr: 0x100003408, symSize: 0xF58 }
  - { offsetInCU: 0xF0DB, offset: 0xF0DB, size: 0x8, addend: 0x0, symName: __ZNSt3__16vectorIxNS_9allocatorIxEEEC2Em, symObjAddr: 0x6D70, symBinAddr: 0x100008C58, symSize: 0x338 }
  - { offsetInCU: 0xF233, offset: 0xF233, size: 0x8, addend: 0x0, symName: __ZNSt3__117__compressed_pairIPxNS_9allocatorIxEEEC2B8ue170006IDnNS_18__default_init_tagEEEOT_OT0_, symObjAddr: 0x7590, symBinAddr: 0x100009478, symSize: 0xB0 }
  - { offsetInCU: 0xF2B2, offset: 0xF2B2, size: 0x8, addend: 0x0, symName: __ZNSt3__16vectorIxNS_9allocatorIxEEE9push_backB8ue170006EOx, symObjAddr: 0x2478, symBinAddr: 0x100004360, symSize: 0xB0 }
  - { offsetInCU: 0xF31B, offset: 0xF31B, size: 0x8, addend: 0x0, symName: __ZNSt3__14listIxNS_9allocatorIxEEEC2INS_11__wrap_iterIPxEEEET_S8_PNS_9enable_ifIXsr29__has_input_iterator_categoryIS8_EE5valueEvE4typeE, symObjAddr: 0xA9B4, symBinAddr: 0x10000C89C, symSize: 0x418 }
  - { offsetInCU: 0xF4C5, offset: 0xF4C5, size: 0x8, addend: 0x0, symName: __ZNSt3__14listIxNS_9allocatorIxEEE4backB8ue170006Ev, symObjAddr: 0x2AA0, symBinAddr: 0x100004988, symSize: 0x170 }
  - { offsetInCU: 0xF4F9, offset: 0xF4F9, size: 0x8, addend: 0x0, symName: __ZNSt3__14listIxNS_9allocatorIxEEE5frontB8ue170006Ev, symObjAddr: 0x2C10, symBinAddr: 0x100004AF8, symSize: 0x154 }
  - { offsetInCU: 0xF52D, offset: 0xF52D, size: 0x8, addend: 0x0, symName: __ZNSt3__14listIxNS_9allocatorIxEEE9push_backEOx, symObjAddr: 0x2D64, symBinAddr: 0x100004C4C, symSize: 0x354 }
  - { offsetInCU: 0xF721, offset: 0xF721, size: 0x8, addend: 0x0, symName: __ZNSt3__14listIxNS_9allocatorIxEEE9pop_frontEv, symObjAddr: 0x30B8, symBinAddr: 0x100004FA0, symSize: 0x160 }
  - { offsetInCU: 0xF891, offset: 0xF891, size: 0x8, addend: 0x0, symName: __ZNSt3__110__list_impIxNS_9allocatorIxEEE5clearEv, symObjAddr: 0x399C, symBinAddr: 0x100005884, symSize: 0x24C }
  - { offsetInCU: 0xFA31, offset: 0xFA31, size: 0x8, addend: 0x0, symName: __ZNSt3__16vectorIxNS_9allocatorIxEEE16__destroy_vectorclB8ue170006Ev, symObjAddr: 0x899C, symBinAddr: 0x10000A884, symSize: 0x240 }
  - { offsetInCU: 0xFB5F, offset: 0xFB5F, size: 0x8, addend: 0x0, symName: __ZNSt3__14listIxNS_9allocatorIxEEED1Ev, symObjAddr: 0x3218, symBinAddr: 0x100005100, symSize: 0x68 }
  - { offsetInCU: 0xFBC3, offset: 0xFBC3, size: 0x8, addend: 0x0, symName: __ZNSt3__16vectorIxNS_9allocatorIxEEED1B8ue170006Ev, symObjAddr: 0x3280, symBinAddr: 0x100005168, symSize: 0x1A0 }
  - { offsetInCU: 0xFC25, offset: 0xFC25, size: 0x8, addend: 0x0, symName: __ZNSt3__16vectorIxNS_9allocatorIxEEE9__end_capB8ue170006Ev, symObjAddr: 0x77B4, symBinAddr: 0x10000969C, symSize: 0x70 }
  - { offsetInCU: 0xFC5B, offset: 0xFC5B, size: 0x8, addend: 0x0, symName: __ZNSt3__16vectorIxNS_9allocatorIxEEE22__construct_one_at_endB8ue170006IJxEEEvDpOT_, symObjAddr: 0x8F34, symBinAddr: 0x10000AE1C, symSize: 0x2F4 }
  - { offsetInCU: 0xFDAE, offset: 0xFDAE, size: 0x8, addend: 0x0, symName: __ZNSt3__16vectorIxNS_9allocatorIxEEE21__push_back_slow_pathIxEEvOT_, symObjAddr: 0x9228, symBinAddr: 0x10000B110, symSize: 0x320 }
  - { offsetInCU: 0xFF4F, offset: 0xFF4F, size: 0x8, addend: 0x0, symName: __ZNSt3__116__list_node_baseIxPvE9__as_nodeB8ue170006Ev, symObjAddr: 0x4088, symBinAddr: 0x100005F70, symSize: 0x8C }
  - { offsetInCU: 0x10087, offset: 0x10087, size: 0x8, addend: 0x0, symName: __ZNSt3__110__list_impIxNS_9allocatorIxEEE12__node_allocB8ue170006Ev, symObjAddr: 0x3BE8, symBinAddr: 0x100005AD0, symSize: 0x70 }
  - { offsetInCU: 0x100BC, offset: 0x100BC, size: 0x8, addend: 0x0, symName: __ZNSt3__14listIxNS_9allocatorIxEEE15__allocate_nodeB8ue170006ERNS1_INS_11__list_nodeIxPvEEEE, symObjAddr: 0xB3C8, symBinAddr: 0x10000D2B0, symSize: 0x230 }
  - { offsetInCU: 0x1019D, offset: 0x1019D, size: 0x8, addend: 0x0, symName: __ZNKSt3__117__compressed_pairIPNS_11__list_nodeIxPvEENS_22__allocator_destructorINS_9allocatorIS3_EEEEE5firstB8ue170006Ev, symObjAddr: 0xBD48, symBinAddr: 0x10000DC30, symSize: 0xCC }
  - { offsetInCU: 0x101E1, offset: 0x101E1, size: 0x8, addend: 0x0, symName: __ZNSt3__111__list_nodeIxPvE9__as_linkB8ue170006Ev, symObjAddr: 0xB5F8, symBinAddr: 0x10000D4E0, symSize: 0xBC }
  - { offsetInCU: 0x10227, offset: 0x10227, size: 0x8, addend: 0x0, symName: __ZNSt3__14listIxNS_9allocatorIxEEE20__link_nodes_at_backEPNS_16__list_node_baseIxPvEES7_, symObjAddr: 0xB6B4, symBinAddr: 0x10000D59C, symSize: 0x2C4 }
  - { offsetInCU: 0x10284, offset: 0x10284, size: 0x8, addend: 0x0, symName: __ZNSt3__110__list_impIxNS_9allocatorIxEEE4__szB8ue170006Ev, symObjAddr: 0x4018, symBinAddr: 0x100005F00, symSize: 0x70 }
  - { offsetInCU: 0x102B9, offset: 0x102B9, size: 0x8, addend: 0x0, symName: __ZNSt3__110unique_ptrINS_11__list_nodeIxPvEENS_22__allocator_destructorINS_9allocatorIS3_EEEEE7releaseB8ue170006Ev, symObjAddr: 0xB978, symBinAddr: 0x10000D860, symSize: 0xC0 }
  - { offsetInCU: 0x10318, offset: 0x10318, size: 0x8, addend: 0x0, symName: __ZNSt3__110unique_ptrINS_11__list_nodeIxPvEENS_22__allocator_destructorINS_9allocatorIS3_EEEEE5resetB8ue170006EPS3_, symObjAddr: 0xBEE0, symBinAddr: 0x10000DDC8, symSize: 0x104 }
  - { offsetInCU: 0x1040C, offset: 0x1040C, size: 0x8, addend: 0x0, symName: __ZNSt3__110__list_impIxNS_9allocatorIxEEE14__unlink_nodesEPNS_16__list_node_baseIxPvEES7_, symObjAddr: 0x3CD0, symBinAddr: 0x100005BB8, symSize: 0x348 }
  - { offsetInCU: 0x10443, offset: 0x10443, size: 0x8, addend: 0x0, symName: _main, symObjAddr: 0x3420, symBinAddr: 0x100005308, symSize: 0x394 }
  - { offsetInCU: 0x104A1, offset: 0x104A1, size: 0x8, addend: 0x0, symName: __ZNSt3__19basic_iosIcNS_11char_traitsIcEEE3tieB8ue170006EPNS_13basic_ostreamIcS2_EE, symObjAddr: 0x37B4, symBinAddr: 0x10000569C, symSize: 0x1A0 }
  - { offsetInCU: 0x104EA, offset: 0x104EA, size: 0x8, addend: 0x0, symName: __ZNSt3__110__list_impIxNS_9allocatorIxEEED2Ev, symObjAddr: 0x3954, symBinAddr: 0x10000583C, symSize: 0x48 }
  - { offsetInCU: 0x1053C, offset: 0x1053C, size: 0x8, addend: 0x0, symName: __ZNKSt3__110__list_impIxNS_9allocatorIxEEE4__szB8ue170006Ev, symObjAddr: 0x4120, symBinAddr: 0x100006008, symSize: 0x70 }
  - { offsetInCU: 0x10571, offset: 0x10571, size: 0x8, addend: 0x0, symName: __ZNKSt3__110__list_impIxNS_9allocatorIxEEE13__end_as_linkB8ue170006Ev, symObjAddr: 0x3C58, symBinAddr: 0x100005B40, symSize: 0x78 }
  - { offsetInCU: 0x105B7, offset: 0x105B7, size: 0x8, addend: 0x0, symName: __ZNSt3__117__compressed_pairImNS_9allocatorINS_11__list_nodeIxPvEEEEE6secondB8ue170006Ev, symObjAddr: 0x425C, symBinAddr: 0x100006144, symSize: 0xD4 }
  - { offsetInCU: 0x10610, offset: 0x10610, size: 0x8, addend: 0x0, symName: __ZNSt3__117__compressed_pairImNS_9allocatorINS_11__list_nodeIxPvEEEEE5firstB8ue170006Ev, symObjAddr: 0x4330, symBinAddr: 0x100006218, symSize: 0xCC }
  - { offsetInCU: 0x10654, offset: 0x10654, size: 0x8, addend: 0x0, symName: __ZNKSt3__117__compressed_pairImNS_9allocatorINS_11__list_nodeIxPvEEEEE5firstB8ue170006Ev, symObjAddr: 0x4190, symBinAddr: 0x100006078, symSize: 0xCC }
  - { offsetInCU: 0x10762, offset: 0x10762, size: 0x8, addend: 0x0, symName: __ZNSt3__119ostreambuf_iteratorIcNS_11char_traitsIcEEEC2B8ue170006ERNS_13basic_ostreamIcS2_EE, symObjAddr: 0x5FF4, symBinAddr: 0x100007EDC, symSize: 0x298 }
  - { offsetInCU: 0x107BF, offset: 0x107BF, size: 0x8, addend: 0x0, symName: __ZNKSt3__19basic_iosIcNS_11char_traitsIcEEE4fillB8ue170006Ev, symObjAddr: 0x550C, symBinAddr: 0x1000073F4, symSize: 0x248 }
  - { offsetInCU: 0x10802, offset: 0x10802, size: 0x8, addend: 0x0, symName: __ZNSt3__19basic_iosIcNS_11char_traitsIcEEE8setstateB8ue170006Ej, symObjAddr: 0x5754, symBinAddr: 0x10000763C, symSize: 0xFC }
  - { offsetInCU: 0x1090B, offset: 0x1090B, size: 0x8, addend: 0x0, symName: __ZNSt3__117__compressed_pairINS_12basic_stringIcNS_11char_traitsIcEENS_9allocatorIcEEE5__repES5_EC1B8ue170006INS_18__default_init_tagESA_EEOT_OT0_, symObjAddr: 0x59F0, symBinAddr: 0x1000078D8, symSize: 0x98 }
  - { offsetInCU: 0x109A8, offset: 0x109A8, size: 0x8, addend: 0x0, symName: __ZNSt3__112basic_stringIcNS_11char_traitsIcEENS_9allocatorIcEEE13__get_pointerB8ue170006Ev, symObjAddr: 0x5DA8, symBinAddr: 0x100007C90, symSize: 0x5C }
  - { offsetInCU: 0x10A0B, offset: 0x10A0B, size: 0x8, addend: 0x0, symName: __ZNSt3__18ios_base5widthB8ue170006El, symObjAddr: 0x5850, symBinAddr: 0x100007738, symSize: 0x1A0 }
  - { offsetInCU: 0x10A54, offset: 0x10A54, size: 0x8, addend: 0x0, symName: __ZNKSt3__19basic_iosIcNS_11char_traitsIcEEE5widenB8ue170006Ec, symObjAddr: 0x636C, symBinAddr: 0x100008254, symSize: 0x340 }
  - { offsetInCU: 0x10AD7, offset: 0x10AD7, size: 0x8, addend: 0x0, symName: __ZNSt3__18ios_base8setstateB8ue170006Ej, symObjAddr: 0x67AC, symBinAddr: 0x100008694, symSize: 0x19C }
  - { offsetInCU: 0x10B74, offset: 0x10B74, size: 0x8, addend: 0x0, symName: __ZNSt3__122__compressed_pair_elemINS_9allocatorIcEELi1ELb1EEC2B8ue170006ENS_18__default_init_tagE, symObjAddr: 0x5A88, symBinAddr: 0x100007970, symSize: 0x7C }
  - { offsetInCU: 0x10C23, offset: 0x10C23, size: 0x8, addend: 0x0, symName: __ZNSt3__112basic_stringIcNS_11char_traitsIcEENS_9allocatorIcEEE19__get_short_pointerB8ue170006Ev, symObjAddr: 0x5B04, symBinAddr: 0x1000079EC, symSize: 0x58 }
  - { offsetInCU: 0x10C58, offset: 0x10C58, size: 0x8, addend: 0x0, symName: __ZNSt3__117__compressed_pairINS_12basic_stringIcNS_11char_traitsIcEENS_9allocatorIcEEE5__repES5_E5firstB8ue170006Ev, symObjAddr: 0x5C80, symBinAddr: 0x100007B68, symSize: 0xCC }
  - { offsetInCU: 0x10C9C, offset: 0x10C9C, size: 0x8, addend: 0x0, symName: __ZNSt12length_errorC1B8ue170006EPKc, symObjAddr: 0x5BD4, symBinAddr: 0x100007ABC, symSize: 0xAC }
  - { offsetInCU: 0x10D36, offset: 0x10D36, size: 0x8, addend: 0x0, symName: __ZNKSt3__112basic_stringIcNS_11char_traitsIcEENS_9allocatorIcEEE9__is_longB8ue170006Ev, symObjAddr: 0x5E04, symBinAddr: 0x100007CEC, symSize: 0x9C }
  - { offsetInCU: 0x10D6A, offset: 0x10D6A, size: 0x8, addend: 0x0, symName: __ZNSt3__112basic_stringIcNS_11char_traitsIcEENS_9allocatorIcEEE18__get_long_pointerB8ue170006Ev, symObjAddr: 0x5EA0, symBinAddr: 0x100007D88, symSize: 0x88 }
  - { offsetInCU: 0x10D9E, offset: 0x10D9E, size: 0x8, addend: 0x0, symName: __ZNKSt3__117__compressed_pairINS_12basic_stringIcNS_11char_traitsIcEENS_9allocatorIcEEE5__repES5_E5firstB8ue170006Ev, symObjAddr: 0x5F28, symBinAddr: 0x100007E10, symSize: 0xCC }
  - { offsetInCU: 0x10E1C, offset: 0x10E1C, size: 0x8, addend: 0x0, symName: __ZNKSt3__18ios_base5rdbufB8ue170006Ev, symObjAddr: 0x628C, symBinAddr: 0x100008174, symSize: 0xE0 }
  - { offsetInCU: 0x10EA9, offset: 0x10EA9, size: 0x8, addend: 0x0, symName: __ZNKSt3__112basic_stringIcNS_11char_traitsIcEENS_9allocatorIcEEE15__get_long_sizeB8ue170006Ev, symObjAddr: 0x6AE0, symBinAddr: 0x1000089C8, symSize: 0x8C }
  - { offsetInCU: 0x10EDD, offset: 0x10EDD, size: 0x8, addend: 0x0, symName: __ZNKSt3__112basic_stringIcNS_11char_traitsIcEENS_9allocatorIcEEE16__get_short_sizeB8ue170006Ev, symObjAddr: 0x6B6C, symBinAddr: 0x100008A54, symSize: 0x9C }
  - { offsetInCU: 0x10F11, offset: 0x10F11, size: 0x8, addend: 0x0, symName: __ZNKSt3__112basic_stringIcNS_11char_traitsIcEENS_9allocatorIcEEE18__get_long_pointerB8ue170006Ev, symObjAddr: 0x6A00, symBinAddr: 0x1000088E8, symSize: 0x88 }
  - { offsetInCU: 0x10F45, offset: 0x10F45, size: 0x8, addend: 0x0, symName: __ZNKSt3__112basic_stringIcNS_11char_traitsIcEENS_9allocatorIcEEE19__get_short_pointerB8ue170006Ev, symObjAddr: 0x6A88, symBinAddr: 0x100008970, symSize: 0x58 }
  - { offsetInCU: 0x10FFA, offset: 0x10FFA, size: 0x8, addend: 0x0, symName: __ZNSt3__16vectorIxNS_9allocatorIxEEE11__vallocateB8ue170006Em, symObjAddr: 0x70A8, symBinAddr: 0x100008F90, symSize: 0x1A0 }
  - { offsetInCU: 0x110E5, offset: 0x110E5, size: 0x8, addend: 0x0, symName: __ZNSt3__16vectorIxNS_9allocatorIxEEE18__construct_at_endEm, symObjAddr: 0x7248, symBinAddr: 0x100009130, symSize: 0x300 }
  - { offsetInCU: 0x11221, offset: 0x11221, size: 0x8, addend: 0x0, symName: __ZNSt3__128__exception_guard_exceptionsINS_6vectorIxNS_9allocatorIxEEE16__destroy_vectorEED2B8ue170006Ev, symObjAddr: 0x88B8, symBinAddr: 0x10000A7A0, symSize: 0xE4 }
  - { offsetInCU: 0x11260, offset: 0x11260, size: 0x8, addend: 0x0, symName: __ZNSt3__128__exception_guard_exceptionsINS_6vectorIxNS_9allocatorIxEEE16__destroy_vectorEED1B8ue170006Ev, symObjAddr: 0x7548, symBinAddr: 0x100009430, symSize: 0x48 }
  - { offsetInCU: 0x112C4, offset: 0x112C4, size: 0x8, addend: 0x0, symName: __ZNKSt3__16vectorIxNS_9allocatorIxEEE7__allocB8ue170006Ev, symObjAddr: 0x7AA4, symBinAddr: 0x10000998C, symSize: 0x70 }
  - { offsetInCU: 0x112F9, offset: 0x112F9, size: 0x8, addend: 0x0, symName: __ZNSt3__16vectorIxNS_9allocatorIxEEE7__allocB8ue170006Ev, symObjAddr: 0x7744, symBinAddr: 0x10000962C, symSize: 0x70 }
  - { offsetInCU: 0x11329, offset: 0x11329, size: 0x8, addend: 0x0, symName: __ZNSt3__117__compressed_pairIPxNS_9allocatorIxEEE5firstB8ue170006Ev, symObjAddr: 0x7CBC, symBinAddr: 0x100009BA4, symSize: 0xCC }
  - { offsetInCU: 0x1136D, offset: 0x1136D, size: 0x8, addend: 0x0, symName: __ZNKSt3__16vectorIxNS_9allocatorIxEEE14__annotate_newB8ue170006Em, symObjAddr: 0x7824, symBinAddr: 0x10000970C, symSize: 0x280 }
  - { offsetInCU: 0x11463, offset: 0x11463, size: 0x8, addend: 0x0, symName: __ZNKSt3__16vectorIxNS_9allocatorIxEEE20__throw_length_errorB8ue170006Ev, symObjAddr: 0x76BC, symBinAddr: 0x1000095A4, symSize: 0x44 }
  - { offsetInCU: 0x1157F, offset: 0x1157F, size: 0x8, addend: 0x0, symName: __ZNSt3__16vectorIxNS_9allocatorIxEEE21_ConstructTransactionC2B8ue170006ERS3_m, symObjAddr: 0x7F50, symBinAddr: 0x100009E38, symSize: 0x194 }
  - { offsetInCU: 0x115D7, offset: 0x115D7, size: 0x8, addend: 0x0, symName: __ZNSt3__117__compressed_pairIPxNS_9allocatorIxEEE6secondB8ue170006Ev, symObjAddr: 0x7BE8, symBinAddr: 0x100009AD0, symSize: 0xD4 }
  - { offsetInCU: 0x1161A, offset: 0x1161A, size: 0x8, addend: 0x0, symName: __ZNSt3__16vectorIxNS_9allocatorIxEEE21_ConstructTransactionD2B8ue170006Ev, symObjAddr: 0x8448, symBinAddr: 0x10000A330, symSize: 0x214 }
  - { offsetInCU: 0x11681, offset: 0x11681, size: 0x8, addend: 0x0, symName: __ZNSt3__122__compressed_pair_elemINS_9allocatorIxEELi1ELb1EEC2B8ue170006ENS_18__default_init_tagE, symObjAddr: 0x7640, symBinAddr: 0x100009528, symSize: 0x7C }
  - { offsetInCU: 0x117A7, offset: 0x117A7, size: 0x8, addend: 0x0, symName: __ZNKSt3__16vectorIxNS_9allocatorIxEEE8capacityB8ue170006Ev, symObjAddr: 0x7D88, symBinAddr: 0x100009C70, symSize: 0x8C }
  - { offsetInCU: 0x117E2, offset: 0x117E2, size: 0x8, addend: 0x0, symName: __ZNKSt3__117__compressed_pairIPxNS_9allocatorIxEEE6secondB8ue170006Ev, symObjAddr: 0x7B14, symBinAddr: 0x1000099FC, symSize: 0xD4 }
  - { offsetInCU: 0x1186D, offset: 0x1186D, size: 0x8, addend: 0x0, symName: __ZNKSt3__16vectorIxNS_9allocatorIxEEE9__end_capB8ue170006Ev, symObjAddr: 0x7E14, symBinAddr: 0x100009CFC, symSize: 0x70 }
  - { offsetInCU: 0x118A2, offset: 0x118A2, size: 0x8, addend: 0x0, symName: __ZNKSt3__117__compressed_pairIPxNS_9allocatorIxEEE5firstB8ue170006Ev, symObjAddr: 0x7E84, symBinAddr: 0x100009D6C, symSize: 0xCC }
  - { offsetInCU: 0x11902, offset: 0x11902, size: 0x8, addend: 0x0, symName: __ZNKSt3__16vectorIxNS_9allocatorIxEEE19__annotate_increaseB8ue170006Em, symObjAddr: 0x80E4, symBinAddr: 0x100009FCC, symSize: 0x2D8 }
  - { offsetInCU: 0x11A0C, offset: 0x11A0C, size: 0x8, addend: 0x0, symName: __ZNKSt3__16vectorIxNS_9allocatorIxEEE4sizeB8ue170006Ev, symObjAddr: 0x83BC, symBinAddr: 0x10000A2A4, symSize: 0x8C }
  - { offsetInCU: 0x11A33, offset: 0x11A33, size: 0x8, addend: 0x0, symName: __ZNKSt3__16vectorIxNS_9allocatorIxEEE17__annotate_shrinkB8ue170006Em, symObjAddr: 0x865C, symBinAddr: 0x10000A544, symSize: 0x25C }
  - { offsetInCU: 0x11B97, offset: 0x11B97, size: 0x8, addend: 0x0, symName: __ZNSt3__16vectorIxNS_9allocatorIxEEE22__base_destruct_at_endB8ue170006EPx, symObjAddr: 0x8E4C, symBinAddr: 0x10000AD34, symSize: 0xE8 }
  - { offsetInCU: 0x11BF2, offset: 0x11BF2, size: 0x8, addend: 0x0, symName: __ZNKSt3__16vectorIxNS_9allocatorIxEEE17__annotate_deleteB8ue170006Ev, symObjAddr: 0x8BDC, symBinAddr: 0x10000AAC4, symSize: 0x270 }
  - { offsetInCU: 0x11DCC, offset: 0x11DCC, size: 0x8, addend: 0x0, symName: __ZNKSt3__16vectorIxNS_9allocatorIxEEE11__recommendB8ue170006Em, symObjAddr: 0x9548, symBinAddr: 0x10000B430, symSize: 0x9C }
  - { offsetInCU: 0x11E78, offset: 0x11E78, size: 0x8, addend: 0x0, symName: __ZNSt3__114__split_bufferIxRNS_9allocatorIxEEEC2EmmS3_, symObjAddr: 0x9A6C, symBinAddr: 0x10000B954, symSize: 0x35C }
  - { offsetInCU: 0x11F7F, offset: 0x11F7F, size: 0x8, addend: 0x0, symName: __ZNSt3__114__split_bufferIxRNS_9allocatorIxEEED2Ev, symObjAddr: 0xA54C, symBinAddr: 0x10000C434, symSize: 0xF4 }
  - { offsetInCU: 0x1208E, offset: 0x1208E, size: 0x8, addend: 0x0, symName: __ZNSt3__114__split_bufferIxRNS_9allocatorIxEEED1Ev, symObjAddr: 0x9A24, symBinAddr: 0x10000B90C, symSize: 0x48 }
  - { offsetInCU: 0x120FC, offset: 0x120FC, size: 0x8, addend: 0x0, symName: __ZNKSt3__111__move_loopINS_17_ClassicAlgPolicyEEclB8ue170006INS_16reverse_iteratorIPxEES6_S6_EENS_4pairIT_T1_EES8_T0_S9_, symObjAddr: 0xA100, symBinAddr: 0x10000BFE8, symSize: 0x38C }
  - { offsetInCU: 0x1226D, offset: 0x1226D, size: 0x8, addend: 0x0, symName: __ZNSt3__117__compressed_pairIPxRNS_9allocatorIxEEE5firstB8ue170006Ev, symObjAddr: 0xA034, symBinAddr: 0x10000BF1C, symSize: 0xCC }
  - { offsetInCU: 0x122F3, offset: 0x122F3, size: 0x8, addend: 0x0, symName: __ZNSt3__117__compressed_pairIPxRNS_9allocatorIxEEEC2B8ue170006IDnS4_EEOT_OT0_, symObjAddr: 0x9E38, symBinAddr: 0x10000BD20, symSize: 0xFC }
  - { offsetInCU: 0x12383, offset: 0x12383, size: 0x8, addend: 0x0, symName: __ZNSt3__114__split_bufferIxRNS_9allocatorIxEEE7__allocB8ue170006Ev, symObjAddr: 0x9DC8, symBinAddr: 0x10000BCB0, symSize: 0x70 }
  - { offsetInCU: 0x123B3, offset: 0x123B3, size: 0x8, addend: 0x0, symName: __ZNSt3__117__compressed_pairIPxRNS_9allocatorIxEEE6secondB8ue170006Ev, symObjAddr: 0x9F34, symBinAddr: 0x10000BE1C, symSize: 0x100 }
  - { offsetInCU: 0x1252B, offset: 0x1252B, size: 0x8, addend: 0x0, symName: __ZNKSt3__116reverse_iteratorIPxEdeB8ue170006Ev, symObjAddr: 0xA48C, symBinAddr: 0x10000C374, symSize: 0xC0 }
  - { offsetInCU: 0x12578, offset: 0x12578, size: 0x8, addend: 0x0, symName: __ZNSt3__114__split_bufferIxRNS_9allocatorIxEEE5clearB8ue170006Ev, symObjAddr: 0xA640, symBinAddr: 0x10000C528, symSize: 0xAC }
  - { offsetInCU: 0x125CC, offset: 0x125CC, size: 0x8, addend: 0x0, symName: __ZNKSt3__114__split_bufferIxRNS_9allocatorIxEEE8capacityB8ue170006Ev, symObjAddr: 0xA6EC, symBinAddr: 0x10000C5D4, symSize: 0x8C }
  - { offsetInCU: 0x12628, offset: 0x12628, size: 0x8, addend: 0x0, symName: __ZNSt3__114__split_bufferIxRNS_9allocatorIxEEE17__destruct_at_endB8ue170006EPxNS_17integral_constantIbLb0EEE, symObjAddr: 0xA778, symBinAddr: 0x10000C660, symSize: 0x100 }
  - { offsetInCU: 0x1267C, offset: 0x1267C, size: 0x8, addend: 0x0, symName: __ZNKSt3__114__split_bufferIxRNS_9allocatorIxEEE9__end_capB8ue170006Ev, symObjAddr: 0xA878, symBinAddr: 0x10000C760, symSize: 0x70 }
  - { offsetInCU: 0x126B1, offset: 0x126B1, size: 0x8, addend: 0x0, symName: __ZNKSt3__117__compressed_pairIPxRNS_9allocatorIxEEE5firstB8ue170006Ev, symObjAddr: 0xA8E8, symBinAddr: 0x10000C7D0, symSize: 0xCC }
  - { offsetInCU: 0x127DC, offset: 0x127DC, size: 0x8, addend: 0x0, symName: __ZNSt3__116__list_node_baseIxPvEC2B8ue170006Ev, symObjAddr: 0xADCC, symBinAddr: 0x10000CCB4, symSize: 0xF8 }
  - { offsetInCU: 0x12841, offset: 0x12841, size: 0x8, addend: 0x0, symName: __ZNSt3__117__compressed_pairImNS_9allocatorINS_11__list_nodeIxPvEEEEEC2B8ue170006IiNS_18__default_init_tagEEEOT_OT0_, symObjAddr: 0xAEC4, symBinAddr: 0x10000CDAC, symSize: 0xE8 }
  - { offsetInCU: 0x128C9, offset: 0x128C9, size: 0x8, addend: 0x0, symName: __ZNSt3__14listIxNS_9allocatorIxEEE12emplace_backIJRxEEES5_DpOT_, symObjAddr: 0xB080, symBinAddr: 0x10000CF68, symSize: 0x348 }
  - { offsetInCU: 0x12AC9, offset: 0x12AC9, size: 0x8, addend: 0x0, symName: __ZNSt3__122__compressed_pair_elemINS_9allocatorINS_11__list_nodeIxPvEEEELi1ELb1EEC2B8ue170006ENS_18__default_init_tagE, symObjAddr: 0xAFAC, symBinAddr: 0x10000CE94, symSize: 0x7C }
  - { offsetInCU: 0x12CB6, offset: 0x12CB6, size: 0x8, addend: 0x0, symName: __ZNSt3__110unique_ptrINS_11__list_nodeIxPvEENS_22__allocator_destructorINS_9allocatorIS3_EEEEEC1B8ue170006ILb1EvEEPS3_NS_16__dependent_typeINS_27__unique_ptr_deleter_sfinaeIS7_EEXT_EE20__good_rval_ref_typeE, symObjAddr: 0xBA38, symBinAddr: 0x10000D920, symSize: 0x20C }
  - { offsetInCU: 0x12D6C, offset: 0x12D6C, size: 0x8, addend: 0x0, symName: __ZNSt3__117__compressed_pairIPNS_11__list_nodeIxPvEENS_22__allocator_destructorINS_9allocatorIS3_EEEEE5firstB8ue170006Ev, symObjAddr: 0xBE14, symBinAddr: 0x10000DCFC, symSize: 0xCC }
  - { offsetInCU: 0x12E2D, offset: 0x12E2D, size: 0x8, addend: 0x0, symName: __ZNSt3__117__compressed_pairIPNS_11__list_nodeIxPvEENS_22__allocator_destructorINS_9allocatorIS3_EEEEEC2B8ue170006IRS4_S8_EEOT_OT0_, symObjAddr: 0xBC44, symBinAddr: 0x10000DB2C, symSize: 0x104 }
  - { offsetInCU: 0x12F56, offset: 0x12F56, size: 0x8, addend: 0x0, symName: __ZNSt3__117__compressed_pairIPNS_11__list_nodeIxPvEENS_22__allocator_destructorINS_9allocatorIS3_EEEEE6secondB8ue170006Ev, symObjAddr: 0xBFE4, symBinAddr: 0x10000DECC, symSize: 0xB0 }
  - { offsetInCU: 0x12F9A, offset: 0x12F9A, size: 0x8, addend: 0x0, symName: __ZNSt3__122__allocator_destructorINS_9allocatorINS_11__list_nodeIxPvEEEEEclB8ue170006EPS4_, symObjAddr: 0xC094, symBinAddr: 0x10000DF7C, symSize: 0x98 }
  - { offsetInCU: 0x13081, offset: 0x13081, size: 0x8, addend: 0x0, symName: __ZNSt3__14listIxNS_9allocatorIxEEE5beginB8ue170006Ev, symObjAddr: 0xC460, symBinAddr: 0x10000E348, symSize: 0x118 }
  - { offsetInCU: 0x130BF, offset: 0x130BF, size: 0x8, addend: 0x0, symName: __ZNSt3__14listIxNS_9allocatorIxEEE3endB8ue170006Ev, symObjAddr: 0xC578, symBinAddr: 0x10000E460, symSize: 0xAC }
  - { offsetInCU: 0x1310B, offset: 0x1310B, size: 0x8, addend: 0x0, symName: __ZNKSt3__115__list_iteratorIxPvEdeB8ue170006Ev, symObjAddr: 0xC624, symBinAddr: 0x10000E50C, symSize: 0xF4 }
  - { offsetInCU: 0x1313F, offset: 0x1313F, size: 0x8, addend: 0x0, symName: __ZNSt3__115__list_iteratorIxPvEppB8ue170006Ev, symObjAddr: 0xC718, symBinAddr: 0x10000E600, symSize: 0x144 }
...
