---
triple:          'arm64-apple-darwin'
binary-path:     '/Users/eric/Workspace/compprog/usaco/contest/2025/jan/3.bin'
relocations:
  - { offsetInCU: 0x3B, offset: 0x3B, size: 0x8, addend: 0x0, symName: _.str, symObjAddr: 0x1E1E0, symBinAddr: 0x1000191E0, symSize: 0x0 }
  - { offsetInCU: 0x6C, offset: 0x6C, size: 0x8, addend: 0x0, symName: _.str.12, symObjAddr: 0x1E200, symBinAddr: 0x100019200, symSize: 0x0 }
  - { offsetInCU: 0x8A, offset: 0x8A, size: 0x8, addend: 0x0, symName: _.str.22, symObjAddr: 0x1E220, symBinAddr: 0x100019220, symSize: 0x0 }
  - { offsetInCU: 0x3362, offset: 0x3362, size: 0x8, addend: 0x0, symName: __ZNSt3__124__put_character_sequenceB8ue170006IcNS_11char_traitsIcEEEERNS_13basic_ostreamIT_T0_EES7_PKS4_m, symObjAddr: 0x5F10, symBinAddr: 0x100007A04, symSize: 0x910 }
  - { offsetInCU: 0x85C8, offset: 0x85C8, size: 0x8, addend: 0x0, symName: __ZNSt3__15clampB8ue170006IiEERKT_S3_S3_S3_, symObjAddr: 0x5C68, symBinAddr: 0x10000775C, symSize: 0xB0 }
  - { offsetInCU: 0x8667, offset: 0x8667, size: 0x8, addend: 0x0, symName: __ZNSt3__116__tree_next_iterB8ue170006IPNS_15__tree_end_nodeIPNS_16__tree_node_baseIPvEEEES5_EET_T0_, symObjAddr: 0x13BB0, symBinAddr: 0x1000156A4, symSize: 0x41C }
  - { offsetInCU: 0x877C, offset: 0x877C, size: 0x8, addend: 0x0, symName: __ZNSt3__116__pad_and_outputB8ue170006IcNS_11char_traitsIcEEEENS_19ostreambuf_iteratorIT_T0_EES6_PKS4_S8_S8_RNS_8ios_baseES4_, symObjAddr: 0x6820, symBinAddr: 0x100008314, symSize: 0x800 }
  - { offsetInCU: 0x89DB, offset: 0x89DB, size: 0x8, addend: 0x0, symName: __ZNSt3__120__throw_length_errorB8ue170006EPKc, symObjAddr: 0x767C, symBinAddr: 0x100009170, symSize: 0x78 }
  - { offsetInCU: 0x8EB8, offset: 0x8EB8, size: 0x8, addend: 0x0, symName: __ZNSt3__19use_facetB8ue170006INS_5ctypeIcEEEERKT_RKNS_6localeE, symObjAddr: 0x81CC, symBinAddr: 0x100009CC0, symSize: 0x100 }
  - { offsetInCU: 0x8F13, offset: 0x8F13, size: 0x8, addend: 0x0, symName: __ZNSt3__119__allocate_at_leastB8ue170006INS_9allocatorIiEEEENS_19__allocation_resultINS_16allocator_traitsIT_E7pointerEEERS5_m, symObjAddr: 0x8DF8, symBinAddr: 0x10000A8EC, symSize: 0x44 }
  - { offsetInCU: 0x90C0, offset: 0x90C0, size: 0x8, addend: 0x0, symName: __ZNSt3__127__tree_balance_after_insertB8ue170006IPNS_16__tree_node_baseIPvEEEEvT_S5_, symObjAddr: 0xCD64, symBinAddr: 0x10000E858, symSize: 0x11B8 }
  - { offsetInCU: 0x9311, offset: 0x9311, size: 0x8, addend: 0x0, symName: __ZNSt3__119__tree_right_rotateB8ue170006IPNS_16__tree_node_baseIPvEEEEvT_, symObjAddr: 0xE630, symBinAddr: 0x100010124, symSize: 0x834 }
  - { offsetInCU: 0x93C3, offset: 0x93C3, size: 0x8, addend: 0x0, symName: __ZNSt3__118__tree_left_rotateB8ue170006IPNS_16__tree_node_baseIPvEEEEvT_, symObjAddr: 0xE028, symBinAddr: 0x10000FB1C, symSize: 0x608 }
  - { offsetInCU: 0x9475, offset: 0x9475, size: 0x8, addend: 0x0, symName: __ZNSt3__113__tree_removeB8ue170006IPNS_16__tree_node_baseIPvEEEEvT_S5_, symObjAddr: 0xFCE8, symBinAddr: 0x1000117DC, symSize: 0x3EC8 }
  - { offsetInCU: 0x97CE, offset: 0x97CE, size: 0x8, addend: 0x0, symName: __ZNSt3__111__tree_nextB8ue170006IPNS_16__tree_node_baseIPvEEEET_S5_, symObjAddr: 0x13FCC, symBinAddr: 0x100015AC0, symSize: 0x3E0 }
  - { offsetInCU: 0x9B5D, offset: 0x9B5D, size: 0x8, addend: 0x0, symName: __ZSt28__throw_bad_array_new_lengthB8ue170006v, symObjAddr: 0x786C, symBinAddr: 0x100009360, symSize: 0x5C }
  - { offsetInCU: 0xCB59, offset: 0xCB59, size: 0x8, addend: 0x0, symName: __Z4distxx, symObjAddr: 0x0, symBinAddr: 0x100001AF4, symSize: 0x18C }
  - { offsetInCU: 0xCBD2, offset: 0xCBD2, size: 0x8, addend: 0x0, symName: __Z5print3seg, symObjAddr: 0x18C, symBinAddr: 0x100001C80, symSize: 0x43C }
  - { offsetInCU: 0xD00F, offset: 0xD00F, size: 0x8, addend: 0x0, symName: _main, symObjAddr: 0x5C8, symBinAddr: 0x1000020BC, symSize: 0x4CF4 }
  - { offsetInCU: 0xEE6D, offset: 0xEE6D, size: 0x8, addend: 0x0, symName: __ZNSt3__19basic_iosIcNS_11char_traitsIcEEE3tieB8ue170006EPNS_13basic_ostreamIcS2_EE, symObjAddr: 0x52BC, symBinAddr: 0x100006DB0, symSize: 0x1A0 }
  - { offsetInCU: 0xEEB6, offset: 0xEEB6, size: 0x8, addend: 0x0, symName: __ZNSt3__16vectorIiNS_9allocatorIiEEEC2Em, symObjAddr: 0x8468, symBinAddr: 0x100009F5C, symSize: 0x338 }
  - { offsetInCU: 0xF00E, offset: 0xF00E, size: 0x8, addend: 0x0, symName: __ZNSt3__16__treeI3segNS_4lessIS1_EENS_9allocatorIS1_EEEC2ERKS3_, symObjAddr: 0xA5BC, symBinAddr: 0x10000C0B0, symSize: 0x258 }
  - { offsetInCU: 0xF0E5, offset: 0xF0E5, size: 0x8, addend: 0x0, symName: __ZNSt3__13setI3segNS_4lessIS1_EENS_9allocatorIS1_EEE7emplaceB8ue170006IJididEEENS_4pairINS_21__tree_const_iteratorIS1_PNS_11__tree_nodeIS1_PvEElEEbEEDpOT_, symObjAddr: 0x545C, symBinAddr: 0x100006F50, symSize: 0x230 }
  - { offsetInCU: 0xF1C2, offset: 0xF1C2, size: 0x8, addend: 0x0, symName: __ZNSt3__16__treeI3segNS_4lessIS1_EENS_9allocatorIS1_EEE11lower_boundB8ue170006IS1_EENS_15__tree_iteratorIS1_PNS_11__tree_nodeIS1_PvEElEERKT_, symObjAddr: 0xF434, symBinAddr: 0x100010F28, symSize: 0x6C }
  - { offsetInCU: 0xF24A, offset: 0xF24A, size: 0x8, addend: 0x0, symName: __ZNKSt3__121__tree_const_iteratorI3segPNS_11__tree_nodeIS1_PvEElEdeB8ue170006Ev, symObjAddr: 0x568C, symBinAddr: 0x100007180, symSize: 0xDC }
  - { offsetInCU: 0xF288, offset: 0xF288, size: 0x8, addend: 0x0, symName: __ZNSt3__16__treeI3segNS_4lessIS1_EENS_9allocatorIS1_EEE5eraseENS_21__tree_const_iteratorIS1_PNS_11__tree_nodeIS1_PvEElEE, symObjAddr: 0xF6EC, symBinAddr: 0x1000111E0, symSize: 0x1DC }
  - { offsetInCU: 0xF3F0, offset: 0xF3F0, size: 0x8, addend: 0x0, symName: __ZNSt3__13setI3segNS_4lessIS1_EENS_9allocatorIS1_EEE7emplaceB8ue170006IJRiS8_S8_S8_EEENS_4pairINS_21__tree_const_iteratorIS1_PNS_11__tree_nodeIS1_PvEElEEbEEDpOT_, symObjAddr: 0x5768, symBinAddr: 0x10000725C, symSize: 0x230 }
  - { offsetInCU: 0xF4CD, offset: 0xF4CD, size: 0x8, addend: 0x0, symName: __ZNSt3__16__treeI3segNS_4lessIS1_EENS_9allocatorIS1_EEE11upper_boundB8ue170006IS1_EENS_15__tree_iteratorIS1_PNS_11__tree_nodeIS1_PvEElEERKT_, symObjAddr: 0x14D64, symBinAddr: 0x100016858, symSize: 0x6C }
  - { offsetInCU: 0xF555, offset: 0xF555, size: 0x8, addend: 0x0, symName: __ZNKSt3__121__tree_const_iteratorI3segPNS_11__tree_nodeIS1_PvEElEptB8ue170006Ev, symObjAddr: 0x5A4C, symBinAddr: 0x100007540, symSize: 0xDC }
  - { offsetInCU: 0xF593, offset: 0xF593, size: 0x8, addend: 0x0, symName: __ZNSt3__13setI3segNS_4lessIS1_EENS_9allocatorIS1_EEE5eraseB8ue170006ENS_21__tree_const_iteratorIS1_PNS_11__tree_nodeIS1_PvEElEESC_, symObjAddr: 0x5998, symBinAddr: 0x10000748C, symSize: 0xB4 }
  - { offsetInCU: 0xF617, offset: 0xF617, size: 0x8, addend: 0x0, symName: __ZNSt3__121__tree_const_iteratorI3segPNS_11__tree_nodeIS1_PvEElEppB8ue170006Ev, symObjAddr: 0x5B28, symBinAddr: 0x10000761C, symSize: 0xD8 }
  - { offsetInCU: 0xF64B, offset: 0xF64B, size: 0x8, addend: 0x0, symName: __ZNSt3__16__treeI3segNS_4lessIS1_EENS_9allocatorIS1_EEE5beginB8ue170006Ev, symObjAddr: 0x1501C, symBinAddr: 0x100016B10, symSize: 0x8C }
  - { offsetInCU: 0xF691, offset: 0xF691, size: 0x8, addend: 0x0, symName: __ZNSt3__13setI3segNS_4lessIS1_EENS_9allocatorIS1_EEE3endB8ue170006Ev, symObjAddr: 0x5C00, symBinAddr: 0x1000076F4, symSize: 0x68 }
  - { offsetInCU: 0xF6DD, offset: 0xF6DD, size: 0x8, addend: 0x0, symName: __ZNSt3__16__treeI3segNS_4lessIS1_EENS_9allocatorIS1_EEED1Ev, symObjAddr: 0xAB84, symBinAddr: 0x10000C678, symSize: 0x64 }
  - { offsetInCU: 0xF749, offset: 0xF749, size: 0x8, addend: 0x0, symName: __ZNSt3__16vectorIiNS_9allocatorIiEEE16__destroy_vectorclB8ue170006Ev, symObjAddr: 0xA024, symBinAddr: 0x10000BB18, symSize: 0x240 }
  - { offsetInCU: 0xF877, offset: 0xF877, size: 0x8, addend: 0x0, symName: __ZNSt3__13setI3segNS_4lessIS1_EENS_9allocatorIS1_EEED1B8ue170006Ev, symObjAddr: 0x5D18, symBinAddr: 0x10000780C, symSize: 0x58 }
  - { offsetInCU: 0xF8BE, offset: 0xF8BE, size: 0x8, addend: 0x0, symName: __ZNSt3__16vectorIiNS_9allocatorIiEEED1B8ue170006Ev, symObjAddr: 0x5D70, symBinAddr: 0x100007864, symSize: 0x1A0 }
  - { offsetInCU: 0xF963, offset: 0xF963, size: 0x8, addend: 0x0, symName: __ZNSt3__16__treeI3segNS_4lessIS1_EENS_9allocatorIS1_EEE16__emplace_uniqueB8ue170006IJididEEENS_4pairINS_15__tree_iteratorIS1_PNS_11__tree_nodeIS1_PvEElEEbEEDpOT_, symObjAddr: 0xB11C, symBinAddr: 0x10000CC10, symSize: 0x58 }
  - { offsetInCU: 0xF9F2, offset: 0xF9F2, size: 0x8, addend: 0x0, symName: __ZNSt3__14pairINS_21__tree_const_iteratorI3segPNS_11__tree_nodeIS2_PvEElEEbEC2B8ue170006INS_15__tree_iteratorIS2_S6_lEEbLS4_0EEEONS0_IT_T0_EE, symObjAddr: 0xF2C8, symBinAddr: 0x100010DBC, symSize: 0x16C }
  - { offsetInCU: 0xFA98, offset: 0xFA98, size: 0x8, addend: 0x0, symName: __ZNSt3__16__treeI3segNS_4lessIS1_EENS_9allocatorIS1_EEE16__emplace_uniqueB8ue170006IJRiS8_S8_S8_EEENS_4pairINS_15__tree_iteratorIS1_PNS_11__tree_nodeIS1_PvEElEEbEEDpOT_, symObjAddr: 0x143AC, symBinAddr: 0x100015EA0, symSize: 0x58 }
  - { offsetInCU: 0xFB6D, offset: 0xFB6D, size: 0x8, addend: 0x0, symName: __ZNSt3__16__treeI3segNS_4lessIS1_EENS_9allocatorIS1_EEE10__end_nodeB8ue170006Ev, symObjAddr: 0xA814, symBinAddr: 0x10000C308, symSize: 0x70 }
  - { offsetInCU: 0xFC73, offset: 0xFC73, size: 0x8, addend: 0x0, symName: __ZNSt3__119ostreambuf_iteratorIcNS_11char_traitsIcEEEC2B8ue170006ERNS_13basic_ostreamIcS2_EE, symObjAddr: 0x7B14, symBinAddr: 0x100009608, symSize: 0x298 }
  - { offsetInCU: 0xFCD0, offset: 0xFCD0, size: 0x8, addend: 0x0, symName: __ZNKSt3__19basic_iosIcNS_11char_traitsIcEEE4fillB8ue170006Ev, symObjAddr: 0x7020, symBinAddr: 0x100008B14, symSize: 0x248 }
  - { offsetInCU: 0xFD13, offset: 0xFD13, size: 0x8, addend: 0x0, symName: __ZNSt3__19basic_iosIcNS_11char_traitsIcEEE8setstateB8ue170006Ej, symObjAddr: 0x7268, symBinAddr: 0x100008D5C, symSize: 0xFC }
  - { offsetInCU: 0xFE22, offset: 0xFE22, size: 0x8, addend: 0x0, symName: __ZNSt3__117__compressed_pairINS_12basic_stringIcNS_11char_traitsIcEENS_9allocatorIcEEE5__repES5_EC1B8ue170006INS_18__default_init_tagESA_EEOT_OT0_, symObjAddr: 0x7510, symBinAddr: 0x100009004, symSize: 0x98 }
  - { offsetInCU: 0xFEBF, offset: 0xFEBF, size: 0x8, addend: 0x0, symName: __ZNSt3__112basic_stringIcNS_11char_traitsIcEENS_9allocatorIcEEE13__get_pointerB8ue170006Ev, symObjAddr: 0x78C8, symBinAddr: 0x1000093BC, symSize: 0x5C }
  - { offsetInCU: 0xFF22, offset: 0xFF22, size: 0x8, addend: 0x0, symName: __ZNSt3__18ios_base5widthB8ue170006El, symObjAddr: 0x7370, symBinAddr: 0x100008E64, symSize: 0x1A0 }
  - { offsetInCU: 0xFF6B, offset: 0xFF6B, size: 0x8, addend: 0x0, symName: __ZNKSt3__19basic_iosIcNS_11char_traitsIcEEE5widenB8ue170006Ec, symObjAddr: 0x7E8C, symBinAddr: 0x100009980, symSize: 0x340 }
  - { offsetInCU: 0xFFEE, offset: 0xFFEE, size: 0x8, addend: 0x0, symName: __ZNSt3__18ios_base8setstateB8ue170006Ej, symObjAddr: 0x82CC, symBinAddr: 0x100009DC0, symSize: 0x19C }
  - { offsetInCU: 0x1008B, offset: 0x1008B, size: 0x8, addend: 0x0, symName: __ZNSt3__122__compressed_pair_elemINS_9allocatorIcEELi1ELb1EEC2B8ue170006ENS_18__default_init_tagE, symObjAddr: 0x75A8, symBinAddr: 0x10000909C, symSize: 0x7C }
  - { offsetInCU: 0x1013A, offset: 0x1013A, size: 0x8, addend: 0x0, symName: __ZNSt3__112basic_stringIcNS_11char_traitsIcEENS_9allocatorIcEEE19__get_short_pointerB8ue170006Ev, symObjAddr: 0x7624, symBinAddr: 0x100009118, symSize: 0x58 }
  - { offsetInCU: 0x1016F, offset: 0x1016F, size: 0x8, addend: 0x0, symName: __ZNSt3__117__compressed_pairINS_12basic_stringIcNS_11char_traitsIcEENS_9allocatorIcEEE5__repES5_E5firstB8ue170006Ev, symObjAddr: 0x77A0, symBinAddr: 0x100009294, symSize: 0xCC }
  - { offsetInCU: 0x101B3, offset: 0x101B3, size: 0x8, addend: 0x0, symName: __ZNSt12length_errorC1B8ue170006EPKc, symObjAddr: 0x76F4, symBinAddr: 0x1000091E8, symSize: 0xAC }
  - { offsetInCU: 0x1024D, offset: 0x1024D, size: 0x8, addend: 0x0, symName: __ZNKSt3__112basic_stringIcNS_11char_traitsIcEENS_9allocatorIcEEE9__is_longB8ue170006Ev, symObjAddr: 0x7924, symBinAddr: 0x100009418, symSize: 0x9C }
  - { offsetInCU: 0x10281, offset: 0x10281, size: 0x8, addend: 0x0, symName: __ZNSt3__112basic_stringIcNS_11char_traitsIcEENS_9allocatorIcEEE18__get_long_pointerB8ue170006Ev, symObjAddr: 0x79C0, symBinAddr: 0x1000094B4, symSize: 0x88 }
  - { offsetInCU: 0x102B5, offset: 0x102B5, size: 0x8, addend: 0x0, symName: __ZNKSt3__117__compressed_pairINS_12basic_stringIcNS_11char_traitsIcEENS_9allocatorIcEEE5__repES5_E5firstB8ue170006Ev, symObjAddr: 0x7A48, symBinAddr: 0x10000953C, symSize: 0xCC }
  - { offsetInCU: 0x10333, offset: 0x10333, size: 0x8, addend: 0x0, symName: __ZNKSt3__18ios_base5rdbufB8ue170006Ev, symObjAddr: 0x7DAC, symBinAddr: 0x1000098A0, symSize: 0xE0 }
  - { offsetInCU: 0x10488, offset: 0x10488, size: 0x8, addend: 0x0, symName: __ZNSt3__117__compressed_pairIPiNS_9allocatorIiEEEC2B8ue170006IDnNS_18__default_init_tagEEEOT_OT0_, symObjAddr: 0x8C88, symBinAddr: 0x10000A77C, symSize: 0xB0 }
  - { offsetInCU: 0x10507, offset: 0x10507, size: 0x8, addend: 0x0, symName: __ZNSt3__16vectorIiNS_9allocatorIiEEE11__vallocateB8ue170006Em, symObjAddr: 0x87A0, symBinAddr: 0x10000A294, symSize: 0x1A0 }
  - { offsetInCU: 0x105F2, offset: 0x105F2, size: 0x8, addend: 0x0, symName: __ZNSt3__16vectorIiNS_9allocatorIiEEE18__construct_at_endEm, symObjAddr: 0x8940, symBinAddr: 0x10000A434, symSize: 0x300 }
  - { offsetInCU: 0x1072E, offset: 0x1072E, size: 0x8, addend: 0x0, symName: __ZNSt3__128__exception_guard_exceptionsINS_6vectorIiNS_9allocatorIiEEE16__destroy_vectorEED2B8ue170006Ev, symObjAddr: 0x9F40, symBinAddr: 0x10000BA34, symSize: 0xE4 }
  - { offsetInCU: 0x1076D, offset: 0x1076D, size: 0x8, addend: 0x0, symName: __ZNSt3__128__exception_guard_exceptionsINS_6vectorIiNS_9allocatorIiEEE16__destroy_vectorEED1B8ue170006Ev, symObjAddr: 0x8C40, symBinAddr: 0x10000A734, symSize: 0x48 }
  - { offsetInCU: 0x107D1, offset: 0x107D1, size: 0x8, addend: 0x0, symName: __ZNKSt3__16vectorIiNS_9allocatorIiEEE7__allocB8ue170006Ev, symObjAddr: 0x912C, symBinAddr: 0x10000AC20, symSize: 0x70 }
  - { offsetInCU: 0x10806, offset: 0x10806, size: 0x8, addend: 0x0, symName: __ZNSt3__16vectorIiNS_9allocatorIiEEE7__allocB8ue170006Ev, symObjAddr: 0x8E3C, symBinAddr: 0x10000A930, symSize: 0x70 }
  - { offsetInCU: 0x10836, offset: 0x10836, size: 0x8, addend: 0x0, symName: __ZNSt3__117__compressed_pairIPiNS_9allocatorIiEEE5firstB8ue170006Ev, symObjAddr: 0x9344, symBinAddr: 0x10000AE38, symSize: 0xCC }
  - { offsetInCU: 0x1087A, offset: 0x1087A, size: 0x8, addend: 0x0, symName: __ZNKSt3__16vectorIiNS_9allocatorIiEEE14__annotate_newB8ue170006Em, symObjAddr: 0x8EAC, symBinAddr: 0x10000A9A0, symSize: 0x280 }
  - { offsetInCU: 0x10970, offset: 0x10970, size: 0x8, addend: 0x0, symName: __ZNKSt3__16vectorIiNS_9allocatorIiEEE20__throw_length_errorB8ue170006Ev, symObjAddr: 0x8DB4, symBinAddr: 0x10000A8A8, symSize: 0x44 }
  - { offsetInCU: 0x10A8C, offset: 0x10A8C, size: 0x8, addend: 0x0, symName: __ZNSt3__16vectorIiNS_9allocatorIiEEE21_ConstructTransactionC2B8ue170006ERS3_m, symObjAddr: 0x95D8, symBinAddr: 0x10000B0CC, symSize: 0x194 }
  - { offsetInCU: 0x10AE4, offset: 0x10AE4, size: 0x8, addend: 0x0, symName: __ZNSt3__117__compressed_pairIPiNS_9allocatorIiEEE6secondB8ue170006Ev, symObjAddr: 0x9270, symBinAddr: 0x10000AD64, symSize: 0xD4 }
  - { offsetInCU: 0x10B27, offset: 0x10B27, size: 0x8, addend: 0x0, symName: __ZNSt3__16vectorIiNS_9allocatorIiEEE21_ConstructTransactionD2B8ue170006Ev, symObjAddr: 0x9AD0, symBinAddr: 0x10000B5C4, symSize: 0x214 }
  - { offsetInCU: 0x10B8E, offset: 0x10B8E, size: 0x8, addend: 0x0, symName: __ZNSt3__122__compressed_pair_elemINS_9allocatorIiEELi1ELb1EEC2B8ue170006ENS_18__default_init_tagE, symObjAddr: 0x8D38, symBinAddr: 0x10000A82C, symSize: 0x7C }
  - { offsetInCU: 0x10CB9, offset: 0x10CB9, size: 0x8, addend: 0x0, symName: __ZNKSt3__16vectorIiNS_9allocatorIiEEE8capacityB8ue170006Ev, symObjAddr: 0x9410, symBinAddr: 0x10000AF04, symSize: 0x8C }
  - { offsetInCU: 0x10CF4, offset: 0x10CF4, size: 0x8, addend: 0x0, symName: __ZNKSt3__117__compressed_pairIPiNS_9allocatorIiEEE6secondB8ue170006Ev, symObjAddr: 0x919C, symBinAddr: 0x10000AC90, symSize: 0xD4 }
  - { offsetInCU: 0x10D7F, offset: 0x10D7F, size: 0x8, addend: 0x0, symName: __ZNKSt3__16vectorIiNS_9allocatorIiEEE9__end_capB8ue170006Ev, symObjAddr: 0x949C, symBinAddr: 0x10000AF90, symSize: 0x70 }
  - { offsetInCU: 0x10DB4, offset: 0x10DB4, size: 0x8, addend: 0x0, symName: __ZNKSt3__117__compressed_pairIPiNS_9allocatorIiEEE5firstB8ue170006Ev, symObjAddr: 0x950C, symBinAddr: 0x10000B000, symSize: 0xCC }
  - { offsetInCU: 0x10E14, offset: 0x10E14, size: 0x8, addend: 0x0, symName: __ZNKSt3__16vectorIiNS_9allocatorIiEEE19__annotate_increaseB8ue170006Em, symObjAddr: 0x976C, symBinAddr: 0x10000B260, symSize: 0x2D8 }
  - { offsetInCU: 0x10F1E, offset: 0x10F1E, size: 0x8, addend: 0x0, symName: __ZNKSt3__16vectorIiNS_9allocatorIiEEE4sizeB8ue170006Ev, symObjAddr: 0x9A44, symBinAddr: 0x10000B538, symSize: 0x8C }
  - { offsetInCU: 0x10F45, offset: 0x10F45, size: 0x8, addend: 0x0, symName: __ZNKSt3__16vectorIiNS_9allocatorIiEEE17__annotate_shrinkB8ue170006Em, symObjAddr: 0x9CE4, symBinAddr: 0x10000B7D8, symSize: 0x25C }
  - { offsetInCU: 0x110A9, offset: 0x110A9, size: 0x8, addend: 0x0, symName: __ZNSt3__16vectorIiNS_9allocatorIiEEE22__base_destruct_at_endB8ue170006EPi, symObjAddr: 0xA4D4, symBinAddr: 0x10000BFC8, symSize: 0xE8 }
  - { offsetInCU: 0x11104, offset: 0x11104, size: 0x8, addend: 0x0, symName: __ZNKSt3__16vectorIiNS_9allocatorIiEEE17__annotate_deleteB8ue170006Ev, symObjAddr: 0xA264, symBinAddr: 0x10000BD58, symSize: 0x270 }
  - { offsetInCU: 0x1127B, offset: 0x1127B, size: 0x8, addend: 0x0, symName: __ZNSt3__117__compressed_pairINS_15__tree_end_nodeIPNS_16__tree_node_baseIPvEEEENS_9allocatorINS_11__tree_nodeI3segS3_EEEEEC2B8ue170006ILb1EvEEv, symObjAddr: 0xA884, symBinAddr: 0x10000C378, symSize: 0xD0 }
  - { offsetInCU: 0x11302, offset: 0x11302, size: 0x8, addend: 0x0, symName: __ZNSt3__117__compressed_pairImNS_4lessI3segEEEC2B8ue170006IiRKS3_EEOT_OT0_, symObjAddr: 0xA9D0, symBinAddr: 0x10000C4C4, symSize: 0xE8 }
  - { offsetInCU: 0x1137C, offset: 0x1137C, size: 0x8, addend: 0x0, symName: __ZNSt3__117__compressed_pairINS_15__tree_end_nodeIPNS_16__tree_node_baseIPvEEEENS_9allocatorINS_11__tree_nodeI3segS3_EEEEE5firstB8ue170006Ev, symObjAddr: 0xAAB8, symBinAddr: 0x10000C5AC, symSize: 0xCC }
  - { offsetInCU: 0x11416, offset: 0x11416, size: 0x8, addend: 0x0, symName: __ZNSt3__122__compressed_pair_elemINS_9allocatorINS_11__tree_nodeI3segPvEEEELi1ELb1EEC2B8ue170006ENS_16__value_init_tagE, symObjAddr: 0xA954, symBinAddr: 0x10000C448, symSize: 0x7C }
  - { offsetInCU: 0x11526, offset: 0x11526, size: 0x8, addend: 0x0, symName: __ZNKSt3__16__treeI3segNS_4lessIS1_EENS_9allocatorIS1_EEE6__rootB8ue170006Ev, symObjAddr: 0xADB8, symBinAddr: 0x10000C8AC, symSize: 0xE4 }
  - { offsetInCU: 0x1155A, offset: 0x1155A, size: 0x8, addend: 0x0, symName: __ZNSt3__16__treeI3segNS_4lessIS1_EENS_9allocatorIS1_EEE7destroyEPNS_11__tree_nodeIS1_PvEE, symObjAddr: 0xABE8, symBinAddr: 0x10000C6DC, symSize: 0x1D0 }
  - { offsetInCU: 0x116EC, offset: 0x116EC, size: 0x8, addend: 0x0, symName: __ZNSt3__16__treeI3segNS_4lessIS1_EENS_9allocatorIS1_EEE12__node_allocB8ue170006Ev, symObjAddr: 0xAE9C, symBinAddr: 0x10000C990, symSize: 0x70 }
  - { offsetInCU: 0x11721, offset: 0x11721, size: 0x8, addend: 0x0, symName: __ZNKSt3__16__treeI3segNS_4lessIS1_EENS_9allocatorIS1_EEE10__end_nodeB8ue170006Ev, symObjAddr: 0xAFE0, symBinAddr: 0x10000CAD4, symSize: 0x70 }
  - { offsetInCU: 0x11756, offset: 0x11756, size: 0x8, addend: 0x0, symName: __ZNSt3__117__compressed_pairINS_15__tree_end_nodeIPNS_16__tree_node_baseIPvEEEENS_9allocatorINS_11__tree_nodeI3segS3_EEEEE6secondB8ue170006Ev, symObjAddr: 0xAF0C, symBinAddr: 0x10000CA00, symSize: 0xD4 }
  - { offsetInCU: 0x117AF, offset: 0x117AF, size: 0x8, addend: 0x0, symName: __ZNKSt3__117__compressed_pairINS_15__tree_end_nodeIPNS_16__tree_node_baseIPvEEEENS_9allocatorINS_11__tree_nodeI3segS3_EEEEE5firstB8ue170006Ev, symObjAddr: 0xB050, symBinAddr: 0x10000CB44, symSize: 0xCC }
  - { offsetInCU: 0x1180F, offset: 0x1180F, size: 0x8, addend: 0x0, symName: __ZNSt3__16__treeI3segNS_4lessIS1_EENS_9allocatorIS1_EEE21__emplace_unique_implIJididEEENS_4pairINS_15__tree_iteratorIS1_PNS_11__tree_nodeIS1_PvEElEEbEEDpOT_, symObjAddr: 0xB174, symBinAddr: 0x10000CC68, symSize: 0x3A8 }
  - { offsetInCU: 0x11AF7, offset: 0x11AF7, size: 0x8, addend: 0x0, symName: __ZNSt3__16__treeI3segNS_4lessIS1_EENS_9allocatorIS1_EEE16__construct_nodeIJididEEENS_10unique_ptrINS_11__tree_nodeIS1_PvEENS_22__tree_node_destructorINS4_ISB_EEEEEEDpOT_, symObjAddr: 0xB51C, symBinAddr: 0x10000D010, symSize: 0x35C }
  - { offsetInCU: 0x11D0F, offset: 0x11D0F, size: 0x8, addend: 0x0, symName: __ZNKSt3__117__compressed_pairIPNS_11__tree_nodeI3segPvEENS_22__tree_node_destructorINS_9allocatorIS4_EEEEE5firstB8ue170006Ev, symObjAddr: 0xCC98, symBinAddr: 0x10000E78C, symSize: 0xCC }
  - { offsetInCU: 0x11D53, offset: 0x11D53, size: 0x8, addend: 0x0, symName: __ZNSt3__16__treeI3segNS_4lessIS1_EENS_9allocatorIS1_EEE12__find_equalIS1_EERPNS_16__tree_node_baseIPvEERPNS_15__tree_end_nodeISB_EERKT_, symObjAddr: 0xB878, symBinAddr: 0x10000D36C, symSize: 0x63C }
  - { offsetInCU: 0x11E89, offset: 0x11E89, size: 0x8, addend: 0x0, symName: __ZNSt3__16__treeI3segNS_4lessIS1_EENS_9allocatorIS1_EEE16__insert_node_atEPNS_15__tree_end_nodeIPNS_16__tree_node_baseIPvEEEERSB_SB_, symObjAddr: 0xBEB4, symBinAddr: 0x10000D9A8, symSize: 0x4BC }
  - { offsetInCU: 0x11F6E, offset: 0x11F6E, size: 0x8, addend: 0x0, symName: __ZNSt3__110unique_ptrINS_11__tree_nodeI3segPvEENS_22__tree_node_destructorINS_9allocatorIS4_EEEEE7releaseB8ue170006Ev, symObjAddr: 0xC370, symBinAddr: 0x10000DE64, symSize: 0xC0 }
  - { offsetInCU: 0x11FCD, offset: 0x11FCD, size: 0x8, addend: 0x0, symName: __ZNSt3__110unique_ptrINS_11__tree_nodeI3segPvEENS_22__tree_node_destructorINS_9allocatorIS4_EEEEE5resetB8ue170006EPS4_, symObjAddr: 0xEFFC, symBinAddr: 0x100010AF0, symSize: 0x104 }
  - { offsetInCU: 0x12064, offset: 0x12064, size: 0x8, addend: 0x0, symName: __ZNSt3__110unique_ptrINS_11__tree_nodeI3segPvEENS_22__tree_node_destructorINS_9allocatorIS4_EEEEED1B8ue170006Ev, symObjAddr: 0xC430, symBinAddr: 0x10000DF24, symSize: 0x5C }
  - { offsetInCU: 0x1217D, offset: 0x1217D, size: 0x8, addend: 0x0, symName: __ZNSt3__110unique_ptrINS_11__tree_nodeI3segPvEENS_22__tree_node_destructorINS_9allocatorIS4_EEEEEC1B8ue170006ILb1EvEEPS4_NS_16__dependent_typeINS_27__unique_ptr_deleter_sfinaeIS8_EEXT_EE20__good_rval_ref_typeE, symObjAddr: 0xC48C, symBinAddr: 0x10000DF80, symSize: 0x20C }
  - { offsetInCU: 0x12233, offset: 0x12233, size: 0x8, addend: 0x0, symName: __ZNSt3__116allocator_traitsINS_9allocatorINS_11__tree_nodeI3segPvEEEEE9constructB8ue170006IS3_JididEvEEvRS6_PT_DpOT0_, symObjAddr: 0xC698, symBinAddr: 0x10000E18C, symSize: 0x4 }
  - { offsetInCU: 0x122A4, offset: 0x122A4, size: 0x8, addend: 0x0, symName: __ZNSt3__116allocator_traitsINS_9allocatorINS_11__tree_nodeI3segPvEEEEE9constructB8ue170006IS3_JididEvEEvRS6_PT_DpOT0_, symObjAddr: 0xC698, symBinAddr: 0x10000E18C, symSize: 0x4 }
  - { offsetInCU: 0x122FE, offset: 0x122FE, size: 0x8, addend: 0x0, symName: __ZNSt3__117__compressed_pairIPNS_11__tree_nodeI3segPvEENS_22__tree_node_destructorINS_9allocatorIS4_EEEEE6secondB8ue170006Ev, symObjAddr: 0xCAA4, symBinAddr: 0x10000E598, symSize: 0xB0 }
  - { offsetInCU: 0x123B4, offset: 0x123B4, size: 0x8, addend: 0x0, symName: __ZNSt3__16__treeI3segNS_4lessIS1_EENS_9allocatorIS1_EEE10value_compB8ue170006Ev, symObjAddr: 0xCB54, symBinAddr: 0x10000E648, symSize: 0x70 }
  - { offsetInCU: 0x123E9, offset: 0x123E9, size: 0x8, addend: 0x0, symName: __ZNSt3__16__treeI3segNS_4lessIS1_EENS_9allocatorIS1_EEE4sizeB8ue170006Ev, symObjAddr: 0xDF1C, symBinAddr: 0x10000FA10, symSize: 0x70 }
  - { offsetInCU: 0x1241E, offset: 0x1241E, size: 0x8, addend: 0x0, symName: __ZNSt3__117__compressed_pairIPNS_11__tree_nodeI3segPvEENS_22__tree_node_destructorINS_9allocatorIS4_EEEEE5firstB8ue170006Ev, symObjAddr: 0xEF30, symBinAddr: 0x100010A24, symSize: 0xCC }
  - { offsetInCU: 0x124DF, offset: 0x124DF, size: 0x8, addend: 0x0, symName: __ZNSt3__117__compressed_pairIPNS_11__tree_nodeI3segPvEENS_22__tree_node_destructorINS_9allocatorIS4_EEEEEC2B8ue170006IRS5_S9_EEOT_OT0_, symObjAddr: 0xC69C, symBinAddr: 0x10000E190, symSize: 0x104 }
  - { offsetInCU: 0x12578, offset: 0x12578, size: 0x8, addend: 0x0, symName: __ZNSt3__19allocatorINS_11__tree_nodeI3segPvEEE9constructB8ue170006IS2_JididEEEvPT_DpOT0_, symObjAddr: 0xC7A0, symBinAddr: 0x10000E294, symSize: 0x304 }
  - { offsetInCU: 0x126E3, offset: 0x126E3, size: 0x8, addend: 0x0, symName: __ZNSt3__117__compressed_pairImNS_4lessI3segEEE6secondB8ue170006Ev, symObjAddr: 0xCBC4, symBinAddr: 0x10000E6B8, symSize: 0xD4 }
  - { offsetInCU: 0x12774, offset: 0x12774, size: 0x8, addend: 0x0, symName: __ZNSt3__117__compressed_pairImNS_4lessI3segEEE5firstB8ue170006Ev, symObjAddr: 0xEE64, symBinAddr: 0x100010958, symSize: 0xCC }
  - { offsetInCU: 0x127B8, offset: 0x127B8, size: 0x8, addend: 0x0, symName: __ZNKSt3__116__tree_node_baseIPvE15__parent_unsafeB8ue170006Ev, symObjAddr: 0xDF8C, symBinAddr: 0x10000FA80, symSize: 0x9C }
  - { offsetInCU: 0x12828, offset: 0x12828, size: 0x8, addend: 0x0, symName: __ZNSt3__122__tree_node_destructorINS_9allocatorINS_11__tree_nodeI3segPvEEEEEclB8ue170006EPS5_, symObjAddr: 0xF100, symBinAddr: 0x100010BF4, symSize: 0x1C8 }
  - { offsetInCU: 0x1295C, offset: 0x1295C, size: 0x8, addend: 0x0, symName: __ZNSt3__16__treeI3segNS_4lessIS1_EENS_9allocatorIS1_EEE13__lower_boundIS1_EENS_15__tree_iteratorIS1_PNS_11__tree_nodeIS1_PvEElEERKT_SC_PNS_15__tree_end_nodeIPNS_16__tree_node_baseISA_EEEE, symObjAddr: 0xF4A0, symBinAddr: 0x100010F94, symSize: 0x24C }
  - { offsetInCU: 0x129ED, offset: 0x129ED, size: 0x8, addend: 0x0, symName: __ZNSt3__16__treeI3segNS_4lessIS1_EENS_9allocatorIS1_EEE21__remove_node_pointerEPNS_11__tree_nodeIS1_PvEE, symObjAddr: 0xF8C8, symBinAddr: 0x1000113BC, symSize: 0x348 }
  - { offsetInCU: 0x12AF1, offset: 0x12AF1, size: 0x8, addend: 0x0, symName: __ZNSt3__115__tree_iteratorI3segPNS_11__tree_nodeIS1_PvEElEppB8ue170006Ev, symObjAddr: 0xFC10, symBinAddr: 0x100011704, symSize: 0xD8 }
  - { offsetInCU: 0x12B25, offset: 0x12B25, size: 0x8, addend: 0x0, symName: __ZNSt3__16__treeI3segNS_4lessIS1_EENS_9allocatorIS1_EEE21__emplace_unique_implIJRiS8_S8_S8_EEENS_4pairINS_15__tree_iteratorIS1_PNS_11__tree_nodeIS1_PvEElEEbEEDpOT_, symObjAddr: 0x14404, symBinAddr: 0x100015EF8, symSize: 0x3A8 }
  - { offsetInCU: 0x12D4F, offset: 0x12D4F, size: 0x8, addend: 0x0, symName: __ZNSt3__16__treeI3segNS_4lessIS1_EENS_9allocatorIS1_EEE16__construct_nodeIJRiS8_S8_S8_EEENS_10unique_ptrINS_11__tree_nodeIS1_PvEENS_22__tree_node_destructorINS4_ISC_EEEEEEDpOT_, symObjAddr: 0x147AC, symBinAddr: 0x1000162A0, symSize: 0x35C }
  - { offsetInCU: 0x12F67, offset: 0x12F67, size: 0x8, addend: 0x0, symName: __ZNSt3__116allocator_traitsINS_9allocatorINS_11__tree_nodeI3segPvEEEEE9constructB8ue170006IS3_JRiS9_S9_S9_EvEEvRS6_PT_DpOT0_, symObjAddr: 0x14B08, symBinAddr: 0x1000165FC, symSize: 0x4 }
  - { offsetInCU: 0x12FD8, offset: 0x12FD8, size: 0x8, addend: 0x0, symName: __ZNSt3__116allocator_traitsINS_9allocatorINS_11__tree_nodeI3segPvEEEEE9constructB8ue170006IS3_JRiS9_S9_S9_EvEEvRS6_PT_DpOT0_, symObjAddr: 0x14B08, symBinAddr: 0x1000165FC, symSize: 0x4 }
  - { offsetInCU: 0x13032, offset: 0x13032, size: 0x8, addend: 0x0, symName: __ZNSt3__19allocatorINS_11__tree_nodeI3segPvEEE9constructB8ue170006IS2_JRiS7_S7_S7_EEEvPT_DpOT0_, symObjAddr: 0x14B0C, symBinAddr: 0x100016600, symSize: 0x258 }
  - { offsetInCU: 0x1313B, offset: 0x1313B, size: 0x8, addend: 0x0, symName: __ZNSt3__16__treeI3segNS_4lessIS1_EENS_9allocatorIS1_EEE13__upper_boundIS1_EENS_15__tree_iteratorIS1_PNS_11__tree_nodeIS1_PvEElEERKT_SC_PNS_15__tree_end_nodeIPNS_16__tree_node_baseISA_EEEE, symObjAddr: 0x14DD0, symBinAddr: 0x1000168C4, symSize: 0x24C }
...
