---
triple:          'arm64-apple-darwin'
binary-path:     '/Users/eric/Workspace/compprog/codeforces/practice/H_Bro_Thinks_He_s_Him.bin'
relocations:
  - { offsetInCU: 0x3B, offset: 0x3B, size: 0x8, addend: 0x0, symName: _.str, symObjAddr: 0x11760, symBinAddr: 0x100015C40, symSize: 0x0 }
  - { offsetInCU: 0x6B, offset: 0x6B, size: 0x8, addend: 0x0, symName: _.str.1, symObjAddr: 0x11780, symBinAddr: 0x100015C60, symSize: 0x0 }
  - { offsetInCU: 0x7C, offset: 0x7C, size: 0x8, addend: 0x0, symName: _.str.2, symObjAddr: 0x117A0, symBinAddr: 0x100015C80, symSize: 0x0 }
  - { offsetInCU: 0x8D, offset: 0x8D, size: 0x8, addend: 0x0, symName: _.str.3, symObjAddr: 0x10440, symBinAddr: 0x1000148E0, symSize: 0x0 }
  - { offsetInCU: 0xAA, offset: 0xAA, size: 0x8, addend: 0x0, symName: _.str.4, symObjAddr: 0x117C0, symBinAddr: 0x100015CA0, symSize: 0x0 }
  - { offsetInCU: 0xBC, offset: 0xBC, size: 0x8, addend: 0x0, symName: _.str.15, symObjAddr: 0x117E0, symBinAddr: 0x100015CC0, symSize: 0x0 }
  - { offsetInCU: 0xDA, offset: 0xDA, size: 0x8, addend: 0x0, symName: _.str.27, symObjAddr: 0x11800, symBinAddr: 0x100015CE0, symSize: 0x0 }
  - { offsetInCU: 0x497C, offset: 0x497C, size: 0x8, addend: 0x0, symName: __ZNSt3__124__put_character_sequenceB8ue170006IcNS_11char_traitsIcEEEERNS_13basic_ostreamIT_T0_EES7_PKS4_m, symObjAddr: 0x7F9C, symBinAddr: 0x10000C114, symSize: 0x910 }
  - { offsetInCU: 0x7AAA, offset: 0x7AAA, size: 0x8, addend: 0x0, symName: __ZNSt3__1lsB8ue170006IcNS_11char_traitsIcEENS_9allocatorIcEEEERNS_13basic_ostreamIT_T0_EES9_RKNS_12basic_stringIS6_S7_T1_EE, symObjAddr: 0xB8C, symBinAddr: 0x100004D04, symSize: 0x48 }
  - { offsetInCU: 0x7B64, offset: 0x7B64, size: 0x8, addend: 0x0, symName: __ZNSt3__1neB8ue170006ERKNS_14__bit_iteratorINS_6vectorIbNS_9allocatorIbEEEELb0ELm0EEES7_, symObjAddr: 0x1104, symBinAddr: 0x10000527C, symSize: 0xC4 }
  - { offsetInCU: 0x7BE4, offset: 0x7BE4, size: 0x8, addend: 0x0, symName: __ZNSt3__1rsB8ue170006IcNS_11char_traitsIcEENS_9allocatorIcEEEERNS_13basic_istreamIT_T0_EES9_RNS_12basic_stringIS6_S7_T1_EE, symObjAddr: 0x4CE4, symBinAddr: 0x100008E5C, symSize: 0xE9C }
  - { offsetInCU: 0x83B1, offset: 0x83B1, size: 0x8, addend: 0x0, symName: __ZNSt3__19use_facetB8ue170006INS_5ctypeIcEEEERKT_RKNS_6localeE, symObjAddr: 0xA170, symBinAddr: 0x10000E2E8, symSize: 0x100 }
  - { offsetInCU: 0x8820, offset: 0x8820, size: 0x8, addend: 0x0, symName: __ZNSt3__116__pad_and_outputB8ue170006IcNS_11char_traitsIcEEEENS_19ostreambuf_iteratorIT_T0_EES6_PKS4_S8_S8_RNS_8ios_baseES4_, symObjAddr: 0x88AC, symBinAddr: 0x10000CA24, symSize: 0x800 }
  - { offsetInCU: 0x8A7F, offset: 0x8A7F, size: 0x8, addend: 0x0, symName: __ZNSt3__120__throw_length_errorB8ue170006EPKc, symObjAddr: 0x98DC, symBinAddr: 0x10000DA54, symSize: 0x78 }
  - { offsetInCU: 0x8E5D, offset: 0x8E5D, size: 0x8, addend: 0x0, symName: __ZNSt3__119__allocate_at_leastB8ue170006INS_9allocatorI4mintILi998244353EEEEEENS_19__allocation_resultINS_16allocator_traitsIT_E7pointerEEERS7_m, symObjAddr: 0xD7C8, symBinAddr: 0x100011940, symSize: 0x44 }
  - { offsetInCU: 0x9305, offset: 0x9305, size: 0x8, addend: 0x0, symName: __ZSt28__throw_bad_array_new_lengthB8ue170006v, symObjAddr: 0x9A00, symBinAddr: 0x10000DB78, symSize: 0x5C }
  - { offsetInCU: 0x9C50, offset: 0x9C50, size: 0x8, addend: 0x0, symName: __ZNSt3__16vectorI4mintILi998244353EENS_9allocatorIS2_EEE26__swap_out_circular_bufferERNS_14__split_bufferIS2_RS4_EE, symObjAddr: 0xC4B4, symBinAddr: 0x10001062C, symSize: 0x440 }
  - { offsetInCU: 0xC435, offset: 0xC435, size: 0x8, addend: 0x0, symName: __ZN14__DEBUG_UTIL__5printEPKc, symObjAddr: 0x0, symBinAddr: 0x100004178, symSize: 0x30 }
  - { offsetInCU: 0xC4C1, offset: 0xC4C1, size: 0x8, addend: 0x0, symName: __ZN14__DEBUG_UTIL__5printEb, symObjAddr: 0x30, symBinAddr: 0x1000041A8, symSize: 0x28 }
  - { offsetInCU: 0xC51C, offset: 0xC51C, size: 0x8, addend: 0x0, symName: __ZN14__DEBUG_UTIL__5printEc, symObjAddr: 0x58, symBinAddr: 0x1000041D0, symSize: 0x21C }
  - { offsetInCU: 0xC5F3, offset: 0xC5F3, size: 0x8, addend: 0x0, symName: __ZN14__DEBUG_UTIL__5printEs, symObjAddr: 0x274, symBinAddr: 0x1000043EC, symSize: 0xA8 }
  - { offsetInCU: 0xC61D, offset: 0xC61D, size: 0x8, addend: 0x0, symName: __ZN14__DEBUG_UTIL__5printEt, symObjAddr: 0x31C, symBinAddr: 0x100004494, symSize: 0xA8 }
  - { offsetInCU: 0xC647, offset: 0xC647, size: 0x8, addend: 0x0, symName: __ZN14__DEBUG_UTIL__5printEi, symObjAddr: 0x3C4, symBinAddr: 0x10000453C, symSize: 0xA8 }
  - { offsetInCU: 0xC671, offset: 0xC671, size: 0x8, addend: 0x0, symName: __ZN14__DEBUG_UTIL__5printEj, symObjAddr: 0x46C, symBinAddr: 0x1000045E4, symSize: 0xA8 }
  - { offsetInCU: 0xC69B, offset: 0xC69B, size: 0x8, addend: 0x0, symName: __ZN14__DEBUG_UTIL__5printEl, symObjAddr: 0x514, symBinAddr: 0x10000468C, symSize: 0xA8 }
  - { offsetInCU: 0xC6C5, offset: 0xC6C5, size: 0x8, addend: 0x0, symName: __ZN14__DEBUG_UTIL__5printEm, symObjAddr: 0x5BC, symBinAddr: 0x100004734, symSize: 0xA8 }
  - { offsetInCU: 0xC6EF, offset: 0xC6EF, size: 0x8, addend: 0x0, symName: __ZN14__DEBUG_UTIL__5printEx, symObjAddr: 0x664, symBinAddr: 0x1000047DC, symSize: 0xA8 }
  - { offsetInCU: 0xC719, offset: 0xC719, size: 0x8, addend: 0x0, symName: __ZN14__DEBUG_UTIL__5printEy, symObjAddr: 0x70C, symBinAddr: 0x100004884, symSize: 0xA8 }
  - { offsetInCU: 0xC743, offset: 0xC743, size: 0x8, addend: 0x0, symName: __ZN14__DEBUG_UTIL__5printEf, symObjAddr: 0x7B4, symBinAddr: 0x10000492C, symSize: 0xA0 }
  - { offsetInCU: 0xC76D, offset: 0xC76D, size: 0x8, addend: 0x0, symName: __ZN14__DEBUG_UTIL__5printEd, symObjAddr: 0x854, symBinAddr: 0x1000049CC, symSize: 0xA0 }
  - { offsetInCU: 0xC797, offset: 0xC797, size: 0x8, addend: 0x0, symName: __ZN14__DEBUG_UTIL__5printEe, symObjAddr: 0x8F4, symBinAddr: 0x100004A6C, symSize: 0xA0 }
  - { offsetInCU: 0xC7C1, offset: 0xC7C1, size: 0x8, addend: 0x0, symName: __ZN14__DEBUG_UTIL__5printENSt3__112basic_stringIcNS0_11char_traitsIcEENS0_9allocatorIcEEEE, symObjAddr: 0x994, symBinAddr: 0x100004B0C, symSize: 0x1F8 }
  - { offsetInCU: 0xC86C, offset: 0xC86C, size: 0x8, addend: 0x0, symName: __ZN14__DEBUG_UTIL__5printENSt3__16vectorIbNS0_9allocatorIbEEEE, symObjAddr: 0xBD4, symBinAddr: 0x100004D4C, symSize: 0x4E4 }
  - { offsetInCU: 0xCADE, offset: 0xCADE, size: 0x8, addend: 0x0, symName: __ZN14__DEBUG_UTIL__7printerEPKc, symObjAddr: 0x1518, symBinAddr: 0x100005690, symSize: 0x4 }
  - { offsetInCU: 0xCB03, offset: 0xCB03, size: 0x8, addend: 0x0, symName: __ZN14__DEBUG_UTIL__10printerArrEPKc, symObjAddr: 0x151C, symBinAddr: 0x100005694, symSize: 0x4 }
  - { offsetInCU: 0xCB5E, offset: 0xCB5E, size: 0x8, addend: 0x0, symName: __ZNKSt3__112basic_stringIcNS_11char_traitsIcEENS_9allocatorIcEEE13__get_pointerB8ue170006Ev, symObjAddr: 0xA40C, symBinAddr: 0x10000E584, symSize: 0x5C }
  - { offsetInCU: 0xCBC1, offset: 0xCBC1, size: 0x8, addend: 0x0, symName: __ZNKSt3__112basic_stringIcNS_11char_traitsIcEENS_9allocatorIcEEE4sizeB8ue170006Ev, symObjAddr: 0x5B80, symBinAddr: 0x100009CF8, symSize: 0x5C }
  - { offsetInCU: 0xCCE2, offset: 0xCCE2, size: 0x8, addend: 0x0, symName: __ZNKSt3__114__bit_iteratorINS_6vectorIbNS_9allocatorIbEEEELb0ELm0EEdeB8ue170006Ev, symObjAddr: 0x11C8, symBinAddr: 0x100005340, symSize: 0xCC }
  - { offsetInCU: 0xCD09, offset: 0xCD09, size: 0x8, addend: 0x0, symName: __ZNKSt3__115__bit_referenceINS_6vectorIbNS_9allocatorIbEEEELb1EEcvbB8ue170006Ev, symObjAddr: 0x1294, symBinAddr: 0x10000540C, symSize: 0xE4 }
  - { offsetInCU: 0xCD30, offset: 0xCD30, size: 0x8, addend: 0x0, symName: __ZNSt3__114__bit_iteratorINS_6vectorIbNS_9allocatorIbEEEELb0ELm0EEppB8ue170006Ev, symObjAddr: 0x1378, symBinAddr: 0x1000054F0, symSize: 0x1A0 }
  - { offsetInCU: 0xCD57, offset: 0xCD57, size: 0x8, addend: 0x0, symName: __ZNSt3__16vectorIbNS_9allocatorIbEEE5beginB8ue170006Ev, symObjAddr: 0x10B8, symBinAddr: 0x100005230, symSize: 0x4C }
  - { offsetInCU: 0xCD8C, offset: 0xCD8C, size: 0x8, addend: 0x0, symName: __ZNSt3__16vectorIbNS_9allocatorIbEEE11__make_iterB8ue170006Em, symObjAddr: 0xA548, symBinAddr: 0x10000E6C0, symSize: 0x168 }
  - { offsetInCU: 0xD05F, offset: 0xD05F, size: 0x8, addend: 0x0, symName: __Z5solvev, symObjAddr: 0x1520, symBinAddr: 0x100005698, symSize: 0x37C4 }
  - { offsetInCU: 0xE8B6, offset: 0xE8B6, size: 0x8, addend: 0x0, symName: __ZNSt3__112basic_stringIcNS_11char_traitsIcEENS_9allocatorIcEEEC2B8ue170006Ev, symObjAddr: 0x7C64, symBinAddr: 0x10000BDDC, symSize: 0x224 }
  - { offsetInCU: 0xE926, offset: 0xE926, size: 0x8, addend: 0x0, symName: __ZN3BITI4mintILi998244353EEEC2Ei, symObjAddr: 0xB564, symBinAddr: 0x10000F6DC, symSize: 0x114 }
  - { offsetInCU: 0xE9B0, offset: 0xE9B0, size: 0x8, addend: 0x0, symName: __ZNSt3__112basic_stringIcNS_11char_traitsIcEENS_9allocatorIcEEEixB8ue170006Em, symObjAddr: 0x5BDC, symBinAddr: 0x100009D54, symSize: 0xBC }
  - { offsetInCU: 0xE9F4, offset: 0xE9F4, size: 0x8, addend: 0x0, symName: __ZNK4mintILi998244353EEmlERKS0_, symObjAddr: 0x5F78, symBinAddr: 0x10000A0F0, symSize: 0x110 }
  - { offsetInCU: 0xEA5D, offset: 0xEA5D, size: 0x8, addend: 0x0, symName: __ZN3BITI4mintILi998244353EEE3incEiS1_, symObjAddr: 0x5C98, symBinAddr: 0x100009E10, symSize: 0x2E0 }
  - { offsetInCU: 0xEADE, offset: 0xEADE, size: 0x8, addend: 0x0, symName: __ZN4mintILi998244353EEpLERKS0_, symObjAddr: 0x6370, symBinAddr: 0x10000A4E8, symSize: 0x134 }
  - { offsetInCU: 0xEB14, offset: 0xEB14, size: 0x8, addend: 0x0, symName: __ZN3BITI4mintILi998244353EEE5queryEii, symObjAddr: 0x6088, symBinAddr: 0x10000A200, symSize: 0x1E0 }
  - { offsetInCU: 0xEB9F, offset: 0xEB9F, size: 0x8, addend: 0x0, symName: __ZNK4mintILi998244353EEplERKS0_, symObjAddr: 0x6268, symBinAddr: 0x10000A3E0, symSize: 0x108 }
  - { offsetInCU: 0xEC08, offset: 0xEC08, size: 0x8, addend: 0x0, symName: __ZN4mintILi998244353EEmIERKS0_, symObjAddr: 0x64A4, symBinAddr: 0x10000A61C, symSize: 0x160 }
  - { offsetInCU: 0xEC3E, offset: 0xEC3E, size: 0x8, addend: 0x0, symName: __ZNK4mintILi998244353EEmiERKS0_, symObjAddr: 0x6604, symBinAddr: 0x10000A77C, symSize: 0x108 }
  - { offsetInCU: 0xECA6, offset: 0xECA6, size: 0x8, addend: 0x0, symName: __ZlsRNSt3__113basic_ostreamIcNS_11char_traitsIcEEEERK4mintILi998244353EE, symObjAddr: 0x670C, symBinAddr: 0x10000A884, symSize: 0xCC }
  - { offsetInCU: 0xECE3, offset: 0xECE3, size: 0x8, addend: 0x0, symName: __ZNSt3__16vectorI4mintILi998244353EENS_9allocatorIS2_EEE16__destroy_vectorclB8ue170006Ev, symObjAddr: 0x7078, symBinAddr: 0x10000B1F0, symSize: 0x240 }
  - { offsetInCU: 0xEE11, offset: 0xEE11, size: 0x8, addend: 0x0, symName: __ZN3BITI4mintILi998244353EEED1Ev, symObjAddr: 0x67D8, symBinAddr: 0x10000A950, symSize: 0x1C0 }
  - { offsetInCU: 0xEF97, offset: 0xEF97, size: 0x8, addend: 0x0, symName: __ZNSt3__112basic_stringIcNS_11char_traitsIcEENS_9allocatorIcEEE5clearB8ue170006Ev, symObjAddr: 0xA6B0, symBinAddr: 0x10000E828, symSize: 0x124 }
  - { offsetInCU: 0xF05C, offset: 0xF05C, size: 0x8, addend: 0x0, symName: __ZNKSt3__112basic_stringIcNS_11char_traitsIcEENS_9allocatorIcEEE8max_sizeB8ue170006Ev, symObjAddr: 0x9590, symBinAddr: 0x10000D708, symSize: 0x74 }
  - { offsetInCU: 0xF0AE, offset: 0xF0AE, size: 0x8, addend: 0x0, symName: __ZNKSt3__18ios_base5rdbufB8ue170006Ev, symObjAddr: 0x9D50, symBinAddr: 0x10000DEC8, symSize: 0xE0 }
  - { offsetInCU: 0xF0D5, offset: 0xF0D5, size: 0x8, addend: 0x0, symName: __ZNSt3__115basic_streambufIcNS_11char_traitsIcEEE5sgetcB8ue170006Ev, symObjAddr: 0xA7D4, symBinAddr: 0x10000E94C, symSize: 0x308 }
  - { offsetInCU: 0xF13B, offset: 0xF13B, size: 0x8, addend: 0x0, symName: __ZNKSt3__15ctypeIcE2isB8ue170006Ejc, symObjAddr: 0xAADC, symBinAddr: 0x10000EC54, symSize: 0x1C8 }
  - { offsetInCU: 0xF182, offset: 0xF182, size: 0x8, addend: 0x0, symName: __ZNSt3__115basic_streambufIcNS_11char_traitsIcEEE6sbumpcB8ue170006Ev, symObjAddr: 0xACA4, symBinAddr: 0x10000EE1C, symSize: 0x370 }
  - { offsetInCU: 0xF1B5, offset: 0xF1B5, size: 0x8, addend: 0x0, symName: __ZNSt3__18ios_base5widthB8ue170006El, symObjAddr: 0x93F0, symBinAddr: 0x10000D568, symSize: 0x1A0 }
  - { offsetInCU: 0xF1FE, offset: 0xF1FE, size: 0x8, addend: 0x0, symName: __ZNSt3__19basic_iosIcNS_11char_traitsIcEEE8setstateB8ue170006Ej, symObjAddr: 0x92F4, symBinAddr: 0x10000D46C, symSize: 0xFC }
  - { offsetInCU: 0xF243, offset: 0xF243, size: 0x8, addend: 0x0, symName: __ZNSt3__18ios_base18__setstate_nothrowB8ue170006Ej, symObjAddr: 0xB014, symBinAddr: 0x10000F18C, symSize: 0x234 }
  - { offsetInCU: 0xF27A, offset: 0xF27A, size: 0x8, addend: 0x0, symName: __ZNKSt3__19basic_iosIcNS_11char_traitsIcEEE10exceptionsB8ue170006Ev, symObjAddr: 0xB248, symBinAddr: 0x10000F3C0, symSize: 0x1F4 }
  - { offsetInCU: 0xF2B8, offset: 0xF2B8, size: 0x8, addend: 0x0, symName: __ZNKSt3__112basic_stringIcNS_11char_traitsIcEENS_9allocatorIcEEE9__is_longB8ue170006Ev, symObjAddr: 0x79A8, symBinAddr: 0x10000BB20, symSize: 0x9C }
  - { offsetInCU: 0xF2EC, offset: 0xF2EC, size: 0x8, addend: 0x0, symName: __ZNKSt3__112basic_stringIcNS_11char_traitsIcEENS_9allocatorIcEEE15__get_long_sizeB8ue170006Ev, symObjAddr: 0xB43C, symBinAddr: 0x10000F5B4, symSize: 0x8C }
  - { offsetInCU: 0xF320, offset: 0xF320, size: 0x8, addend: 0x0, symName: __ZNKSt3__112basic_stringIcNS_11char_traitsIcEENS_9allocatorIcEEE16__get_short_sizeB8ue170006Ev, symObjAddr: 0xB4C8, symBinAddr: 0x10000F640, symSize: 0x9C }
  - { offsetInCU: 0xF354, offset: 0xF354, size: 0x8, addend: 0x0, symName: __ZNSt3__112basic_stringIcNS_11char_traitsIcEENS_9allocatorIcEEE13__get_pointerB8ue170006Ev, symObjAddr: 0x9A5C, symBinAddr: 0x10000DBD4, symSize: 0x5C }
  - { offsetInCU: 0xF3DB, offset: 0xF3DB, size: 0x8, addend: 0x0, symName: __ZN3BITI4mintILi998244353EEE5queryEi, symObjAddr: 0xE91C, symBinAddr: 0x100012A94, symSize: 0x2A4 }
  - { offsetInCU: 0xF488, offset: 0xF488, size: 0x8, addend: 0x0, symName: _main, symObjAddr: 0x6998, symBinAddr: 0x10000AB10, symSize: 0x394 }
  - { offsetInCU: 0xF4E6, offset: 0xF4E6, size: 0x8, addend: 0x0, symName: __ZNSt3__19basic_iosIcNS_11char_traitsIcEEE3tieB8ue170006EPNS_13basic_ostreamIcS2_EE, symObjAddr: 0x6D2C, symBinAddr: 0x10000AEA4, symSize: 0x1A0 }
  - { offsetInCU: 0xF52F, offset: 0xF52F, size: 0x8, addend: 0x0, symName: __ZNSt3__16vectorI4mintILi998244353EENS_9allocatorIS2_EEED1B8ue170006Ev, symObjAddr: 0x6ECC, symBinAddr: 0x10000B044, symSize: 0x1A0 }
  - { offsetInCU: 0xF60A, offset: 0xF60A, size: 0x8, addend: 0x0, symName: __ZNSt3__16vectorI4mintILi998244353EENS_9allocatorIS2_EEE22__base_destruct_at_endB8ue170006EPS2_, symObjAddr: 0x7624, symBinAddr: 0x10000B79C, symSize: 0xE8 }
  - { offsetInCU: 0xF665, offset: 0xF665, size: 0x8, addend: 0x0, symName: __ZNKSt3__16vectorI4mintILi998244353EENS_9allocatorIS2_EEE17__annotate_deleteB8ue170006Ev, symObjAddr: 0x72B8, symBinAddr: 0x10000B430, symSize: 0x270 }
  - { offsetInCU: 0xF75F, offset: 0xF75F, size: 0x8, addend: 0x0, symName: __ZNSt3__16vectorI4mintILi998244353EENS_9allocatorIS2_EEE7__allocB8ue170006Ev, symObjAddr: 0x7528, symBinAddr: 0x10000B6A0, symSize: 0x70 }
  - { offsetInCU: 0xF78F, offset: 0xF78F, size: 0x8, addend: 0x0, symName: __ZNKSt3__16vectorI4mintILi998244353EENS_9allocatorIS2_EEE8capacityB8ue170006Ev, symObjAddr: 0x7598, symBinAddr: 0x10000B710, symSize: 0x8C }
  - { offsetInCU: 0xF82C, offset: 0xF82C, size: 0x8, addend: 0x0, symName: __ZNKSt3__16vectorI4mintILi998244353EENS_9allocatorIS2_EEE4sizeB8ue170006Ev, symObjAddr: 0x770C, symBinAddr: 0x10000B884, symSize: 0x8C }
  - { offsetInCU: 0xF853, offset: 0xF853, size: 0x8, addend: 0x0, symName: __ZNSt3__117__compressed_pairIP4mintILi998244353EENS_9allocatorIS2_EEE6secondB8ue170006Ev, symObjAddr: 0x7798, symBinAddr: 0x10000B910, symSize: 0xD4 }
  - { offsetInCU: 0xF896, offset: 0xF896, size: 0x8, addend: 0x0, symName: __ZNKSt3__16vectorI4mintILi998244353EENS_9allocatorIS2_EEE9__end_capB8ue170006Ev, symObjAddr: 0x786C, symBinAddr: 0x10000B9E4, symSize: 0x70 }
  - { offsetInCU: 0xF8E1, offset: 0xF8E1, size: 0x8, addend: 0x0, symName: __ZNKSt3__117__compressed_pairIP4mintILi998244353EENS_9allocatorIS2_EEE5firstB8ue170006Ev, symObjAddr: 0x78DC, symBinAddr: 0x10000BA54, symSize: 0xCC }
  - { offsetInCU: 0xF941, offset: 0xF941, size: 0x8, addend: 0x0, symName: __ZNKSt3__117__compressed_pairINS_12basic_stringIcNS_11char_traitsIcEENS_9allocatorIcEEE5__repES5_E5firstB8ue170006Ev, symObjAddr: 0x7ACC, symBinAddr: 0x10000BC44, symSize: 0xCC }
  - { offsetInCU: 0xF985, offset: 0xF985, size: 0x8, addend: 0x0, symName: __ZNSt3__112basic_stringIcNS_11char_traitsIcEENS_9allocatorIcEEE18__get_long_pointerB8ue170006Ev, symObjAddr: 0x7A44, symBinAddr: 0x10000BBBC, symSize: 0x88 }
  - { offsetInCU: 0xF9B9, offset: 0xF9B9, size: 0x8, addend: 0x0, symName: __ZNSt3__117__compressed_pairINS_12basic_stringIcNS_11char_traitsIcEENS_9allocatorIcEEE5__repES5_E5firstB8ue170006Ev, symObjAddr: 0x7B98, symBinAddr: 0x10000BD10, symSize: 0xCC }
  - { offsetInCU: 0xFA4B, offset: 0xFA4B, size: 0x8, addend: 0x0, symName: __ZNSt3__117__compressed_pairINS_12basic_stringIcNS_11char_traitsIcEENS_9allocatorIcEEE5__repES5_EC1B8ue170006INS_18__default_init_tagESA_EEOT_OT0_, symObjAddr: 0x7E88, symBinAddr: 0x10000C000, symSize: 0x98 }
  - { offsetInCU: 0xFB4C, offset: 0xFB4C, size: 0x8, addend: 0x0, symName: __ZNSt3__122__compressed_pair_elemINS_9allocatorIcEELi1ELb1EEC2B8ue170006ENS_18__default_init_tagE, symObjAddr: 0x7F20, symBinAddr: 0x10000C098, symSize: 0x7C }
  - { offsetInCU: 0xFC77, offset: 0xFC77, size: 0x8, addend: 0x0, symName: __ZNSt3__119ostreambuf_iteratorIcNS_11char_traitsIcEEEC2B8ue170006ERNS_13basic_ostreamIcS2_EE, symObjAddr: 0x9AB8, symBinAddr: 0x10000DC30, symSize: 0x298 }
  - { offsetInCU: 0xFCD4, offset: 0xFCD4, size: 0x8, addend: 0x0, symName: __ZNKSt3__19basic_iosIcNS_11char_traitsIcEEE4fillB8ue170006Ev, symObjAddr: 0x90AC, symBinAddr: 0x10000D224, symSize: 0x248 }
  - { offsetInCU: 0xFDBD, offset: 0xFDBD, size: 0x8, addend: 0x0, symName: __ZNKSt3__19basic_iosIcNS_11char_traitsIcEEE5widenB8ue170006Ec, symObjAddr: 0x9E30, symBinAddr: 0x10000DFA8, symSize: 0x340 }
  - { offsetInCU: 0xFE40, offset: 0xFE40, size: 0x8, addend: 0x0, symName: __ZNSt3__18ios_base8setstateB8ue170006Ej, symObjAddr: 0xA270, symBinAddr: 0x10000E3E8, symSize: 0x19C }
  - { offsetInCU: 0xFE8F, offset: 0xFE8F, size: 0x8, addend: 0x0, symName: __ZNKSt3__117__compressed_pairINS_12basic_stringIcNS_11char_traitsIcEENS_9allocatorIcEEE5__repES5_E6secondB8ue170006Ev, symObjAddr: 0x9808, symBinAddr: 0x10000D980, symSize: 0xD4 }
  - { offsetInCU: 0xFED2, offset: 0xFED2, size: 0x8, addend: 0x0, symName: __ZNSt3__112basic_stringIcNS_11char_traitsIcEENS_9allocatorIcEEE16__set_short_sizeB8ue170006Em, symObjAddr: 0x9604, symBinAddr: 0x10000D77C, symSize: 0x11C }
  - { offsetInCU: 0xFF45, offset: 0xFF45, size: 0x8, addend: 0x0, symName: __ZNSt3__112basic_stringIcNS_11char_traitsIcEENS_9allocatorIcEEE19__get_short_pointerB8ue170006Ev, symObjAddr: 0x9720, symBinAddr: 0x10000D898, symSize: 0x58 }
  - { offsetInCU: 0xFF7A, offset: 0xFF7A, size: 0x8, addend: 0x0, symName: __ZNSt3__112basic_stringIcNS_11char_traitsIcEENS_9allocatorIcEEE15__set_long_sizeB8ue170006Em, symObjAddr: 0x9778, symBinAddr: 0x10000D8F0, symSize: 0x90 }
  - { offsetInCU: 0xFFDA, offset: 0xFFDA, size: 0x8, addend: 0x0, symName: __ZNSt12length_errorC1B8ue170006EPKc, symObjAddr: 0x9954, symBinAddr: 0x10000DACC, symSize: 0xAC }
  - { offsetInCU: 0x10086, offset: 0x10086, size: 0x8, addend: 0x0, symName: __ZNKSt3__112basic_stringIcNS_11char_traitsIcEENS_9allocatorIcEEE18__get_long_pointerB8ue170006Ev, symObjAddr: 0xA468, symBinAddr: 0x10000E5E0, symSize: 0x88 }
  - { offsetInCU: 0x100BA, offset: 0x100BA, size: 0x8, addend: 0x0, symName: __ZNKSt3__112basic_stringIcNS_11char_traitsIcEENS_9allocatorIcEEE19__get_short_pointerB8ue170006Ev, symObjAddr: 0xA4F0, symBinAddr: 0x10000E668, symSize: 0x58 }
  - { offsetInCU: 0x10125, offset: 0x10125, size: 0x8, addend: 0x0, symName: __ZNSt3__16vectorI4mintILi998244353EENS_9allocatorIS2_EEEC1B8ue170006Ev, symObjAddr: 0xB678, symBinAddr: 0x10000F7F0, symSize: 0x204 }
  - { offsetInCU: 0x101A4, offset: 0x101A4, size: 0x8, addend: 0x0, symName: __ZNSt3__16vectorI4mintILi998244353EENS_9allocatorIS2_EEE6resizeEm, symObjAddr: 0xB87C, symBinAddr: 0x10000F9F4, symSize: 0x100 }
  - { offsetInCU: 0x1028B, offset: 0x1028B, size: 0x8, addend: 0x0, symName: __ZNSt3__117__compressed_pairIP4mintILi998244353EENS_9allocatorIS2_EEEC2B8ue170006IDnNS_18__default_init_tagEEEOT_OT0_, symObjAddr: 0xB97C, symBinAddr: 0x10000FAF4, symSize: 0xB0 }
  - { offsetInCU: 0x1030A, offset: 0x1030A, size: 0x8, addend: 0x0, symName: __ZNSt3__16vectorI4mintILi998244353EENS_9allocatorIS2_EEE8__appendEm, symObjAddr: 0xBAA8, symBinAddr: 0x10000FC20, symSize: 0x28C }
  - { offsetInCU: 0x104B3, offset: 0x104B3, size: 0x8, addend: 0x0, symName: __ZNSt3__16vectorI4mintILi998244353EENS_9allocatorIS2_EEE17__destruct_at_endB8ue170006EPS2_, symObjAddr: 0xBD34, symBinAddr: 0x10000FEAC, symSize: 0x68 }
  - { offsetInCU: 0x1056D, offset: 0x1056D, size: 0x8, addend: 0x0, symName: __ZNSt3__122__compressed_pair_elemINS_9allocatorI4mintILi998244353EEEELi1ELb1EEC2B8ue170006ENS_18__default_init_tagE, symObjAddr: 0xBA2C, symBinAddr: 0x10000FBA4, symSize: 0x7C }
  - { offsetInCU: 0x10675, offset: 0x10675, size: 0x8, addend: 0x0, symName: __ZNSt3__16vectorI4mintILi998244353EENS_9allocatorIS2_EEE9__end_capB8ue170006Ev, symObjAddr: 0xBD9C, symBinAddr: 0x10000FF14, symSize: 0x70 }
  - { offsetInCU: 0x106A5, offset: 0x106A5, size: 0x8, addend: 0x0, symName: __ZNKSt3__16vectorI4mintILi998244353EENS_9allocatorIS2_EEE11__recommendB8ue170006Em, symObjAddr: 0xC12C, symBinAddr: 0x1000102A4, symSize: 0x9C }
  - { offsetInCU: 0x10751, offset: 0x10751, size: 0x8, addend: 0x0, symName: __ZNSt3__114__split_bufferI4mintILi998244353EERNS_9allocatorIS2_EEEC2EmmS5_, symObjAddr: 0xD46C, symBinAddr: 0x1000115E4, symSize: 0x35C }
  - { offsetInCU: 0x10858, offset: 0x10858, size: 0x8, addend: 0x0, symName: __ZNSt3__114__split_bufferI4mintILi998244353EERNS_9allocatorIS2_EEE18__construct_at_endEm, symObjAddr: 0xC1C8, symBinAddr: 0x100010340, symSize: 0x2EC }
  - { offsetInCU: 0x1099A, offset: 0x1099A, size: 0x8, addend: 0x0, symName: __ZNSt3__114__split_bufferI4mintILi998244353EERNS_9allocatorIS2_EEED2Ev, symObjAddr: 0xE4B4, symBinAddr: 0x10001262C, symSize: 0xF4 }
  - { offsetInCU: 0x10AA9, offset: 0x10AA9, size: 0x8, addend: 0x0, symName: __ZNSt3__16vectorI4mintILi998244353EENS_9allocatorIS2_EEE18__construct_at_endEm, symObjAddr: 0xBE0C, symBinAddr: 0x10000FF84, symSize: 0x320 }
  - { offsetInCU: 0x10C23, offset: 0x10C23, size: 0x8, addend: 0x0, symName: __ZNSt3__114__split_bufferI4mintILi998244353EERNS_9allocatorIS2_EEED1Ev, symObjAddr: 0xC8F4, symBinAddr: 0x100010A6C, symSize: 0x48 }
  - { offsetInCU: 0x10C53, offset: 0x10C53, size: 0x8, addend: 0x0, symName: __ZNKSt3__16vectorI4mintILi998244353EENS_9allocatorIS2_EEE17__annotate_shrinkB8ue170006Em, symObjAddr: 0xD088, symBinAddr: 0x100011200, symSize: 0x25C }
  - { offsetInCU: 0x10D49, offset: 0x10D49, size: 0x8, addend: 0x0, symName: __ZNSt3__117__compressed_pairIP4mintILi998244353EENS_9allocatorIS2_EEE5firstB8ue170006Ev, symObjAddr: 0xC93C, symBinAddr: 0x100010AB4, symSize: 0xCC }
  - { offsetInCU: 0x10E6F, offset: 0x10E6F, size: 0x8, addend: 0x0, symName: __ZNSt3__16vectorI4mintILi998244353EENS_9allocatorIS2_EEE21_ConstructTransactionC2B8ue170006ERS5_m, symObjAddr: 0xCA08, symBinAddr: 0x100010B80, symSize: 0x194 }
  - { offsetInCU: 0x10EC7, offset: 0x10EC7, size: 0x8, addend: 0x0, symName: __ZNSt3__16vectorI4mintILi998244353EENS_9allocatorIS2_EEE21_ConstructTransactionD2B8ue170006Ev, symObjAddr: 0xCE74, symBinAddr: 0x100010FEC, symSize: 0x214 }
  - { offsetInCU: 0x10F17, offset: 0x10F17, size: 0x8, addend: 0x0, symName: __ZNKSt3__16vectorI4mintILi998244353EENS_9allocatorIS2_EEE7__allocB8ue170006Ev, symObjAddr: 0xD328, symBinAddr: 0x1000114A0, symSize: 0x70 }
  - { offsetInCU: 0x10F4C, offset: 0x10F4C, size: 0x8, addend: 0x0, symName: __ZNKSt3__16vectorI4mintILi998244353EENS_9allocatorIS2_EEE20__throw_length_errorB8ue170006Ev, symObjAddr: 0xD2E4, symBinAddr: 0x10001145C, symSize: 0x44 }
  - { offsetInCU: 0x10FDC, offset: 0x10FDC, size: 0x8, addend: 0x0, symName: __ZNSt3__114__split_bufferI4mintILi998244353EERNS_9allocatorIS2_EEE21_ConstructTransactionC2B8ue170006EPPS2_m, symObjAddr: 0xDB44, symBinAddr: 0x100011CBC, symSize: 0x1B4 }
  - { offsetInCU: 0x11025, offset: 0x11025, size: 0x8, addend: 0x0, symName: __ZNSt3__114__split_bufferI4mintILi998244353EERNS_9allocatorIS2_EEE7__allocB8ue170006Ev, symObjAddr: 0xD80C, symBinAddr: 0x100011984, symSize: 0x70 }
  - { offsetInCU: 0x11055, offset: 0x11055, size: 0x8, addend: 0x0, symName: __ZNSt3__114__split_bufferI4mintILi998244353EERNS_9allocatorIS2_EEE21_ConstructTransactionD2B8ue170006Ev, symObjAddr: 0xDCF8, symBinAddr: 0x100011E70, symSize: 0xE8 }
  - { offsetInCU: 0x110D4, offset: 0x110D4, size: 0x8, addend: 0x0, symName: __ZNKSt3__111__move_loopINS_17_ClassicAlgPolicyEEclB8ue170006INS_16reverse_iteratorIP4mintILi998244353EEEES8_S8_EENS_4pairIT_T1_EESA_T0_SB_, symObjAddr: 0xE060, symBinAddr: 0x1000121D8, symSize: 0x394 }
  - { offsetInCU: 0x11245, offset: 0x11245, size: 0x8, addend: 0x0, symName: __ZNSt3__117__compressed_pairIP4mintILi998244353EERNS_9allocatorIS2_EEE5firstB8ue170006Ev, symObjAddr: 0xDA78, symBinAddr: 0x100011BF0, symSize: 0xCC }
  - { offsetInCU: 0x11289, offset: 0x11289, size: 0x8, addend: 0x0, symName: __ZNKSt3__16vectorI4mintILi998244353EENS_9allocatorIS2_EEE14__annotate_newB8ue170006Em, symObjAddr: 0xDDE0, symBinAddr: 0x100011F58, symSize: 0x280 }
  - { offsetInCU: 0x11395, offset: 0x11395, size: 0x8, addend: 0x0, symName: __ZNKSt3__16vectorI4mintILi998244353EENS_9allocatorIS2_EEE19__annotate_increaseB8ue170006Em, symObjAddr: 0xCB9C, symBinAddr: 0x100010D14, symSize: 0x2D8 }
  - { offsetInCU: 0x1149F, offset: 0x1149F, size: 0x8, addend: 0x0, symName: __ZNKSt3__117__compressed_pairIP4mintILi998244353EENS_9allocatorIS2_EEE6secondB8ue170006Ev, symObjAddr: 0xD398, symBinAddr: 0x100011510, symSize: 0xD4 }
  - { offsetInCU: 0x11540, offset: 0x11540, size: 0x8, addend: 0x0, symName: __ZNSt3__117__compressed_pairIP4mintILi998244353EERNS_9allocatorIS2_EEEC2B8ue170006IDnS6_EEOT_OT0_, symObjAddr: 0xD87C, symBinAddr: 0x1000119F4, symSize: 0xFC }
  - { offsetInCU: 0x115F1, offset: 0x115F1, size: 0x8, addend: 0x0, symName: __ZNSt3__117__compressed_pairIP4mintILi998244353EERNS_9allocatorIS2_EEE6secondB8ue170006Ev, symObjAddr: 0xD978, symBinAddr: 0x100011AF0, symSize: 0x100 }
  - { offsetInCU: 0x1176F, offset: 0x1176F, size: 0x8, addend: 0x0, symName: __ZNKSt3__116reverse_iteratorIP4mintILi998244353EEEdeB8ue170006Ev, symObjAddr: 0xE3F4, symBinAddr: 0x10001256C, symSize: 0xC0 }
  - { offsetInCU: 0x117BC, offset: 0x117BC, size: 0x8, addend: 0x0, symName: __ZNSt3__114__split_bufferI4mintILi998244353EERNS_9allocatorIS2_EEE5clearB8ue170006Ev, symObjAddr: 0xE5A8, symBinAddr: 0x100012720, symSize: 0xAC }
  - { offsetInCU: 0x11810, offset: 0x11810, size: 0x8, addend: 0x0, symName: __ZNKSt3__114__split_bufferI4mintILi998244353EERNS_9allocatorIS2_EEE8capacityB8ue170006Ev, symObjAddr: 0xE654, symBinAddr: 0x1000127CC, symSize: 0x8C }
  - { offsetInCU: 0x1186C, offset: 0x1186C, size: 0x8, addend: 0x0, symName: __ZNSt3__114__split_bufferI4mintILi998244353EERNS_9allocatorIS2_EEE17__destruct_at_endB8ue170006EPS2_NS_17integral_constantIbLb0EEE, symObjAddr: 0xE6E0, symBinAddr: 0x100012858, symSize: 0x100 }
  - { offsetInCU: 0x118C0, offset: 0x118C0, size: 0x8, addend: 0x0, symName: __ZNKSt3__114__split_bufferI4mintILi998244353EERNS_9allocatorIS2_EEE9__end_capB8ue170006Ev, symObjAddr: 0xE7E0, symBinAddr: 0x100012958, symSize: 0x70 }
  - { offsetInCU: 0x118F5, offset: 0x118F5, size: 0x8, addend: 0x0, symName: __ZNKSt3__117__compressed_pairIP4mintILi998244353EERNS_9allocatorIS2_EEE5firstB8ue170006Ev, symObjAddr: 0xE850, symBinAddr: 0x1000129C8, symSize: 0xCC }
...
