---
triple:          'arm64-apple-darwin'
binary-path:     a.out
relocations:
  - { offsetInCU: 0x3C, offset: 0x3C, size: 0x8, addend: 0x0, symName: _.str, symObjAddr: 0x21900, symBinAddr: 0x100020780, symSize: 0x0 }
  - { offsetInCU: 0x5742, offset: 0x5742, size: 0x8, addend: 0x0, symName: __ZNSt3__124__put_character_sequenceB8ue170006IcNS_11char_traitsIcEEEERNS_13basic_ostreamIT_T0_EES7_PKS4_m, symObjAddr: 0x15534, symBinAddr: 0x1000188F0, symSize: 0x103C }
  - { offsetInCU: 0x738D, offset: 0x738D, size: 0x8, addend: 0x0, symName: __ZNSt3__17reverseB8ue170006INS_11__wrap_iterIPxEEEEvT_S4_, symObjAddr: 0x1E48, symBinAddr: 0x100005204, symSize: 0x348 }
  - { offsetInCU: 0x73D4, offset: 0x73D4, size: 0x8, addend: 0x0, symName: __ZNSt3__1lsB8ue170006INS_11char_traitsIcEEEERNS_13basic_ostreamIcT_EES6_c, symObjAddr: 0x2A50, symBinAddr: 0x100005E0C, symSize: 0x2AC }
  - { offsetInCU: 0x741F, offset: 0x741F, size: 0x8, addend: 0x0, symName: __ZNSt3__13maxB8ue170006IxEERKT_S3_S3_, symObjAddr: 0x2CFC, symBinAddr: 0x1000060B8, symSize: 0x104 }
  - { offsetInCU: 0x7462, offset: 0x7462, size: 0x8, addend: 0x0, symName: __ZNSt3__13maxB8ue170006IxNS_6__lessIvvEEEERKT_S5_S5_T0_, symObjAddr: 0x35D8, symBinAddr: 0x100006994, symSize: 0x2C0 }
  - { offsetInCU: 0x7538, offset: 0x7538, size: 0x8, addend: 0x0, symName: __ZNSt3__122__make_exception_guardB8ue170006INS_6vectorIxNS_9allocatorIxEEE16__destroy_vectorEEENS_28__exception_guard_exceptionsIT_EES7_, symObjAddr: 0x3F28, symBinAddr: 0x1000072E4, symSize: 0x2BC }
  - { offsetInCU: 0x7571, offset: 0x7571, size: 0x8, addend: 0x0, symName: __ZNSt3__119__allocate_at_leastB8ue170006INS_9allocatorIxEEEENS_19__allocation_resultINS_16allocator_traitsIT_E7pointerEEERS5_m, symObjAddr: 0x5D1C, symBinAddr: 0x1000090D8, symSize: 0x28C }
  - { offsetInCU: 0x75B6, offset: 0x75B6, size: 0x8, addend: 0x0, symName: __ZNSt3__13minB8ue170006ImEERKT_S3_S3_, symObjAddr: 0x64EC, symBinAddr: 0x1000098A8, symSize: 0x104 }
  - { offsetInCU: 0x77E3, offset: 0x77E3, size: 0x8, addend: 0x0, symName: __ZNSt3__13minB8ue170006ImNS_6__lessIvvEEEERKT_S5_S5_T0_, symObjAddr: 0x6718, symBinAddr: 0x100009AD4, symSize: 0x2C0 }
  - { offsetInCU: 0x7843, offset: 0x7843, size: 0x8, addend: 0x0, symName: __ZNSt3__120__throw_length_errorB8ue170006EPKc, symObjAddr: 0x6C94, symBinAddr: 0x10000A050, symSize: 0xB4 }
  - { offsetInCU: 0x786D, offset: 0x786D, size: 0x8, addend: 0x0, symName: __ZNSt3__117__libcpp_allocateB8ue170006Emm, symObjAddr: 0x7038, symBinAddr: 0x10000A3F4, symSize: 0x60 }
  - { offsetInCU: 0x78C7, offset: 0x78C7, size: 0x8, addend: 0x0, symName: __ZNSt3__124__is_overaligned_for_newB8ue170006Em, symObjAddr: 0x7098, symBinAddr: 0x10000A454, symSize: 0x20 }
  - { offsetInCU: 0x78F5, offset: 0x78F5, size: 0x8, addend: 0x0, symName: __ZNSt3__121__libcpp_operator_newB8ue170006IJmSt11align_val_tEEEPvDpT_, symObjAddr: 0x70B8, symBinAddr: 0x10000A474, symSize: 0x6C }
  - { offsetInCU: 0x7942, offset: 0x7942, size: 0x8, addend: 0x0, symName: __ZNSt3__121__libcpp_operator_newB8ue170006IJmEEEPvDpT_, symObjAddr: 0x7124, symBinAddr: 0x10000A4E0, symSize: 0x24 }
  - { offsetInCU: 0x797B, offset: 0x797B, size: 0x8, addend: 0x0, symName: __ZNSt3__112__to_addressB8ue170006IxEEPT_S2_, symObjAddr: 0x7724, symBinAddr: 0x10000AAE0, symSize: 0x14 }
  - { offsetInCU: 0x79B0, offset: 0x79B0, size: 0x8, addend: 0x0, symName: __ZNSt3__119__libcpp_deallocateB8ue170006EPvmm, symObjAddr: 0x9914, symBinAddr: 0x10000CCD0, symSize: 0x60 }
  - { offsetInCU: 0x7A15, offset: 0x7A15, size: 0x8, addend: 0x0, symName: __ZNSt3__127__do_deallocate_handle_sizeB8ue170006IJSt11align_val_tEEEvPvmDpT_, symObjAddr: 0x9974, symBinAddr: 0x10000CD30, symSize: 0x30 }
  - { offsetInCU: 0x7A68, offset: 0x7A68, size: 0x8, addend: 0x0, symName: __ZNSt3__127__do_deallocate_handle_sizeB8ue170006IJEEEvPvmDpT_, symObjAddr: 0x99A4, symBinAddr: 0x10000CD60, symSize: 0x28 }
  - { offsetInCU: 0x7AA6, offset: 0x7AA6, size: 0x8, addend: 0x0, symName: __ZNSt3__124__libcpp_operator_deleteB8ue170006IJPvSt11align_val_tEEEvDpT_, symObjAddr: 0x99CC, symBinAddr: 0x10000CD88, symSize: 0x2C }
  - { offsetInCU: 0x7AEF, offset: 0x7AEF, size: 0x8, addend: 0x0, symName: __ZNSt3__124__libcpp_operator_deleteB8ue170006IJPvEEEvDpT_, symObjAddr: 0x99F8, symBinAddr: 0x10000CDB4, symSize: 0x24 }
  - { offsetInCU: 0x7B24, offset: 0x7B24, size: 0x8, addend: 0x0, symName: __ZNSt3__19__reverseB8ue170006INS_17_ClassicAlgPolicyENS_11__wrap_iterIPxEES4_EEvT0_T1_, symObjAddr: 0xA03C, symBinAddr: 0x10000D3F8, symSize: 0x348 }
  - { offsetInCU: 0x7B7D, offset: 0x7B7D, size: 0x8, addend: 0x0, symName: __ZNSt3__114__reverse_implB8ue170006INS_17_ClassicAlgPolicyENS_11__wrap_iterIPxEEEEvT0_S5_NS_26random_access_iterator_tagE, symObjAddr: 0xA384, symBinAddr: 0x10000D740, symSize: 0x2F8 }
  - { offsetInCU: 0x7BD8, offset: 0x7BD8, size: 0x8, addend: 0x0, symName: __ZNSt3__1neB8ue170006IPxEEbRKNS_11__wrap_iterIT_EES6_, symObjAddr: 0xA67C, symBinAddr: 0x10000DA38, symSize: 0xC4 }
  - { offsetInCU: 0x7C1B, offset: 0x7C1B, size: 0x8, addend: 0x0, symName: __ZNSt3__1ltB8ue170006IPxEEbRKNS_11__wrap_iterIT_EES6_, symObjAddr: 0xA740, symBinAddr: 0x10000DAFC, symSize: 0x9C }
  - { offsetInCU: 0x7CA2, offset: 0x7CA2, size: 0x8, addend: 0x0, symName: __ZNSt3__1eqB8ue170006IPxEEbRKNS_11__wrap_iterIT_EES6_, symObjAddr: 0xADBC, symBinAddr: 0x10000E178, symSize: 0x9C }
  - { offsetInCU: 0x7CE5, offset: 0x7CE5, size: 0x8, addend: 0x0, symName: __ZNSt3__19iter_swapB8ue170006INS_11__wrap_iterIPxEES3_EEvT_T0_, symObjAddr: 0xAF04, symBinAddr: 0x10000E2C0, symSize: 0x308 }
  - { offsetInCU: 0x7D35, offset: 0x7D35, size: 0x8, addend: 0x0, symName: __ZNSt3__14swapB8ue170006IxEENS_9enable_ifIXaasr21is_move_constructibleIT_EE5valuesr18is_move_assignableIS2_EE5valueEvE4typeERS2_S5_, symObjAddr: 0xB20C, symBinAddr: 0x10000E5C8, symSize: 0x1C0 }
  - { offsetInCU: 0x7D86, offset: 0x7D86, size: 0x8, addend: 0x0, symName: __ZNSt3__122__make_exception_guardB8ue170006INS_6vectorINS1_IxNS_9allocatorIxEEEENS2_IS4_EEE16__destroy_vectorEEENS_28__exception_guard_exceptionsIT_EES9_, symObjAddr: 0xC818, symBinAddr: 0x10000FBD4, symSize: 0x2BC }
  - { offsetInCU: 0x7DBF, offset: 0x7DBF, size: 0x8, addend: 0x0, symName: __ZNSt3__119__allocate_at_leastB8ue170006INS_9allocatorINS_6vectorIxNS1_IxEEEEEEEENS_19__allocation_resultINS_16allocator_traitsIT_E7pointerEEERS8_m, symObjAddr: 0xE668, symBinAddr: 0x100011A24, symSize: 0x28C }
  - { offsetInCU: 0x7E04, offset: 0x7E04, size: 0x8, addend: 0x0, symName: __ZNSt3__112__to_addressB8ue170006INS_6vectorIxNS_9allocatorIxEEEEEEPT_S6_, symObjAddr: 0xF7D0, symBinAddr: 0x100012B8C, symSize: 0x14 }
  - { offsetInCU: 0x7E39, offset: 0x7E39, size: 0x8, addend: 0x0, symName: __ZNSt3__130__uninitialized_allocator_copyB8ue170006INS_9allocatorIxEEPxS3_S3_EET2_RT_T0_T1_S4_, symObjAddr: 0x11690, symBinAddr: 0x100014A4C, symSize: 0x334 }
  - { offsetInCU: 0x7EDF, offset: 0x7EDF, size: 0x8, addend: 0x0, symName: __ZNSt3__114__unwrap_rangeB8ue170006IPxS1_EENS_4pairIT0_S3_EET_S5_, symObjAddr: 0x119C4, symBinAddr: 0x100014D80, symSize: 0x350 }
  - { offsetInCU: 0x7F2D, offset: 0x7F2D, size: 0x8, addend: 0x0, symName: __ZNSt3__135__uninitialized_allocator_copy_implB8ue170006INS_9allocatorIxEExxxLPv0EEEPT2_RT_PT0_S9_S5_, symObjAddr: 0x11D14, symBinAddr: 0x1000150D0, symSize: 0x38 }
  - { offsetInCU: 0x7FAE, offset: 0x7FAE, size: 0x8, addend: 0x0, symName: __ZNSt3__113__unwrap_iterB8ue170006IPxNS_18__unwrap_iter_implIS1_Lb1EEELi0EEEDTclsrT0_8__unwrapclsr3stdE7declvalIT_EEEES5_, symObjAddr: 0x11D4C, symBinAddr: 0x100015108, symSize: 0x24 }
  - { offsetInCU: 0x7FF2, offset: 0x7FF2, size: 0x8, addend: 0x0, symName: __ZNSt3__113__rewrap_iterB8ue170006IPxS1_NS_18__unwrap_iter_implIS1_Lb1EEEEET_S4_T0_, symObjAddr: 0x11D70, symBinAddr: 0x10001512C, symSize: 0x48 }
  - { offsetInCU: 0x8047, offset: 0x8047, size: 0x8, addend: 0x0, symName: __ZNSt3__19make_pairB8ue170006IPxS1_EENS_4pairINS_18__unwrap_ref_decayIT_E4typeENS3_IT0_E4typeEEEOS4_OS7_, symObjAddr: 0x11DB8, symBinAddr: 0x100015174, symSize: 0x2A0 }
  - { offsetInCU: 0x819B, offset: 0x819B, size: 0x8, addend: 0x0, symName: __ZNSt3__14copyB8ue170006IPxS1_EET0_T_S3_S2_, symObjAddr: 0x122F0, symBinAddr: 0x1000156AC, symSize: 0x2B4 }
  - { offsetInCU: 0x81F8, offset: 0x81F8, size: 0x8, addend: 0x0, symName: __ZNSt3__16__copyB8ue170006INS_17_ClassicAlgPolicyEPxS2_S2_EENS_4pairIT0_T2_EES4_T1_S5_, symObjAddr: 0x125A4, symBinAddr: 0x100015960, symSize: 0x22C }
  - { offsetInCU: 0x8267, offset: 0x8267, size: 0x8, addend: 0x0, symName: __ZNSt3__123__dispatch_copy_or_moveB8ue170006INS_17_ClassicAlgPolicyENS_11__copy_loopIS1_EENS_14__copy_trivialEPxS5_S5_EENS_4pairIT2_T4_EES7_T3_S8_, symObjAddr: 0x127D0, symBinAddr: 0x100015B8C, symSize: 0x22C }
  - { offsetInCU: 0x82E8, offset: 0x82E8, size: 0x8, addend: 0x0, symName: __ZNSt3__121__unwrap_and_dispatchB8ue170006INS_10__overloadINS_11__copy_loopINS_17_ClassicAlgPolicyEEENS_14__copy_trivialEEEPxS7_S7_Li0EEENS_4pairIT0_T2_EES9_T1_SA_, symObjAddr: 0x129FC, symBinAddr: 0x100015DB8, symSize: 0x634 }
  - { offsetInCU: 0x83C7, offset: 0x83C7, size: 0x8, addend: 0x0, symName: __ZNSt3__114__rewrap_rangeB8ue170006IPxS1_EET_S2_T0_, symObjAddr: 0x1328C, symBinAddr: 0x100016648, symSize: 0x2C }
  - { offsetInCU: 0x8413, offset: 0x8413, size: 0x8, addend: 0x0, symName: __ZNSt3__119__copy_trivial_implB8ue170006IxxEENS_4pairIPT_PT0_EES3_S3_S5_, symObjAddr: 0x132B8, symBinAddr: 0x100016674, symSize: 0x480 }
  - { offsetInCU: 0x8482, offset: 0x8482, size: 0x8, addend: 0x0, symName: __ZNSt3__119__constexpr_memmoveB8ue170006IxxLi0EEEPT_S2_PT0_NS_15__element_countE, symObjAddr: 0x13738, symBinAddr: 0x100016AF4, symSize: 0x64 }
  - { offsetInCU: 0x84F0, offset: 0x84F0, size: 0x8, addend: 0x0, symName: __ZNSt3__19make_pairB8ue170006IRPxS1_EENS_4pairINS_18__unwrap_ref_decayIT_E4typeENS4_IT0_E4typeEEEOS5_OS8_, symObjAddr: 0x1379C, symBinAddr: 0x100016B58, symSize: 0x2A0 }
  - { offsetInCU: 0x8594, offset: 0x8594, size: 0x8, addend: 0x0, symName: __ZNSt3__116__pad_and_outputB8ue170006IcNS_11char_traitsIcEEEENS_19ostreambuf_iteratorIT_T0_EES6_PKS4_S8_S8_RNS_8ios_baseES4_, symObjAddr: 0x16674, symBinAddr: 0x100019A30, symSize: 0xB88 }
  - { offsetInCU: 0x8671, offset: 0x8671, size: 0x8, addend: 0x0, symName: __ZNSt3__112__to_addressB8ue170006IcEEPT_S2_, symObjAddr: 0x184C8, symBinAddr: 0x10001B884, symSize: 0x14 }
  - { offsetInCU: 0x86D9, offset: 0x86D9, size: 0x8, addend: 0x0, symName: __ZNSt3__19use_facetB8ue170006INS_5ctypeIcEEEERKT_RKNS_6localeE, symObjAddr: 0x198E4, symBinAddr: 0x10001CCA0, symSize: 0x188 }
  - { offsetInCU: 0x8FD4, offset: 0x8FD4, size: 0x8, addend: 0x0, symName: __ZSt28__throw_bad_array_new_lengthB8ue170006v, symObjAddr: 0x6FBC, symBinAddr: 0x10000A378, symSize: 0x7C }
  - { offsetInCU: 0xBBCE, offset: 0xBBCE, size: 0x8, addend: 0x0, symName: __Z5solvev, symObjAddr: 0x0, symBinAddr: 0x1000033BC, symSize: 0x1BFC }
  - { offsetInCU: 0xBCA9, offset: 0xBCA9, size: 0x8, addend: 0x0, symName: __ZNSt3__16vectorIxNS_9allocatorIxEEEC1Em, symObjAddr: 0x1BFC, symBinAddr: 0x100004FB8, symSize: 0x80 }
  - { offsetInCU: 0xBCE4, offset: 0xBCE4, size: 0x8, addend: 0x0, symName: __ZNSt3__16vectorIxNS_9allocatorIxEEEixB8ue170006Em, symObjAddr: 0x1C7C, symBinAddr: 0x100005038, symSize: 0x1CC }
  - { offsetInCU: 0xBD1B, offset: 0xBD1B, size: 0x8, addend: 0x0, symName: __ZNSt3__16vectorIxNS_9allocatorIxEEE5beginB8ue170006Ev, symObjAddr: 0x2190, symBinAddr: 0x10000554C, symSize: 0x2B0 }
  - { offsetInCU: 0xBD44, offset: 0xBD44, size: 0x8, addend: 0x0, symName: __ZNSt3__16vectorIxNS_9allocatorIxEEE3endB8ue170006Ev, symObjAddr: 0x2440, symBinAddr: 0x1000057FC, symSize: 0x2B4 }
  - { offsetInCU: 0xBD6D, offset: 0xBD6D, size: 0x8, addend: 0x0, symName: __ZNSt3__16vectorIxNS_9allocatorIxEEEC1EmRKx, symObjAddr: 0x26F4, symBinAddr: 0x100005AB0, symSize: 0x88 }
  - { offsetInCU: 0xBDB7, offset: 0xBDB7, size: 0x8, addend: 0x0, symName: __ZNSt3__16vectorINS0_IxNS_9allocatorIxEEEENS1_IS3_EEEC1EmRKS3_, symObjAddr: 0x277C, symBinAddr: 0x100005B38, symSize: 0x88 }
  - { offsetInCU: 0xBE01, offset: 0xBE01, size: 0x8, addend: 0x0, symName: __ZNSt3__16vectorIxNS_9allocatorIxEEED1B8ue170006Ev, symObjAddr: 0x2804, symBinAddr: 0x100005BC0, symSize: 0x78 }
  - { offsetInCU: 0xBE2B, offset: 0xBE2B, size: 0x8, addend: 0x0, symName: __ZNSt3__16vectorINS0_IxNS_9allocatorIxEEEENS1_IS3_EEEixB8ue170006Em, symObjAddr: 0x287C, symBinAddr: 0x100005C38, symSize: 0x1D4 }
  - { offsetInCU: 0xBE62, offset: 0xBE62, size: 0x8, addend: 0x0, symName: __ZNSt3__16vectorINS0_IxNS_9allocatorIxEEEENS1_IS3_EEED1B8ue170006Ev, symObjAddr: 0x2E00, symBinAddr: 0x1000061BC, symSize: 0x78 }
  - { offsetInCU: 0xBE8C, offset: 0xBE8C, size: 0x8, addend: 0x0, symName: _main, symObjAddr: 0x2E78, symBinAddr: 0x100006234, symSize: 0x568 }
  - { offsetInCU: 0xBEB9, offset: 0xBEB9, size: 0x8, addend: 0x0, symName: __ZNSt3__19basic_iosIcNS_11char_traitsIcEEE3tieB8ue170006EPNS_13basic_ostreamIcS2_EE, symObjAddr: 0x33E0, symBinAddr: 0x10000679C, symSize: 0x1F8 }
  - { offsetInCU: 0xBF09, offset: 0xBF09, size: 0x8, addend: 0x0, symName: __ZNKSt3__16__lessIvvEclB8ue170006IxxEEbRKT_RKT0_, symObjAddr: 0x3898, symBinAddr: 0x100006C54, symSize: 0xEC }
  - { offsetInCU: 0xBF5D, offset: 0xBF5D, size: 0x8, addend: 0x0, symName: __ZNSt3__16vectorIxNS_9allocatorIxEEEC2Em, symObjAddr: 0x3984, symBinAddr: 0x100006D40, symSize: 0x51C }
  - { offsetInCU: 0xBFBD, offset: 0xBFBD, size: 0x8, addend: 0x0, symName: __ZNSt3__117__compressed_pairIPxNS_9allocatorIxEEEC1B8ue170006IDnNS_18__default_init_tagEEEOT_OT0_, symObjAddr: 0x3EA0, symBinAddr: 0x10000725C, symSize: 0x88 }
  - { offsetInCU: 0xC015, offset: 0xC015, size: 0x8, addend: 0x0, symName: __ZNSt3__16vectorIxNS_9allocatorIxEEE16__destroy_vectorC1B8ue170006ERS3_, symObjAddr: 0x41E4, symBinAddr: 0x1000075A0, symSize: 0x80 }
  - { offsetInCU: 0xC04E, offset: 0xC04E, size: 0x8, addend: 0x0, symName: __ZNSt3__16vectorIxNS_9allocatorIxEEE11__vallocateB8ue170006Em, symObjAddr: 0x4264, symBinAddr: 0x100007620, symSize: 0x5E8 }
  - { offsetInCU: 0xC098, offset: 0xC098, size: 0x8, addend: 0x0, symName: __ZNSt3__16vectorIxNS_9allocatorIxEEE18__construct_at_endEm, symObjAddr: 0x484C, symBinAddr: 0x100007C08, symSize: 0x5A0 }
  - { offsetInCU: 0xC112, offset: 0xC112, size: 0x8, addend: 0x0, symName: __ZNSt3__128__exception_guard_exceptionsINS_6vectorIxNS_9allocatorIxEEE16__destroy_vectorEE10__completeB8ue170006Ev, symObjAddr: 0x4DEC, symBinAddr: 0x1000081A8, symSize: 0xD8 }
  - { offsetInCU: 0xC138, offset: 0xC138, size: 0x8, addend: 0x0, symName: __ZNSt3__128__exception_guard_exceptionsINS_6vectorIxNS_9allocatorIxEEE16__destroy_vectorEED1B8ue170006Ev, symObjAddr: 0x4EC4, symBinAddr: 0x100008280, symSize: 0x78 }
  - { offsetInCU: 0xC162, offset: 0xC162, size: 0x8, addend: 0x0, symName: __ZNSt3__117__compressed_pairIPxNS_9allocatorIxEEEC2B8ue170006IDnNS_18__default_init_tagEEEOT_OT0_, symObjAddr: 0x4F3C, symBinAddr: 0x1000082F8, symSize: 0x140 }
  - { offsetInCU: 0xC1BA, offset: 0xC1BA, size: 0x8, addend: 0x0, symName: __ZNSt3__122__compressed_pair_elemIPxLi0ELb0EEC2B8ue170006IDnvEEOT_, symObjAddr: 0x507C, symBinAddr: 0x100008438, symSize: 0xBC }
  - { offsetInCU: 0xC1FC, offset: 0xC1FC, size: 0x8, addend: 0x0, symName: __ZNSt3__122__compressed_pair_elemINS_9allocatorIxEELi1ELb1EEC2B8ue170006ENS_18__default_init_tagE, symObjAddr: 0x5138, symBinAddr: 0x1000084F4, symSize: 0x84 }
  - { offsetInCU: 0xC230, offset: 0xC230, size: 0x8, addend: 0x0, symName: __ZNSt3__19allocatorIxEC2B8ue170006Ev, symObjAddr: 0x51BC, symBinAddr: 0x100008578, symSize: 0x84 }
  - { offsetInCU: 0xC25A, offset: 0xC25A, size: 0x8, addend: 0x0, symName: __ZNSt3__116__non_trivial_ifILb1ENS_9allocatorIxEEEC2B8ue170006Ev, symObjAddr: 0x5240, symBinAddr: 0x1000085FC, symSize: 0x54 }
  - { offsetInCU: 0xC284, offset: 0xC284, size: 0x8, addend: 0x0, symName: __ZNSt3__128__exception_guard_exceptionsINS_6vectorIxNS_9allocatorIxEEE16__destroy_vectorEEC1B8ue170006ES5_, symObjAddr: 0x5294, symBinAddr: 0x100008650, symSize: 0x28C }
  - { offsetInCU: 0xC2C1, offset: 0xC2C1, size: 0x8, addend: 0x0, symName: __ZNSt3__128__exception_guard_exceptionsINS_6vectorIxNS_9allocatorIxEEE16__destroy_vectorEEC2B8ue170006ES5_, symObjAddr: 0x5520, symBinAddr: 0x1000088DC, symSize: 0x2BC }
  - { offsetInCU: 0xC2FE, offset: 0xC2FE, size: 0x8, addend: 0x0, symName: __ZNSt3__16vectorIxNS_9allocatorIxEEE16__destroy_vectorC2B8ue170006ERS3_, symObjAddr: 0x57DC, symBinAddr: 0x100008B98, symSize: 0x108 }
  - { offsetInCU: 0xC337, offset: 0xC337, size: 0x8, addend: 0x0, symName: __ZNKSt3__16vectorIxNS_9allocatorIxEEE8max_sizeEv, symObjAddr: 0x58E4, symBinAddr: 0x100008CA0, symSize: 0x3B8 }
  - { offsetInCU: 0xC360, offset: 0xC360, size: 0x8, addend: 0x0, symName: __ZNKSt3__16vectorIxNS_9allocatorIxEEE20__throw_length_errorB8ue170006Ev, symObjAddr: 0x5C9C, symBinAddr: 0x100009058, symSize: 0x80 }
  - { offsetInCU: 0xC386, offset: 0xC386, size: 0x8, addend: 0x0, symName: __ZNSt3__16vectorIxNS_9allocatorIxEEE7__allocB8ue170006Ev, symObjAddr: 0x5FA8, symBinAddr: 0x100009364, symSize: 0xE4 }
  - { offsetInCU: 0xC3AC, offset: 0xC3AC, size: 0x8, addend: 0x0, symName: __ZNSt3__16vectorIxNS_9allocatorIxEEE9__end_capB8ue170006Ev, symObjAddr: 0x608C, symBinAddr: 0x100009448, symSize: 0x100 }
  - { offsetInCU: 0xC3D2, offset: 0xC3D2, size: 0x8, addend: 0x0, symName: __ZNKSt3__16vectorIxNS_9allocatorIxEEE14__annotate_newB8ue170006Em, symObjAddr: 0x618C, symBinAddr: 0x100009548, symSize: 0x360 }
  - { offsetInCU: 0xC411, offset: 0xC411, size: 0x8, addend: 0x0, symName: __ZNSt3__116allocator_traitsINS_9allocatorIxEEE8max_sizeB8ue170006IS2_vEEmRKS2_, symObjAddr: 0x65F0, symBinAddr: 0x1000099AC, symSize: 0x24 }
  - { offsetInCU: 0xC43F, offset: 0xC43F, size: 0x8, addend: 0x0, symName: __ZNKSt3__16vectorIxNS_9allocatorIxEEE7__allocB8ue170006Ev, symObjAddr: 0x6614, symBinAddr: 0x1000099D0, symSize: 0xE4 }
  - { offsetInCU: 0xC465, offset: 0xC465, size: 0x8, addend: 0x0, symName: __ZNSt3__114numeric_limitsIlE3maxB8ue170006Ev, symObjAddr: 0x66F8, symBinAddr: 0x100009AB4, symSize: 0x14 }
  - { offsetInCU: 0xC483, offset: 0xC483, size: 0x8, addend: 0x0, symName: __ZNKSt3__16__lessIvvEclB8ue170006ImmEEbRKT_RKT0_, symObjAddr: 0x69D8, symBinAddr: 0x100009D94, symSize: 0xEC }
  - { offsetInCU: 0xC4D7, offset: 0xC4D7, size: 0x8, addend: 0x0, symName: __ZNKSt3__19allocatorIxE8max_sizeB8ue170006Ev, symObjAddr: 0x6AC4, symBinAddr: 0x100009E80, symSize: 0x4C }
  - { offsetInCU: 0xC4FD, offset: 0xC4FD, size: 0x8, addend: 0x0, symName: __ZNKSt3__117__compressed_pairIPxNS_9allocatorIxEEE6secondB8ue170006Ev, symObjAddr: 0x6B10, symBinAddr: 0x100009ECC, symSize: 0x108 }
  - { offsetInCU: 0xC523, offset: 0xC523, size: 0x8, addend: 0x0, symName: __ZNKSt3__122__compressed_pair_elemINS_9allocatorIxEELi1ELb1EE5__getB8ue170006Ev, symObjAddr: 0x6C18, symBinAddr: 0x100009FD4, symSize: 0x74 }
  - { offsetInCU: 0xC549, offset: 0xC549, size: 0x8, addend: 0x0, symName: __ZNSt3__123__libcpp_numeric_limitsIlLb1EE3maxB8ue170006Ev, symObjAddr: 0x6C8C, symBinAddr: 0x10000A048, symSize: 0x8 }
  - { offsetInCU: 0xC55D, offset: 0xC55D, size: 0x8, addend: 0x0, symName: __ZNSt12length_errorC1B8ue170006EPKc, symObjAddr: 0x6D48, symBinAddr: 0x10000A104, symSize: 0x80 }
  - { offsetInCU: 0xC595, offset: 0xC595, size: 0x8, addend: 0x0, symName: __ZNSt12length_errorC2B8ue170006EPKc, symObjAddr: 0x6DC8, symBinAddr: 0x10000A184, symSize: 0x128 }
  - { offsetInCU: 0xC5CD, offset: 0xC5CD, size: 0x8, addend: 0x0, symName: __ZNSt3__19allocatorIxE8allocateB8ue170006Em, symObjAddr: 0x6EF0, symBinAddr: 0x10000A2AC, symSize: 0xCC }
  - { offsetInCU: 0xC601, offset: 0xC601, size: 0x8, addend: 0x0, symName: __ZNSt3__117__compressed_pairIPxNS_9allocatorIxEEE6secondB8ue170006Ev, symObjAddr: 0x7148, symBinAddr: 0x10000A504, symSize: 0x108 }
  - { offsetInCU: 0xC627, offset: 0xC627, size: 0x8, addend: 0x0, symName: __ZNSt3__122__compressed_pair_elemINS_9allocatorIxEELi1ELb1EE5__getB8ue170006Ev, symObjAddr: 0x7250, symBinAddr: 0x10000A60C, symSize: 0x74 }
  - { offsetInCU: 0xC64D, offset: 0xC64D, size: 0x8, addend: 0x0, symName: __ZNSt3__117__compressed_pairIPxNS_9allocatorIxEEE5firstB8ue170006Ev, symObjAddr: 0x72C4, symBinAddr: 0x10000A680, symSize: 0x124 }
  - { offsetInCU: 0xC673, offset: 0xC673, size: 0x8, addend: 0x0, symName: __ZNSt3__122__compressed_pair_elemIPxLi0ELb0EE5__getB8ue170006Ev, symObjAddr: 0x73E8, symBinAddr: 0x10000A7A4, symSize: 0xAC }
  - { offsetInCU: 0xC699, offset: 0xC699, size: 0x8, addend: 0x0, symName: __ZNKSt3__16vectorIxNS_9allocatorIxEEE31__annotate_contiguous_containerEPKvS5_S5_S5_, symObjAddr: 0x7494, symBinAddr: 0x10000A850, symSize: 0x9C }
  - { offsetInCU: 0xC6FB, offset: 0xC6FB, size: 0x8, addend: 0x0, symName: __ZNKSt3__16vectorIxNS_9allocatorIxEEE4dataB8ue170006Ev, symObjAddr: 0x7530, symBinAddr: 0x10000A8EC, symSize: 0xB0 }
  - { offsetInCU: 0xC721, offset: 0xC721, size: 0x8, addend: 0x0, symName: __ZNKSt3__16vectorIxNS_9allocatorIxEEE8capacityB8ue170006Ev, symObjAddr: 0x75E0, symBinAddr: 0x10000A99C, symSize: 0x144 }
  - { offsetInCU: 0xC747, offset: 0xC747, size: 0x8, addend: 0x0, symName: __ZNKSt3__16vectorIxNS_9allocatorIxEEE9__end_capB8ue170006Ev, symObjAddr: 0x7738, symBinAddr: 0x10000AAF4, symSize: 0x100 }
  - { offsetInCU: 0xC76D, offset: 0xC76D, size: 0x8, addend: 0x0, symName: __ZNKSt3__117__compressed_pairIPxNS_9allocatorIxEEE5firstB8ue170006Ev, symObjAddr: 0x7838, symBinAddr: 0x10000ABF4, symSize: 0x124 }
  - { offsetInCU: 0xC793, offset: 0xC793, size: 0x8, addend: 0x0, symName: __ZNKSt3__122__compressed_pair_elemIPxLi0ELb0EE5__getB8ue170006Ev, symObjAddr: 0x795C, symBinAddr: 0x10000AD18, symSize: 0xAC }
  - { offsetInCU: 0xC7D2, offset: 0xC7D2, size: 0x8, addend: 0x0, symName: __ZNSt3__16vectorIxNS_9allocatorIxEEE21_ConstructTransactionC1B8ue170006ERS3_m, symObjAddr: 0x7A08, symBinAddr: 0x10000ADC4, symSize: 0x88 }
  - { offsetInCU: 0xC81A, offset: 0xC81A, size: 0x8, addend: 0x0, symName: __ZNSt3__116allocator_traitsINS_9allocatorIxEEE9constructB8ue170006IxJEvEEvRS2_PT_DpOT0_, symObjAddr: 0x7A90, symBinAddr: 0x10000AE4C, symSize: 0x2C }
  - { offsetInCU: 0xC85C, offset: 0xC85C, size: 0x8, addend: 0x0, symName: __ZNSt3__16vectorIxNS_9allocatorIxEEE21_ConstructTransactionD1B8ue170006Ev, symObjAddr: 0x7ABC, symBinAddr: 0x10000AE78, symSize: 0x78 }
  - { offsetInCU: 0xC886, offset: 0xC886, size: 0x8, addend: 0x0, symName: __ZNSt3__16vectorIxNS_9allocatorIxEEE21_ConstructTransactionC2B8ue170006ERS3_m, symObjAddr: 0x7B34, symBinAddr: 0x10000AEF0, symSize: 0x3D8 }
  - { offsetInCU: 0xC8CE, offset: 0xC8CE, size: 0x8, addend: 0x0, symName: __ZNKSt3__16vectorIxNS_9allocatorIxEEE19__annotate_increaseB8ue170006Em, symObjAddr: 0x7F0C, symBinAddr: 0x10000B2C8, symSize: 0x44C }
  - { offsetInCU: 0xC903, offset: 0xC903, size: 0x8, addend: 0x0, symName: __ZNKSt3__16vectorIxNS_9allocatorIxEEE4sizeB8ue170006Ev, symObjAddr: 0x8358, symBinAddr: 0x10000B714, symSize: 0xF8 }
  - { offsetInCU: 0xC929, offset: 0xC929, size: 0x8, addend: 0x0, symName: __ZNSt3__19allocatorIxE9constructB8ue170006IxJEEEvPT_DpOT0_, symObjAddr: 0x8450, symBinAddr: 0x10000B80C, symSize: 0xDC }
  - { offsetInCU: 0xC96B, offset: 0xC96B, size: 0x8, addend: 0x0, symName: __ZNSt3__16vectorIxNS_9allocatorIxEEE21_ConstructTransactionD2B8ue170006Ev, symObjAddr: 0x852C, symBinAddr: 0x10000B8E8, symSize: 0x390 }
  - { offsetInCU: 0xC995, offset: 0xC995, size: 0x8, addend: 0x0, symName: __ZNKSt3__16vectorIxNS_9allocatorIxEEE17__annotate_shrinkB8ue170006Em, symObjAddr: 0x88BC, symBinAddr: 0x10000BC78, symSize: 0x360 }
  - { offsetInCU: 0xC9CA, offset: 0xC9CA, size: 0x8, addend: 0x0, symName: __ZNSt3__128__exception_guard_exceptionsINS_6vectorIxNS_9allocatorIxEEE16__destroy_vectorEED2B8ue170006Ev, symObjAddr: 0x8C1C, symBinAddr: 0x10000BFD8, symSize: 0x17C }
  - { offsetInCU: 0xC9F4, offset: 0xC9F4, size: 0x8, addend: 0x0, symName: __ZNSt3__16vectorIxNS_9allocatorIxEEE16__destroy_vectorclB8ue170006Ev, symObjAddr: 0x8D98, symBinAddr: 0x10000C154, symSize: 0x43C }
  - { offsetInCU: 0xCA1A, offset: 0xCA1A, size: 0x8, addend: 0x0, symName: __ZNSt3__16vectorIxNS_9allocatorIxEEE7__clearB8ue170006Ev, symObjAddr: 0x91D4, symBinAddr: 0x10000C590, symSize: 0xB0 }
  - { offsetInCU: 0xCA40, offset: 0xCA40, size: 0x8, addend: 0x0, symName: __ZNKSt3__16vectorIxNS_9allocatorIxEEE17__annotate_deleteB8ue170006Ev, symObjAddr: 0x9284, symBinAddr: 0x10000C640, symSize: 0x370 }
  - { offsetInCU: 0xCA66, offset: 0xCA66, size: 0x8, addend: 0x0, symName: __ZNSt3__116allocator_traitsINS_9allocatorIxEEE10deallocateB8ue170006ERS2_Pxm, symObjAddr: 0x95F4, symBinAddr: 0x10000C9B0, symSize: 0x34 }
  - { offsetInCU: 0xCAA8, offset: 0xCAA8, size: 0x8, addend: 0x0, symName: __ZNSt3__16vectorIxNS_9allocatorIxEEE22__base_destruct_at_endB8ue170006EPx, symObjAddr: 0x9628, symBinAddr: 0x10000C9E4, symSize: 0x1FC }
  - { offsetInCU: 0xCAEC, offset: 0xCAEC, size: 0x8, addend: 0x0, symName: __ZNSt3__116allocator_traitsINS_9allocatorIxEEE7destroyB8ue170006IxvEEvRS2_PT_, symObjAddr: 0x9824, symBinAddr: 0x10000CBE0, symSize: 0x2C }
  - { offsetInCU: 0xCB29, offset: 0xCB29, size: 0x8, addend: 0x0, symName: __ZNSt3__19allocatorIxE7destroyB8ue170006EPx, symObjAddr: 0x9850, symBinAddr: 0x10000CC0C, symSize: 0x4C }
  - { offsetInCU: 0xCB5D, offset: 0xCB5D, size: 0x8, addend: 0x0, symName: __ZNSt3__19allocatorIxE10deallocateB8ue170006EPxm, symObjAddr: 0x989C, symBinAddr: 0x10000CC58, symSize: 0x78 }
  - { offsetInCU: 0xCB9F, offset: 0xCB9F, size: 0x8, addend: 0x0, symName: __ZNSt3__16vectorIxNS_9allocatorIxEEED2B8ue170006Ev, symObjAddr: 0x9A1C, symBinAddr: 0x10000CDD8, symSize: 0x294 }
  - { offsetInCU: 0xCBCA, offset: 0xCBCA, size: 0x8, addend: 0x0, symName: __ZNSt3__16vectorIxNS_9allocatorIxEEE11__make_iterB8ue170006EPx, symObjAddr: 0x9CB0, symBinAddr: 0x10000D06C, symSize: 0x244 }
  - { offsetInCU: 0xCC01, offset: 0xCC01, size: 0x8, addend: 0x0, symName: __ZNSt3__111__wrap_iterIPxEC1B8ue170006ES1_, symObjAddr: 0x9EF4, symBinAddr: 0x10000D2B0, symSize: 0x80 }
  - { offsetInCU: 0xCC39, offset: 0xCC39, size: 0x8, addend: 0x0, symName: __ZNSt3__111__wrap_iterIPxEC2B8ue170006ES1_, symObjAddr: 0x9F74, symBinAddr: 0x10000D330, symSize: 0xC8 }
  - { offsetInCU: 0xCC71, offset: 0xCC71, size: 0x8, addend: 0x0, symName: __ZNSt3__111__wrap_iterIPxEmmB8ue170006Ev, symObjAddr: 0xA7DC, symBinAddr: 0x10000DB98, symSize: 0x1A8 }
  - { offsetInCU: 0xCC97, offset: 0xCC97, size: 0x8, addend: 0x0, symName: __ZNSt3__18_IterOpsINS_17_ClassicAlgPolicyEE9iter_swapB8ue170006IRNS_11__wrap_iterIPxEES7_EEvOT_OT0_, symObjAddr: 0xA984, symBinAddr: 0x10000DD40, symSize: 0x290 }
  - { offsetInCU: 0xCCDC, offset: 0xCCDC, size: 0x8, addend: 0x0, symName: __ZNSt3__111__wrap_iterIPxEppB8ue170006Ev, symObjAddr: 0xAC14, symBinAddr: 0x10000DFD0, symSize: 0x1A8 }
  - { offsetInCU: 0xCD02, offset: 0xCD02, size: 0x8, addend: 0x0, symName: __ZNKSt3__111__wrap_iterIPxE4baseB8ue170006Ev, symObjAddr: 0xAE58, symBinAddr: 0x10000E214, symSize: 0xAC }
  - { offsetInCU: 0xCD28, offset: 0xCD28, size: 0x8, addend: 0x0, symName: __ZNKSt3__111__wrap_iterIPxEdeB8ue170006Ev, symObjAddr: 0xB3CC, symBinAddr: 0x10000E788, symSize: 0xF4 }
  - { offsetInCU: 0xCD4E, offset: 0xCD4E, size: 0x8, addend: 0x0, symName: __ZNSt3__16vectorIxNS_9allocatorIxEEEC2EmRKx, symObjAddr: 0xB4C0, symBinAddr: 0x10000E87C, symSize: 0x574 }
  - { offsetInCU: 0xCDB4, offset: 0xCDB4, size: 0x8, addend: 0x0, symName: __ZNSt3__16vectorIxNS_9allocatorIxEEE18__construct_at_endEmRKx, symObjAddr: 0xBA34, symBinAddr: 0x10000EDF0, symSize: 0x5F4 }
  - { offsetInCU: 0xCE3E, offset: 0xCE3E, size: 0x8, addend: 0x0, symName: __ZNSt3__116allocator_traitsINS_9allocatorIxEEE9constructB8ue170006IxJRKxEvEEvRS2_PT_DpOT0_, symObjAddr: 0xC028, symBinAddr: 0x10000F3E4, symSize: 0x8C }
  - { offsetInCU: 0xCE95, offset: 0xCE95, size: 0x8, addend: 0x0, symName: __ZNSt3__19allocatorIxE9constructB8ue170006IxJRKxEEEvPT_DpOT0_, symObjAddr: 0xC0B4, symBinAddr: 0x10000F470, symSize: 0x168 }
  - { offsetInCU: 0xCEEB, offset: 0xCEEB, size: 0x8, addend: 0x0, symName: __ZNSt3__16vectorINS0_IxNS_9allocatorIxEEEENS1_IS3_EEEC2EmRKS3_, symObjAddr: 0xC21C, symBinAddr: 0x10000F5D8, symSize: 0x574 }
  - { offsetInCU: 0xCF51, offset: 0xCF51, size: 0x8, addend: 0x0, symName: __ZNSt3__117__compressed_pairIPNS_6vectorIxNS_9allocatorIxEEEENS2_IS4_EEEC1B8ue170006IDnNS_18__default_init_tagEEEOT_OT0_, symObjAddr: 0xC790, symBinAddr: 0x10000FB4C, symSize: 0x88 }
  - { offsetInCU: 0xCFA9, offset: 0xCFA9, size: 0x8, addend: 0x0, symName: __ZNSt3__16vectorINS0_IxNS_9allocatorIxEEEENS1_IS3_EEE16__destroy_vectorC1B8ue170006ERS5_, symObjAddr: 0xCAD4, symBinAddr: 0x10000FE90, symSize: 0x80 }
  - { offsetInCU: 0xCFE2, offset: 0xCFE2, size: 0x8, addend: 0x0, symName: __ZNSt3__16vectorINS0_IxNS_9allocatorIxEEEENS1_IS3_EEE11__vallocateB8ue170006Em, symObjAddr: 0xCB54, symBinAddr: 0x10000FF10, symSize: 0x5F0 }
  - { offsetInCU: 0xD02C, offset: 0xD02C, size: 0x8, addend: 0x0, symName: __ZNSt3__16vectorINS0_IxNS_9allocatorIxEEEENS1_IS3_EEE18__construct_at_endEmRKS3_, symObjAddr: 0xD144, symBinAddr: 0x100010500, symSize: 0x5F4 }
  - { offsetInCU: 0xD0B6, offset: 0xD0B6, size: 0x8, addend: 0x0, symName: __ZNSt3__128__exception_guard_exceptionsINS_6vectorINS1_IxNS_9allocatorIxEEEENS2_IS4_EEE16__destroy_vectorEE10__completeB8ue170006Ev, symObjAddr: 0xD738, symBinAddr: 0x100010AF4, symSize: 0xD8 }
  - { offsetInCU: 0xD0DC, offset: 0xD0DC, size: 0x8, addend: 0x0, symName: __ZNSt3__128__exception_guard_exceptionsINS_6vectorINS1_IxNS_9allocatorIxEEEENS2_IS4_EEE16__destroy_vectorEED1B8ue170006Ev, symObjAddr: 0xD810, symBinAddr: 0x100010BCC, symSize: 0x78 }
  - { offsetInCU: 0xD106, offset: 0xD106, size: 0x8, addend: 0x0, symName: __ZNSt3__117__compressed_pairIPNS_6vectorIxNS_9allocatorIxEEEENS2_IS4_EEEC2B8ue170006IDnNS_18__default_init_tagEEEOT_OT0_, symObjAddr: 0xD888, symBinAddr: 0x100010C44, symSize: 0x140 }
  - { offsetInCU: 0xD15E, offset: 0xD15E, size: 0x8, addend: 0x0, symName: __ZNSt3__122__compressed_pair_elemIPNS_6vectorIxNS_9allocatorIxEEEELi0ELb0EEC2B8ue170006IDnvEEOT_, symObjAddr: 0xD9C8, symBinAddr: 0x100010D84, symSize: 0xBC }
  - { offsetInCU: 0xD1A0, offset: 0xD1A0, size: 0x8, addend: 0x0, symName: __ZNSt3__122__compressed_pair_elemINS_9allocatorINS_6vectorIxNS1_IxEEEEEELi1ELb1EEC2B8ue170006ENS_18__default_init_tagE, symObjAddr: 0xDA84, symBinAddr: 0x100010E40, symSize: 0x84 }
  - { offsetInCU: 0xD1D4, offset: 0xD1D4, size: 0x8, addend: 0x0, symName: __ZNSt3__19allocatorINS_6vectorIxNS0_IxEEEEEC2B8ue170006Ev, symObjAddr: 0xDB08, symBinAddr: 0x100010EC4, symSize: 0x84 }
  - { offsetInCU: 0xD1FE, offset: 0xD1FE, size: 0x8, addend: 0x0, symName: __ZNSt3__116__non_trivial_ifILb1ENS_9allocatorINS_6vectorIxNS1_IxEEEEEEEC2B8ue170006Ev, symObjAddr: 0xDB8C, symBinAddr: 0x100010F48, symSize: 0x54 }
  - { offsetInCU: 0xD228, offset: 0xD228, size: 0x8, addend: 0x0, symName: __ZNSt3__128__exception_guard_exceptionsINS_6vectorINS1_IxNS_9allocatorIxEEEENS2_IS4_EEE16__destroy_vectorEEC1B8ue170006ES7_, symObjAddr: 0xDBE0, symBinAddr: 0x100010F9C, symSize: 0x28C }
  - { offsetInCU: 0xD265, offset: 0xD265, size: 0x8, addend: 0x0, symName: __ZNSt3__128__exception_guard_exceptionsINS_6vectorINS1_IxNS_9allocatorIxEEEENS2_IS4_EEE16__destroy_vectorEEC2B8ue170006ES7_, symObjAddr: 0xDE6C, symBinAddr: 0x100011228, symSize: 0x2BC }
  - { offsetInCU: 0xD2A2, offset: 0xD2A2, size: 0x8, addend: 0x0, symName: __ZNSt3__16vectorINS0_IxNS_9allocatorIxEEEENS1_IS3_EEE16__destroy_vectorC2B8ue170006ERS5_, symObjAddr: 0xE128, symBinAddr: 0x1000114E4, symSize: 0x108 }
  - { offsetInCU: 0xD2DB, offset: 0xD2DB, size: 0x8, addend: 0x0, symName: __ZNKSt3__16vectorINS0_IxNS_9allocatorIxEEEENS1_IS3_EEE8max_sizeEv, symObjAddr: 0xE230, symBinAddr: 0x1000115EC, symSize: 0x3B8 }
  - { offsetInCU: 0xD304, offset: 0xD304, size: 0x8, addend: 0x0, symName: __ZNKSt3__16vectorINS0_IxNS_9allocatorIxEEEENS1_IS3_EEE20__throw_length_errorB8ue170006Ev, symObjAddr: 0xE5E8, symBinAddr: 0x1000119A4, symSize: 0x80 }
  - { offsetInCU: 0xD32A, offset: 0xD32A, size: 0x8, addend: 0x0, symName: __ZNSt3__16vectorINS0_IxNS_9allocatorIxEEEENS1_IS3_EEE7__allocB8ue170006Ev, symObjAddr: 0xE8F4, symBinAddr: 0x100011CB0, symSize: 0xE4 }
  - { offsetInCU: 0xD350, offset: 0xD350, size: 0x8, addend: 0x0, symName: __ZNSt3__16vectorINS0_IxNS_9allocatorIxEEEENS1_IS3_EEE9__end_capB8ue170006Ev, symObjAddr: 0xE9D8, symBinAddr: 0x100011D94, symSize: 0x100 }
  - { offsetInCU: 0xD376, offset: 0xD376, size: 0x8, addend: 0x0, symName: __ZNKSt3__16vectorINS0_IxNS_9allocatorIxEEEENS1_IS3_EEE14__annotate_newB8ue170006Em, symObjAddr: 0xEAD8, symBinAddr: 0x100011E94, symSize: 0x378 }
  - { offsetInCU: 0xD3B5, offset: 0xD3B5, size: 0x8, addend: 0x0, symName: __ZNSt3__116allocator_traitsINS_9allocatorINS_6vectorIxNS1_IxEEEEEEE8max_sizeB8ue170006IS5_vEEmRKS5_, symObjAddr: 0xEE50, symBinAddr: 0x10001220C, symSize: 0x24 }
  - { offsetInCU: 0xD3E3, offset: 0xD3E3, size: 0x8, addend: 0x0, symName: __ZNKSt3__16vectorINS0_IxNS_9allocatorIxEEEENS1_IS3_EEE7__allocB8ue170006Ev, symObjAddr: 0xEE74, symBinAddr: 0x100012230, symSize: 0xE4 }
  - { offsetInCU: 0xD409, offset: 0xD409, size: 0x8, addend: 0x0, symName: __ZNKSt3__19allocatorINS_6vectorIxNS0_IxEEEEE8max_sizeB8ue170006Ev, symObjAddr: 0xEF58, symBinAddr: 0x100012314, symSize: 0x50 }
  - { offsetInCU: 0xD42F, offset: 0xD42F, size: 0x8, addend: 0x0, symName: __ZNKSt3__117__compressed_pairIPNS_6vectorIxNS_9allocatorIxEEEENS2_IS4_EEE6secondB8ue170006Ev, symObjAddr: 0xEFA8, symBinAddr: 0x100012364, symSize: 0x108 }
  - { offsetInCU: 0xD455, offset: 0xD455, size: 0x8, addend: 0x0, symName: __ZNKSt3__122__compressed_pair_elemINS_9allocatorINS_6vectorIxNS1_IxEEEEEELi1ELb1EE5__getB8ue170006Ev, symObjAddr: 0xF0B0, symBinAddr: 0x10001246C, symSize: 0x74 }
  - { offsetInCU: 0xD47B, offset: 0xD47B, size: 0x8, addend: 0x0, symName: __ZNSt3__19allocatorINS_6vectorIxNS0_IxEEEEE8allocateB8ue170006Em, symObjAddr: 0xF124, symBinAddr: 0x1000124E0, symSize: 0xD0 }
  - { offsetInCU: 0xD4AF, offset: 0xD4AF, size: 0x8, addend: 0x0, symName: __ZNSt3__117__compressed_pairIPNS_6vectorIxNS_9allocatorIxEEEENS2_IS4_EEE6secondB8ue170006Ev, symObjAddr: 0xF1F4, symBinAddr: 0x1000125B0, symSize: 0x108 }
  - { offsetInCU: 0xD4D5, offset: 0xD4D5, size: 0x8, addend: 0x0, symName: __ZNSt3__122__compressed_pair_elemINS_9allocatorINS_6vectorIxNS1_IxEEEEEELi1ELb1EE5__getB8ue170006Ev, symObjAddr: 0xF2FC, symBinAddr: 0x1000126B8, symSize: 0x74 }
  - { offsetInCU: 0xD4FB, offset: 0xD4FB, size: 0x8, addend: 0x0, symName: __ZNSt3__117__compressed_pairIPNS_6vectorIxNS_9allocatorIxEEEENS2_IS4_EEE5firstB8ue170006Ev, symObjAddr: 0xF370, symBinAddr: 0x10001272C, symSize: 0x124 }
  - { offsetInCU: 0xD521, offset: 0xD521, size: 0x8, addend: 0x0, symName: __ZNSt3__122__compressed_pair_elemIPNS_6vectorIxNS_9allocatorIxEEEELi0ELb0EE5__getB8ue170006Ev, symObjAddr: 0xF494, symBinAddr: 0x100012850, symSize: 0xAC }
  - { offsetInCU: 0xD547, offset: 0xD547, size: 0x8, addend: 0x0, symName: __ZNKSt3__16vectorINS0_IxNS_9allocatorIxEEEENS1_IS3_EEE31__annotate_contiguous_containerEPKvS7_S7_S7_, symObjAddr: 0xF540, symBinAddr: 0x1000128FC, symSize: 0x9C }
  - { offsetInCU: 0xD5A9, offset: 0xD5A9, size: 0x8, addend: 0x0, symName: __ZNKSt3__16vectorINS0_IxNS_9allocatorIxEEEENS1_IS3_EEE4dataB8ue170006Ev, symObjAddr: 0xF5DC, symBinAddr: 0x100012998, symSize: 0xB0 }
  - { offsetInCU: 0xD5CF, offset: 0xD5CF, size: 0x8, addend: 0x0, symName: __ZNKSt3__16vectorINS0_IxNS_9allocatorIxEEEENS1_IS3_EEE8capacityB8ue170006Ev, symObjAddr: 0xF68C, symBinAddr: 0x100012A48, symSize: 0x144 }
  - { offsetInCU: 0xD5F5, offset: 0xD5F5, size: 0x8, addend: 0x0, symName: __ZNKSt3__16vectorINS0_IxNS_9allocatorIxEEEENS1_IS3_EEE9__end_capB8ue170006Ev, symObjAddr: 0xF7E4, symBinAddr: 0x100012BA0, symSize: 0x100 }
  - { offsetInCU: 0xD61B, offset: 0xD61B, size: 0x8, addend: 0x0, symName: __ZNKSt3__117__compressed_pairIPNS_6vectorIxNS_9allocatorIxEEEENS2_IS4_EEE5firstB8ue170006Ev, symObjAddr: 0xF8E4, symBinAddr: 0x100012CA0, symSize: 0x124 }
  - { offsetInCU: 0xD641, offset: 0xD641, size: 0x8, addend: 0x0, symName: __ZNKSt3__122__compressed_pair_elemIPNS_6vectorIxNS_9allocatorIxEEEELi0ELb0EE5__getB8ue170006Ev, symObjAddr: 0xFA08, symBinAddr: 0x100012DC4, symSize: 0xAC }
  - { offsetInCU: 0xD680, offset: 0xD680, size: 0x8, addend: 0x0, symName: __ZNSt3__16vectorINS0_IxNS_9allocatorIxEEEENS1_IS3_EEE21_ConstructTransactionC1B8ue170006ERS5_m, symObjAddr: 0xFAB4, symBinAddr: 0x100012E70, symSize: 0x88 }
  - { offsetInCU: 0xD6C8, offset: 0xD6C8, size: 0x8, addend: 0x0, symName: __ZNSt3__116allocator_traitsINS_9allocatorINS_6vectorIxNS1_IxEEEEEEE9constructB8ue170006IS4_JRKS4_EvEEvRS5_PT_DpOT0_, symObjAddr: 0xFB3C, symBinAddr: 0x100012EF8, symSize: 0x8C }
  - { offsetInCU: 0xD71F, offset: 0xD71F, size: 0x8, addend: 0x0, symName: __ZNSt3__16vectorINS0_IxNS_9allocatorIxEEEENS1_IS3_EEE21_ConstructTransactionD1B8ue170006Ev, symObjAddr: 0xFBC8, symBinAddr: 0x100012F84, symSize: 0x78 }
  - { offsetInCU: 0xD749, offset: 0xD749, size: 0x8, addend: 0x0, symName: __ZNSt3__16vectorINS0_IxNS_9allocatorIxEEEENS1_IS3_EEE21_ConstructTransactionC2B8ue170006ERS5_m, symObjAddr: 0xFC40, symBinAddr: 0x100012FFC, symSize: 0x3E0 }
  - { offsetInCU: 0xD791, offset: 0xD791, size: 0x8, addend: 0x0, symName: __ZNKSt3__16vectorINS0_IxNS_9allocatorIxEEEENS1_IS3_EEE19__annotate_increaseB8ue170006Em, symObjAddr: 0x10020, symBinAddr: 0x1000133DC, symSize: 0x46C }
  - { offsetInCU: 0xD7C6, offset: 0xD7C6, size: 0x8, addend: 0x0, symName: __ZNKSt3__16vectorINS0_IxNS_9allocatorIxEEEENS1_IS3_EEE4sizeB8ue170006Ev, symObjAddr: 0x1048C, symBinAddr: 0x100013848, symSize: 0xF8 }
  - { offsetInCU: 0xD7EC, offset: 0xD7EC, size: 0x8, addend: 0x0, symName: __ZNSt3__19allocatorINS_6vectorIxNS0_IxEEEEE9constructB8ue170006IS3_JRKS3_EEEvPT_DpOT0_, symObjAddr: 0x10584, symBinAddr: 0x100013940, symSize: 0xEC }
  - { offsetInCU: 0xD842, offset: 0xD842, size: 0x8, addend: 0x0, symName: __ZNSt3__16vectorIxNS_9allocatorIxEEEC1ERKS3_, symObjAddr: 0x10670, symBinAddr: 0x100013A2C, symSize: 0x80 }
  - { offsetInCU: 0xD87D, offset: 0xD87D, size: 0x8, addend: 0x0, symName: __ZNSt3__16vectorIxNS_9allocatorIxEEEC2ERKS3_, symObjAddr: 0x106F0, symBinAddr: 0x100013AAC, symSize: 0x4C0 }
  - { offsetInCU: 0xD8BA, offset: 0xD8BA, size: 0x8, addend: 0x0, symName: __ZNSt3__116allocator_traitsINS_9allocatorIxEEE37select_on_container_copy_constructionB8ue170006IS2_vvEES2_RKS2_, symObjAddr: 0x10BB0, symBinAddr: 0x100013F6C, symSize: 0x10 }
  - { offsetInCU: 0xD8EE, offset: 0xD8EE, size: 0x8, addend: 0x0, symName: __ZNSt3__117__compressed_pairIPxNS_9allocatorIxEEEC1B8ue170006IDnS3_EEOT_OT0_, symObjAddr: 0x10BC0, symBinAddr: 0x100013F7C, symSize: 0x88 }
  - { offsetInCU: 0xD946, offset: 0xD946, size: 0x8, addend: 0x0, symName: __ZNSt3__16vectorIxNS_9allocatorIxEEE16__init_with_sizeB8ue170006IPxS5_EEvT_T0_m, symObjAddr: 0x10C48, symBinAddr: 0x100014004, symSize: 0x3EC }
  - { offsetInCU: 0xD9C2, offset: 0xD9C2, size: 0x8, addend: 0x0, symName: __ZNSt3__117__compressed_pairIPxNS_9allocatorIxEEEC2B8ue170006IDnS3_EEOT_OT0_, symObjAddr: 0x11034, symBinAddr: 0x1000143F0, symSize: 0x170 }
  - { offsetInCU: 0xDA1A, offset: 0xDA1A, size: 0x8, addend: 0x0, symName: __ZNSt3__122__compressed_pair_elemINS_9allocatorIxEELi1ELb1EEC2B8ue170006IS2_vEEOT_, symObjAddr: 0x111A4, symBinAddr: 0x100014560, symSize: 0x58 }
  - { offsetInCU: 0xDA5C, offset: 0xDA5C, size: 0x8, addend: 0x0, symName: __ZNSt3__16vectorIxNS_9allocatorIxEEE18__construct_at_endIPxS5_EEvT_T0_m, symObjAddr: 0x111FC, symBinAddr: 0x1000145B8, symSize: 0x494 }
  - { offsetInCU: 0xDAF8, offset: 0xDAF8, size: 0x8, addend: 0x0, symName: __ZNSt3__14pairIPxS1_EC1B8ue170006IS1_S1_LPv0EEEOT_OT0_, symObjAddr: 0x12058, symBinAddr: 0x100015414, symSize: 0x88 }
  - { offsetInCU: 0xDB56, offset: 0xDB56, size: 0x8, addend: 0x0, symName: __ZNSt3__14pairIPxS1_EC2B8ue170006IS1_S1_LPv0EEEOT_OT0_, symObjAddr: 0x120E0, symBinAddr: 0x10001549C, symSize: 0x210 }
  - { offsetInCU: 0xDBBE, offset: 0xDBBE, size: 0x8, addend: 0x0, symName: __ZNKSt3__114__copy_trivialclB8ue170006IxxLi0EEENS_4pairIPT_PT0_EES4_S4_S6_, symObjAddr: 0x13030, symBinAddr: 0x1000163EC, symSize: 0x25C }
  - { offsetInCU: 0xDC2A, offset: 0xDC2A, size: 0x8, addend: 0x0, symName: __ZNSt3__14pairIPxS1_EC1B8ue170006IRS1_S1_LPv0EEEOT_OT0_, symObjAddr: 0x13A3C, symBinAddr: 0x100016DF8, symSize: 0x88 }
  - { offsetInCU: 0xDC88, offset: 0xDC88, size: 0x8, addend: 0x0, symName: __ZNSt3__14pairIPxS1_EC2B8ue170006IRS1_S1_LPv0EEEOT_OT0_, symObjAddr: 0x13AC4, symBinAddr: 0x100016E80, symSize: 0x210 }
  - { offsetInCU: 0xDCE6, offset: 0xDCE6, size: 0x8, addend: 0x0, symName: __ZNSt3__118__unwrap_iter_implIPxLb1EE8__unwrapB8ue170006ES1_, symObjAddr: 0x13CD4, symBinAddr: 0x100017090, symSize: 0x24 }
  - { offsetInCU: 0xDD09, offset: 0xDD09, size: 0x8, addend: 0x0, symName: __ZNSt3__118__unwrap_iter_implIPxLb1EE8__rewrapB8ue170006ES1_S1_, symObjAddr: 0x13CF8, symBinAddr: 0x1000170B4, symSize: 0x13C }
  - { offsetInCU: 0xDD3A, offset: 0xDD3A, size: 0x8, addend: 0x0, symName: __ZNSt3__16vectorINS0_IxNS_9allocatorIxEEEENS1_IS3_EEE21_ConstructTransactionD2B8ue170006Ev, symObjAddr: 0x13E34, symBinAddr: 0x1000171F0, symSize: 0x390 }
  - { offsetInCU: 0xDD64, offset: 0xDD64, size: 0x8, addend: 0x0, symName: __ZNKSt3__16vectorINS0_IxNS_9allocatorIxEEEENS1_IS3_EEE17__annotate_shrinkB8ue170006Em, symObjAddr: 0x141C4, symBinAddr: 0x100017580, symSize: 0x378 }
  - { offsetInCU: 0xDD99, offset: 0xDD99, size: 0x8, addend: 0x0, symName: __ZNSt3__128__exception_guard_exceptionsINS_6vectorINS1_IxNS_9allocatorIxEEEENS2_IS4_EEE16__destroy_vectorEED2B8ue170006Ev, symObjAddr: 0x1453C, symBinAddr: 0x1000178F8, symSize: 0x17C }
  - { offsetInCU: 0xDDC3, offset: 0xDDC3, size: 0x8, addend: 0x0, symName: __ZNSt3__16vectorINS0_IxNS_9allocatorIxEEEENS1_IS3_EEE16__destroy_vectorclB8ue170006Ev, symObjAddr: 0x146B8, symBinAddr: 0x100017A74, symSize: 0x43C }
  - { offsetInCU: 0xDDE9, offset: 0xDDE9, size: 0x8, addend: 0x0, symName: __ZNSt3__16vectorINS0_IxNS_9allocatorIxEEEENS1_IS3_EEE7__clearB8ue170006Ev, symObjAddr: 0x14AF4, symBinAddr: 0x100017EB0, symSize: 0xB0 }
  - { offsetInCU: 0xDE0F, offset: 0xDE0F, size: 0x8, addend: 0x0, symName: __ZNKSt3__16vectorINS0_IxNS_9allocatorIxEEEENS1_IS3_EEE17__annotate_deleteB8ue170006Ev, symObjAddr: 0x14BA4, symBinAddr: 0x100017F60, symSize: 0x388 }
  - { offsetInCU: 0xDE35, offset: 0xDE35, size: 0x8, addend: 0x0, symName: __ZNSt3__116allocator_traitsINS_9allocatorINS_6vectorIxNS1_IxEEEEEEE10deallocateB8ue170006ERS5_PS4_m, symObjAddr: 0x14F2C, symBinAddr: 0x1000182E8, symSize: 0x34 }
  - { offsetInCU: 0xDE77, offset: 0xDE77, size: 0x8, addend: 0x0, symName: __ZNSt3__16vectorINS0_IxNS_9allocatorIxEEEENS1_IS3_EEE22__base_destruct_at_endB8ue170006EPS3_, symObjAddr: 0x14F60, symBinAddr: 0x10001831C, symSize: 0x1FC }
  - { offsetInCU: 0xDEBB, offset: 0xDEBB, size: 0x8, addend: 0x0, symName: __ZNSt3__116allocator_traitsINS_9allocatorINS_6vectorIxNS1_IxEEEEEEE7destroyB8ue170006IS4_vEEvRS5_PT_, symObjAddr: 0x1515C, symBinAddr: 0x100018518, symSize: 0x2C }
  - { offsetInCU: 0xDEF8, offset: 0xDEF8, size: 0x8, addend: 0x0, symName: __ZNSt3__19allocatorINS_6vectorIxNS0_IxEEEEE7destroyB8ue170006EPS3_, symObjAddr: 0x15188, symBinAddr: 0x100018544, symSize: 0x9C }
  - { offsetInCU: 0xDF2C, offset: 0xDF2C, size: 0x8, addend: 0x0, symName: __ZNSt3__19allocatorINS_6vectorIxNS0_IxEEEEE10deallocateB8ue170006EPS3_m, symObjAddr: 0x15224, symBinAddr: 0x1000185E0, symSize: 0x7C }
  - { offsetInCU: 0xDF6E, offset: 0xDF6E, size: 0x8, addend: 0x0, symName: __ZNSt3__16vectorINS0_IxNS_9allocatorIxEEEENS1_IS3_EEED2B8ue170006Ev, symObjAddr: 0x152A0, symBinAddr: 0x10001865C, symSize: 0x294 }
  - { offsetInCU: 0xDFB7, offset: 0xDFB7, size: 0x8, addend: 0x0, symName: __ZNKSt3__113basic_ostreamIcNS_11char_traitsIcEEE6sentrycvbB8ue170006Ev, symObjAddr: 0x16570, symBinAddr: 0x10001992C, symSize: 0x104 }
  - { offsetInCU: 0xDFDD, offset: 0xDFDD, size: 0x8, addend: 0x0, symName: __ZNSt3__119ostreambuf_iteratorIcNS_11char_traitsIcEEEC1B8ue170006ERNS_13basic_ostreamIcS2_EE, symObjAddr: 0x171FC, symBinAddr: 0x10001A5B8, symSize: 0x80 }
  - { offsetInCU: 0xE015, offset: 0xE015, size: 0x8, addend: 0x0, symName: __ZNKSt3__18ios_base5flagsB8ue170006Ev, symObjAddr: 0x1727C, symBinAddr: 0x10001A638, symSize: 0x160 }
  - { offsetInCU: 0xE03D, offset: 0xE03D, size: 0x8, addend: 0x0, symName: __ZNKSt3__19basic_iosIcNS_11char_traitsIcEEE4fillB8ue170006Ev, symObjAddr: 0x173DC, symBinAddr: 0x10001A798, symSize: 0x39C }
  - { offsetInCU: 0xE065, offset: 0xE065, size: 0x8, addend: 0x0, symName: __ZNKSt3__119ostreambuf_iteratorIcNS_11char_traitsIcEEE6failedB8ue170006Ev, symObjAddr: 0x17778, symBinAddr: 0x10001AB34, symSize: 0xB8 }
  - { offsetInCU: 0xE08B, offset: 0xE08B, size: 0x8, addend: 0x0, symName: __ZNSt3__19basic_iosIcNS_11char_traitsIcEEE8setstateB8ue170006Ej, symObjAddr: 0x17830, symBinAddr: 0x10001ABEC, symSize: 0x128 }
  - { offsetInCU: 0xE0C0, offset: 0xE0C0, size: 0x8, addend: 0x0, symName: __ZNKSt3__18ios_base5widthB8ue170006Ev, symObjAddr: 0x17958, symBinAddr: 0x10001AD14, symSize: 0x138 }
  - { offsetInCU: 0xE0E8, offset: 0xE0E8, size: 0x8, addend: 0x0, symName: __ZNSt3__115basic_streambufIcNS_11char_traitsIcEEE5sputnB8ue170006EPKcl, symObjAddr: 0x17A90, symBinAddr: 0x10001AE4C, symSize: 0x198 }
  - { offsetInCU: 0xE12A, offset: 0xE12A, size: 0x8, addend: 0x0, symName: __ZNSt3__112basic_stringIcNS_11char_traitsIcEENS_9allocatorIcEEEC1B8ue170006Emc, symObjAddr: 0x17C28, symBinAddr: 0x10001AFE4, symSize: 0x88 }
  - { offsetInCU: 0xE172, offset: 0xE172, size: 0x8, addend: 0x0, symName: __ZNSt3__112basic_stringIcNS_11char_traitsIcEENS_9allocatorIcEEE4dataB8ue170006Ev, symObjAddr: 0x17CB0, symBinAddr: 0x10001B06C, symSize: 0x70 }
  - { offsetInCU: 0xE198, offset: 0xE198, size: 0x8, addend: 0x0, symName: __ZNSt3__18ios_base5widthB8ue170006El, symObjAddr: 0x17D20, symBinAddr: 0x10001B0DC, symSize: 0x1F8 }
  - { offsetInCU: 0xE1DE, offset: 0xE1DE, size: 0x8, addend: 0x0, symName: __ZNSt3__112basic_stringIcNS_11char_traitsIcEENS_9allocatorIcEEEC2B8ue170006Emc, symObjAddr: 0x17F18, symBinAddr: 0x10001B2D4, symSize: 0x26C }
  - { offsetInCU: 0xE229, offset: 0xE229, size: 0x8, addend: 0x0, symName: __ZNSt3__117__compressed_pairINS_12basic_stringIcNS_11char_traitsIcEENS_9allocatorIcEEE5__repES5_EC1B8ue170006INS_18__default_init_tagESA_EEOT_OT0_, symObjAddr: 0x18184, symBinAddr: 0x10001B540, symSize: 0x88 }
  - { offsetInCU: 0xE281, offset: 0xE281, size: 0x8, addend: 0x0, symName: __ZNSt3__117__compressed_pairINS_12basic_stringIcNS_11char_traitsIcEENS_9allocatorIcEEE5__repES5_EC2B8ue170006INS_18__default_init_tagESA_EEOT_OT0_, symObjAddr: 0x1820C, symBinAddr: 0x10001B5C8, symSize: 0xF4 }
  - { offsetInCU: 0xE2D9, offset: 0xE2D9, size: 0x8, addend: 0x0, symName: __ZNSt3__122__compressed_pair_elemINS_12basic_stringIcNS_11char_traitsIcEENS_9allocatorIcEEE5__repELi0ELb0EEC2B8ue170006ENS_18__default_init_tagE, symObjAddr: 0x18300, symBinAddr: 0x10001B6BC, symSize: 0x6C }
  - { offsetInCU: 0xE30D, offset: 0xE30D, size: 0x8, addend: 0x0, symName: __ZNSt3__122__compressed_pair_elemINS_9allocatorIcEELi1ELb1EEC2B8ue170006ENS_18__default_init_tagE, symObjAddr: 0x1836C, symBinAddr: 0x10001B728, symSize: 0x84 }
  - { offsetInCU: 0xE341, offset: 0xE341, size: 0x8, addend: 0x0, symName: __ZNSt3__19allocatorIcEC2B8ue170006Ev, symObjAddr: 0x183F0, symBinAddr: 0x10001B7AC, symSize: 0x84 }
  - { offsetInCU: 0xE36B, offset: 0xE36B, size: 0x8, addend: 0x0, symName: __ZNSt3__116__non_trivial_ifILb1ENS_9allocatorIcEEEC2B8ue170006Ev, symObjAddr: 0x18474, symBinAddr: 0x10001B830, symSize: 0x54 }
  - { offsetInCU: 0xE395, offset: 0xE395, size: 0x8, addend: 0x0, symName: __ZNSt3__112basic_stringIcNS_11char_traitsIcEENS_9allocatorIcEEE13__get_pointerB8ue170006Ev, symObjAddr: 0x184DC, symBinAddr: 0x10001B898, symSize: 0x98 }
  - { offsetInCU: 0xE3BB, offset: 0xE3BB, size: 0x8, addend: 0x0, symName: __ZNKSt3__112basic_stringIcNS_11char_traitsIcEENS_9allocatorIcEEE9__is_longB8ue170006Ev, symObjAddr: 0x18574, symBinAddr: 0x10001B930, symSize: 0x1FC }
  - { offsetInCU: 0xE3E1, offset: 0xE3E1, size: 0x8, addend: 0x0, symName: __ZNSt3__112basic_stringIcNS_11char_traitsIcEENS_9allocatorIcEEE18__get_long_pointerB8ue170006Ev, symObjAddr: 0x18770, symBinAddr: 0x10001BB2C, symSize: 0x208 }
  - { offsetInCU: 0xE407, offset: 0xE407, size: 0x8, addend: 0x0, symName: __ZNSt3__112basic_stringIcNS_11char_traitsIcEENS_9allocatorIcEEE19__get_short_pointerB8ue170006Ev, symObjAddr: 0x18978, symBinAddr: 0x10001BD34, symSize: 0x1CC }
  - { offsetInCU: 0xE42D, offset: 0xE42D, size: 0x8, addend: 0x0, symName: __ZNKSt3__117__compressed_pairINS_12basic_stringIcNS_11char_traitsIcEENS_9allocatorIcEEE5__repES5_E5firstB8ue170006Ev, symObjAddr: 0x18B44, symBinAddr: 0x10001BF00, symSize: 0x124 }
  - { offsetInCU: 0xE453, offset: 0xE453, size: 0x8, addend: 0x0, symName: __ZNKSt3__122__compressed_pair_elemINS_12basic_stringIcNS_11char_traitsIcEENS_9allocatorIcEEE5__repELi0ELb0EE5__getB8ue170006Ev, symObjAddr: 0x18C68, symBinAddr: 0x10001C024, symSize: 0xAC }
  - { offsetInCU: 0xE479, offset: 0xE479, size: 0x8, addend: 0x0, symName: __ZNSt3__117__compressed_pairINS_12basic_stringIcNS_11char_traitsIcEENS_9allocatorIcEEE5__repES5_E5firstB8ue170006Ev, symObjAddr: 0x18D14, symBinAddr: 0x10001C0D0, symSize: 0x124 }
  - { offsetInCU: 0xE49F, offset: 0xE49F, size: 0x8, addend: 0x0, symName: __ZNSt3__122__compressed_pair_elemINS_12basic_stringIcNS_11char_traitsIcEENS_9allocatorIcEEE5__repELi0ELb0EE5__getB8ue170006Ev, symObjAddr: 0x18E38, symBinAddr: 0x10001C1F4, symSize: 0xAC }
  - { offsetInCU: 0xE4C5, offset: 0xE4C5, size: 0x8, addend: 0x0, symName: __ZNSt3__114pointer_traitsIPcE10pointer_toB8ue170006ERc, symObjAddr: 0x18EE4, symBinAddr: 0x10001C2A0, symSize: 0x14 }
  - { offsetInCU: 0xE4E8, offset: 0xE4E8, size: 0x8, addend: 0x0, symName: __ZNSt3__119ostreambuf_iteratorIcNS_11char_traitsIcEEEC2B8ue170006ERNS_13basic_ostreamIcS2_EE, symObjAddr: 0x18EF8, symBinAddr: 0x10001C2B4, symSize: 0x2E8 }
  - { offsetInCU: 0xE520, offset: 0xE520, size: 0x8, addend: 0x0, symName: __ZNKSt3__19basic_iosIcNS_11char_traitsIcEEE5rdbufB8ue170006Ev, symObjAddr: 0x191E0, symBinAddr: 0x10001C59C, symSize: 0x120 }
  - { offsetInCU: 0xE548, offset: 0xE548, size: 0x8, addend: 0x0, symName: __ZNKSt3__18ios_base5rdbufB8ue170006Ev, symObjAddr: 0x19300, symBinAddr: 0x10001C6BC, symSize: 0x138 }
  - { offsetInCU: 0xE56E, offset: 0xE56E, size: 0x8, addend: 0x0, symName: __ZNSt3__111char_traitsIcE11eq_int_typeB8ue170006Eii, symObjAddr: 0x19438, symBinAddr: 0x10001C7F4, symSize: 0x28 }
  - { offsetInCU: 0xE5A1, offset: 0xE5A1, size: 0x8, addend: 0x0, symName: __ZNSt3__111char_traitsIcE3eofB8ue170006Ev, symObjAddr: 0x19460, symBinAddr: 0x10001C81C, symSize: 0x8 }
  - { offsetInCU: 0xE5B5, offset: 0xE5B5, size: 0x8, addend: 0x0, symName: __ZNKSt3__19basic_iosIcNS_11char_traitsIcEEE5widenB8ue170006Ec, symObjAddr: 0x19468, symBinAddr: 0x10001C824, symSize: 0x47C }
  - { offsetInCU: 0xE620, offset: 0xE620, size: 0x8, addend: 0x0, symName: __ZNKSt3__15ctypeIcE5widenB8ue170006Ec, symObjAddr: 0x19A6C, symBinAddr: 0x10001CE28, symSize: 0x18C }
  - { offsetInCU: 0xE655, offset: 0xE655, size: 0x8, addend: 0x0, symName: __ZNSt3__18ios_base8setstateB8ue170006Ej, symObjAddr: 0x19BF8, symBinAddr: 0x10001CFB4, symSize: 0x1E0 }
...
