---
triple:          'arm64-apple-darwin'
binary-path:     '/Users/eric/Workspace/compprog/usaco/practice/DEC/minimumLongestTripGold.bin'
relocations:
  - { offsetInCU: 0x3B, offset: 0x3B, size: 0x8, addend: 0x0, symName: _.str, symObjAddr: 0x1EA60, symBinAddr: 0x10001F700, symSize: 0x0 }
  - { offsetInCU: 0x6B, offset: 0x6B, size: 0x8, addend: 0x0, symName: _.str.1, symObjAddr: 0x1EA80, symBinAddr: 0x10001F720, symSize: 0x0 }
  - { offsetInCU: 0x7C, offset: 0x7C, size: 0x8, addend: 0x0, symName: _.str.2, symObjAddr: 0x1EAA0, symBinAddr: 0x10001F740, symSize: 0x0 }
  - { offsetInCU: 0x8D, offset: 0x8D, size: 0x8, addend: 0x0, symName: _.str.3, symObjAddr: 0x1A7A0, symBinAddr: 0x10001B420, symSize: 0x0 }
  - { offsetInCU: 0xAA, offset: 0xAA, size: 0x8, addend: 0x0, symName: _.str.4, symObjAddr: 0x1EAC0, symBinAddr: 0x10001F760, symSize: 0x0 }
  - { offsetInCU: 0xBC, offset: 0xBC, size: 0x8, addend: 0x0, symName: _.str.21, symObjAddr: 0x1EAE0, symBinAddr: 0x10001F780, symSize: 0x0 }
  - { offsetInCU: 0xDA, offset: 0xDA, size: 0x8, addend: 0x0, symName: _.str.32, symObjAddr: 0x1EB00, symBinAddr: 0x10001F7A0, symSize: 0x0 }
  - { offsetInCU: 0xB184, offset: 0xB184, size: 0x8, addend: 0x0, symName: __ZNSt3__124__put_character_sequenceB8ue170006IcNS_11char_traitsIcEEEERNS_13basic_ostreamIT_T0_EES7_PKS4_m, symObjAddr: 0x6358, symBinAddr: 0x100006CC8, symSize: 0x910 }
  - { offsetInCU: 0xCA82, offset: 0xCA82, size: 0x8, addend: 0x0, symName: __ZNSt3__113__fill_n_trueB8ue170006INS_6vectorIbNS_9allocatorIbEEEEEEvNS_14__bit_iteratorIT_Lb0EXLi0EEEENS6_9size_typeE, symObjAddr: 0x18660, symBinAddr: 0x100018FD0, symSize: 0x698 }
  - { offsetInCU: 0xCB7D, offset: 0xCB7D, size: 0x8, addend: 0x0, symName: __ZNSt3__114__fill_n_falseB8ue170006INS_6vectorIbNS_9allocatorIbEEEEEEvNS_14__bit_iteratorIT_Lb0EXLi0EEEENS6_9size_typeE, symObjAddr: 0x18CF8, symBinAddr: 0x100019668, symSize: 0x694 }
  - { offsetInCU: 0xD8C2, offset: 0xD8C2, size: 0x8, addend: 0x0, symName: __ZNSt3__1lsB8ue170006IcNS_11char_traitsIcEENS_9allocatorIcEEEERNS_13basic_ostreamIT_T0_EES9_RKNS_12basic_stringIS6_S7_T1_EE, symObjAddr: 0xB8C, symBinAddr: 0x1000014FC, symSize: 0x48 }
  - { offsetInCU: 0xD97C, offset: 0xD97C, size: 0x8, addend: 0x0, symName: __ZNSt3__1neB8ue170006ERKNS_14__bit_iteratorINS_6vectorIbNS_9allocatorIbEEEELb0ELm0EEES7_, symObjAddr: 0x1104, symBinAddr: 0x100001A74, symSize: 0xC4 }
  - { offsetInCU: 0xDA82, offset: 0xDA82, size: 0x8, addend: 0x0, symName: __ZNSt3__1eqB8ue170006IPNS_4pairIiyEEEEbRKNS_11__wrap_iterIT_EES8_, symObjAddr: 0x6234, symBinAddr: 0x100006BA4, symSize: 0x58 }
  - { offsetInCU: 0xDADF, offset: 0xDADF, size: 0x8, addend: 0x0, symName: __ZNSt3__116__pad_and_outputB8ue170006IcNS_11char_traitsIcEEEENS_19ostreambuf_iteratorIT_T0_EES6_PKS4_S8_S8_RNS_8ios_baseES4_, symObjAddr: 0x6C68, symBinAddr: 0x1000075D8, symSize: 0x800 }
  - { offsetInCU: 0xDD3E, offset: 0xDD3E, size: 0x8, addend: 0x0, symName: __ZNSt3__120__throw_length_errorB8ue170006EPKc, symObjAddr: 0x7AC4, symBinAddr: 0x100008434, symSize: 0x78 }
  - { offsetInCU: 0xE21B, offset: 0xE21B, size: 0x8, addend: 0x0, symName: __ZNSt3__19use_facetB8ue170006INS_5ctypeIcEEEERKT_RKNS_6localeE, symObjAddr: 0x8614, symBinAddr: 0x100008F84, symSize: 0x100 }
  - { offsetInCU: 0xE276, offset: 0xE276, size: 0x8, addend: 0x0, symName: __ZNSt3__119__allocate_at_leastB8ue170006INS_9allocatorINS_6vectorINS_4pairIiyEENS1_IS4_EEEEEEEENS_19__allocation_resultINS_16allocator_traitsIT_E7pointerEEERSA_m, symObjAddr: 0x9678, symBinAddr: 0x100009FE8, symSize: 0x54 }
  - { offsetInCU: 0xE44F, offset: 0xE44F, size: 0x8, addend: 0x0, symName: __ZNSt3__142__uninitialized_allocator_move_if_noexceptB8ue170006INS_9allocatorINS_4pairIiyEEEENS_16reverse_iteratorIPS3_EES7_S7_EET2_RT_T0_T1_S8_, symObjAddr: 0xDA90, symBinAddr: 0x10000E400, symSize: 0x424 }
  - { offsetInCU: 0xE66B, offset: 0xE66B, size: 0x8, addend: 0x0, symName: __ZNSt3__119__allocate_at_leastB8ue170006INS_9allocatorINS_4pairIiyEEEEEENS_19__allocation_resultINS_16allocator_traitsIT_E7pointerEEERS7_m, symObjAddr: 0xD714, symBinAddr: 0x10000E084, symSize: 0x44 }
  - { offsetInCU: 0xE7B7, offset: 0xE7B7, size: 0x8, addend: 0x0, symName: __ZNSt3__119__allocator_destroyB8ue170006INS_9allocatorINS_4pairIiyEEEENS_16reverse_iteratorINS5_IPS3_EEEES8_EEvRT_T0_T1_, symObjAddr: 0xE61C, symBinAddr: 0x10000EF8C, symSize: 0x140 }
  - { offsetInCU: 0xE954, offset: 0xE954, size: 0x8, addend: 0x0, symName: __ZNSt3__112__to_addressB8ue170006INS_16reverse_iteratorINS1_IPNS_4pairIiyEEEEEEvEEu7__decayIDTclsr19__to_address_helperIT_EE6__callclsr3stdE7declvalIRKS7_EEEEES9_, symObjAddr: 0xE75C, symBinAddr: 0x10000F0CC, symSize: 0x2C }
  - { offsetInCU: 0xE9CD, offset: 0xE9CD, size: 0x8, addend: 0x0, symName: __ZNSt3__119__allocate_at_leastB8ue170006INS_9allocatorIiEEEENS_19__allocation_resultINS_16allocator_traitsIT_E7pointerEEERS5_m, symObjAddr: 0xF910, symBinAddr: 0x100010280, symSize: 0x44 }
  - { offsetInCU: 0xEA90, offset: 0xEA90, size: 0x8, addend: 0x0, symName: __ZNSt3__119__allocate_at_leastB8ue170006INS_9allocatorIxEEEENS_19__allocation_resultINS_16allocator_traitsIT_E7pointerEEERS5_m, symObjAddr: 0x11A64, symBinAddr: 0x1000123D4, symSize: 0x44 }
  - { offsetInCU: 0xEB53, offset: 0xEB53, size: 0x8, addend: 0x0, symName: __ZNSt3__119__allocate_at_leastB8ue170006INS_9allocatorINS_5arrayIyLm20EEEEEEENS_19__allocation_resultINS_16allocator_traitsIT_E7pointerEEERS7_m, symObjAddr: 0x13BD0, symBinAddr: 0x100014540, symSize: 0x54 }
  - { offsetInCU: 0xEC16, offset: 0xEC16, size: 0x8, addend: 0x0, symName: __ZNSt3__119__allocate_at_leastB8ue170006INS_9allocatorINS_5arrayIiLm20EEEEEEENS_19__allocation_resultINS_16allocator_traitsIT_E7pointerEEERS7_m, symObjAddr: 0x15E2C, symBinAddr: 0x10001679C, symSize: 0x54 }
  - { offsetInCU: 0xECB4, offset: 0xECB4, size: 0x8, addend: 0x0, symName: __ZNSt3__119__allocate_at_leastB8ue170006INS_9allocatorImEEEENS_19__allocation_resultINS_16allocator_traitsIT_E7pointerEEERS5_m, symObjAddr: 0x17F94, symBinAddr: 0x100018904, symSize: 0x44 }
  - { offsetInCU: 0xED52, offset: 0xED52, size: 0x8, addend: 0x0, symName: __ZNSt3__16fill_nB8ue170006INS_6vectorIbNS_9allocatorIbEEEEEEvNS_14__bit_iteratorIT_Lb0EXLi0EEEENS6_9size_typeEb, symObjAddr: 0x1839C, symBinAddr: 0x100018D0C, symSize: 0x2C4 }
  - { offsetInCU: 0xF5ED, offset: 0xF5ED, size: 0x8, addend: 0x0, symName: __ZSt28__throw_bad_array_new_lengthB8ue170006v, symObjAddr: 0x7CB4, symBinAddr: 0x100008624, symSize: 0x5C }
  - { offsetInCU: 0xF9AE, offset: 0xF9AE, size: 0x8, addend: 0x0, symName: _main, symObjAddr: 0x1534, symBinAddr: 0x100001EA4, symSize: 0x1240 }
  - { offsetInCU: 0x10C1E, offset: 0x10C1E, size: 0x8, addend: 0x0, symName: __ZNSt3__16vectorINS_4pairIiyEENS_9allocatorIS2_EEE26__swap_out_circular_bufferERNS_14__split_bufferIS2_RS4_EE, symObjAddr: 0xCF00, symBinAddr: 0x10000D870, symSize: 0x2E8 }
  - { offsetInCU: 0x13471, offset: 0x13471, size: 0x8, addend: 0x0, symName: __ZN14__DEBUG_UTIL__5printEPKc, symObjAddr: 0x0, symBinAddr: 0x100000970, symSize: 0x30 }
  - { offsetInCU: 0x134FD, offset: 0x134FD, size: 0x8, addend: 0x0, symName: __ZN14__DEBUG_UTIL__5printEb, symObjAddr: 0x30, symBinAddr: 0x1000009A0, symSize: 0x28 }
  - { offsetInCU: 0x13558, offset: 0x13558, size: 0x8, addend: 0x0, symName: __ZN14__DEBUG_UTIL__5printEc, symObjAddr: 0x58, symBinAddr: 0x1000009C8, symSize: 0x21C }
  - { offsetInCU: 0x1362F, offset: 0x1362F, size: 0x8, addend: 0x0, symName: __ZN14__DEBUG_UTIL__5printEs, symObjAddr: 0x274, symBinAddr: 0x100000BE4, symSize: 0xA8 }
  - { offsetInCU: 0x13659, offset: 0x13659, size: 0x8, addend: 0x0, symName: __ZN14__DEBUG_UTIL__5printEt, symObjAddr: 0x31C, symBinAddr: 0x100000C8C, symSize: 0xA8 }
  - { offsetInCU: 0x13683, offset: 0x13683, size: 0x8, addend: 0x0, symName: __ZN14__DEBUG_UTIL__5printEi, symObjAddr: 0x3C4, symBinAddr: 0x100000D34, symSize: 0xA8 }
  - { offsetInCU: 0x136AD, offset: 0x136AD, size: 0x8, addend: 0x0, symName: __ZN14__DEBUG_UTIL__5printEj, symObjAddr: 0x46C, symBinAddr: 0x100000DDC, symSize: 0xA8 }
  - { offsetInCU: 0x136D7, offset: 0x136D7, size: 0x8, addend: 0x0, symName: __ZN14__DEBUG_UTIL__5printEl, symObjAddr: 0x514, symBinAddr: 0x100000E84, symSize: 0xA8 }
  - { offsetInCU: 0x13701, offset: 0x13701, size: 0x8, addend: 0x0, symName: __ZN14__DEBUG_UTIL__5printEm, symObjAddr: 0x5BC, symBinAddr: 0x100000F2C, symSize: 0xA8 }
  - { offsetInCU: 0x1372B, offset: 0x1372B, size: 0x8, addend: 0x0, symName: __ZN14__DEBUG_UTIL__5printEx, symObjAddr: 0x664, symBinAddr: 0x100000FD4, symSize: 0xA8 }
  - { offsetInCU: 0x13755, offset: 0x13755, size: 0x8, addend: 0x0, symName: __ZN14__DEBUG_UTIL__5printEy, symObjAddr: 0x70C, symBinAddr: 0x10000107C, symSize: 0xA8 }
  - { offsetInCU: 0x1377F, offset: 0x1377F, size: 0x8, addend: 0x0, symName: __ZN14__DEBUG_UTIL__5printEf, symObjAddr: 0x7B4, symBinAddr: 0x100001124, symSize: 0xA0 }
  - { offsetInCU: 0x137A9, offset: 0x137A9, size: 0x8, addend: 0x0, symName: __ZN14__DEBUG_UTIL__5printEd, symObjAddr: 0x854, symBinAddr: 0x1000011C4, symSize: 0xA0 }
  - { offsetInCU: 0x137D3, offset: 0x137D3, size: 0x8, addend: 0x0, symName: __ZN14__DEBUG_UTIL__5printEe, symObjAddr: 0x8F4, symBinAddr: 0x100001264, symSize: 0xA0 }
  - { offsetInCU: 0x137FD, offset: 0x137FD, size: 0x8, addend: 0x0, symName: __ZN14__DEBUG_UTIL__5printENSt3__112basic_stringIcNS0_11char_traitsIcEENS0_9allocatorIcEEEE, symObjAddr: 0x994, symBinAddr: 0x100001304, symSize: 0x1F8 }
  - { offsetInCU: 0x138A8, offset: 0x138A8, size: 0x8, addend: 0x0, symName: __ZN14__DEBUG_UTIL__5printENSt3__16vectorIbNS0_9allocatorIbEEEE, symObjAddr: 0xBD4, symBinAddr: 0x100001544, symSize: 0x4E4 }
  - { offsetInCU: 0x13B1A, offset: 0x13B1A, size: 0x8, addend: 0x0, symName: __ZN14__DEBUG_UTIL__7printerEPKc, symObjAddr: 0x1518, symBinAddr: 0x100001E88, symSize: 0x4 }
  - { offsetInCU: 0x13B3F, offset: 0x13B3F, size: 0x8, addend: 0x0, symName: __ZN14__DEBUG_UTIL__10printerArrEPKc, symObjAddr: 0x151C, symBinAddr: 0x100001E8C, symSize: 0x4 }
  - { offsetInCU: 0x13B9A, offset: 0x13B9A, size: 0x8, addend: 0x0, symName: __ZNKSt3__112basic_stringIcNS_11char_traitsIcEENS_9allocatorIcEEE13__get_pointerB8ue170006Ev, symObjAddr: 0x890C, symBinAddr: 0x10000927C, symSize: 0x5C }
  - { offsetInCU: 0x13BFD, offset: 0x13BFD, size: 0x8, addend: 0x0, symName: __ZNKSt3__112basic_stringIcNS_11char_traitsIcEENS_9allocatorIcEEE4sizeB8ue170006Ev, symObjAddr: 0x88B0, symBinAddr: 0x100009220, symSize: 0x5C }
  - { offsetInCU: 0x13D1E, offset: 0x13D1E, size: 0x8, addend: 0x0, symName: __ZNKSt3__114__bit_iteratorINS_6vectorIbNS_9allocatorIbEEEELb0ELm0EEdeB8ue170006Ev, symObjAddr: 0x11C8, symBinAddr: 0x100001B38, symSize: 0xCC }
  - { offsetInCU: 0x13D45, offset: 0x13D45, size: 0x8, addend: 0x0, symName: __ZNKSt3__115__bit_referenceINS_6vectorIbNS_9allocatorIbEEEELb1EEcvbB8ue170006Ev, symObjAddr: 0x1294, symBinAddr: 0x100001C04, symSize: 0xE4 }
  - { offsetInCU: 0x13D6C, offset: 0x13D6C, size: 0x8, addend: 0x0, symName: __ZNSt3__114__bit_iteratorINS_6vectorIbNS_9allocatorIbEEEELb0ELm0EEppB8ue170006Ev, symObjAddr: 0x1378, symBinAddr: 0x100001CE8, symSize: 0x1A0 }
  - { offsetInCU: 0x13D93, offset: 0x13D93, size: 0x8, addend: 0x0, symName: __ZNSt3__16vectorIbNS_9allocatorIbEEE5beginB8ue170006Ev, symObjAddr: 0x10B8, symBinAddr: 0x100001A28, symSize: 0x4C }
  - { offsetInCU: 0x13DC8, offset: 0x13DC8, size: 0x8, addend: 0x0, symName: __ZNSt3__16vectorIbNS_9allocatorIbEEE11__make_iterB8ue170006Em, symObjAddr: 0x8B70, symBinAddr: 0x1000094E0, symSize: 0x168 }
  - { offsetInCU: 0x13E45, offset: 0x13E45, size: 0x8, addend: 0x0, symName: __Z8hash_addyy, symObjAddr: 0x1520, symBinAddr: 0x100001E90, symSize: 0x14 }
  - { offsetInCU: 0x143B3, offset: 0x143B3, size: 0x8, addend: 0x0, symName: __ZNSt3__19basic_iosIcNS_11char_traitsIcEEE3tieB8ue170006EPNS_13basic_ostreamIcS2_EE, symObjAddr: 0x2774, symBinAddr: 0x1000030E4, symSize: 0x1A0 }
  - { offsetInCU: 0x143FC, offset: 0x143FC, size: 0x8, addend: 0x0, symName: __ZNSt3__16vectorINS0_INS_4pairIiyEENS_9allocatorIS2_EEEENS3_IS5_EEEC2Em, symObjAddr: 0x8CD8, symBinAddr: 0x100009648, symSize: 0x338 }
  - { offsetInCU: 0x1455A, offset: 0x1455A, size: 0x8, addend: 0x0, symName: __ZNSt3__16vectorINS_4pairIiyEENS_9allocatorIS2_EEE12emplace_backIJRiRyEEERS2_DpOT_, symObjAddr: 0x2914, symBinAddr: 0x100003284, symSize: 0xC0 }
  - { offsetInCU: 0x145F5, offset: 0x145F5, size: 0x8, addend: 0x0, symName: __ZNSt3__16vectorIiNS_9allocatorIiEEEC2Em, symObjAddr: 0xEF80, symBinAddr: 0x10000F8F0, symSize: 0x338 }
  - { offsetInCU: 0x1474D, offset: 0x1474D, size: 0x8, addend: 0x0, symName: __ZNSt3__16vectorIxNS_9allocatorIxEEEC2Em, symObjAddr: 0x110D4, symBinAddr: 0x100011A44, symSize: 0x338 }
  - { offsetInCU: 0x148A5, offset: 0x148A5, size: 0x8, addend: 0x0, symName: __ZNSt3__16vectorINS_5arrayIyLm20EEENS_9allocatorIS2_EEEC2Em, symObjAddr: 0x13228, symBinAddr: 0x100013B98, symSize: 0x338 }
  - { offsetInCU: 0x149FD, offset: 0x149FD, size: 0x8, addend: 0x0, symName: __ZNSt3__16vectorINS_5arrayIiLm20EEENS_9allocatorIS2_EEEC2Em, symObjAddr: 0x15484, symBinAddr: 0x100015DF4, symSize: 0x338 }
  - { offsetInCU: 0x14B55, offset: 0x14B55, size: 0x8, addend: 0x0, symName: __ZNSt3__16vectorIbNS_9allocatorIbEEEC2Em, symObjAddr: 0x176E0, symBinAddr: 0x100018050, symSize: 0x20C }
  - { offsetInCU: 0x14C04, offset: 0x14C04, size: 0x8, addend: 0x0, symName: '__ZN12ycomb_resultIZ4mainE3$_0EclIJRiEEEDcDpOT_', symObjAddr: 0x29D4, symBinAddr: 0x100003344, symSize: 0x2A94 }
  - { offsetInCU: 0x1552B, offset: 0x1552B, size: 0x8, addend: 0x0, symName: __ZNSt3__16vectorIbNS_9allocatorIbEEE16__destroy_vectorclB8ue170006Ev, symObjAddr: 0x1938C, symBinAddr: 0x100019CFC, symSize: 0x194 }
  - { offsetInCU: 0x1561A, offset: 0x1561A, size: 0x8, addend: 0x0, symName: __ZNSt3__16vectorINS_5arrayIiLm20EEENS_9allocatorIS2_EEE16__destroy_vectorclB8ue170006Ev, symObjAddr: 0x17120, symBinAddr: 0x100017A90, symSize: 0x240 }
  - { offsetInCU: 0x15748, offset: 0x15748, size: 0x8, addend: 0x0, symName: __ZNSt3__16vectorINS_5arrayIyLm20EEENS_9allocatorIS2_EEE16__destroy_vectorclB8ue170006Ev, symObjAddr: 0x14EC4, symBinAddr: 0x100015834, symSize: 0x240 }
  - { offsetInCU: 0x15876, offset: 0x15876, size: 0x8, addend: 0x0, symName: __ZNSt3__16vectorIxNS_9allocatorIxEEE16__destroy_vectorclB8ue170006Ev, symObjAddr: 0x12C90, symBinAddr: 0x100013600, symSize: 0x240 }
  - { offsetInCU: 0x159A4, offset: 0x159A4, size: 0x8, addend: 0x0, symName: __ZNSt3__16vectorIiNS_9allocatorIiEEE16__destroy_vectorclB8ue170006Ev, symObjAddr: 0x10B3C, symBinAddr: 0x1000114AC, symSize: 0x240 }
  - { offsetInCU: 0x15AD2, offset: 0x15AD2, size: 0x8, addend: 0x0, symName: __ZNSt3__16vectorINS0_INS_4pairIiyEENS_9allocatorIS2_EEEENS3_IS5_EEE16__destroy_vectorclB8ue170006Ev, symObjAddr: 0xAC9C, symBinAddr: 0x10000B60C, symSize: 0x240 }
  - { offsetInCU: 0x15C00, offset: 0x15C00, size: 0x8, addend: 0x0, symName: __ZNSt3__16vectorIbNS_9allocatorIbEEED1B8ue170006Ev, symObjAddr: 0x5468, symBinAddr: 0x100005DD8, symSize: 0x1A0 }
  - { offsetInCU: 0x15C62, offset: 0x15C62, size: 0x8, addend: 0x0, symName: __ZNSt3__16vectorINS_5arrayIiLm20EEENS_9allocatorIS2_EEED1B8ue170006Ev, symObjAddr: 0x5608, symBinAddr: 0x100005F78, symSize: 0x1A0 }
  - { offsetInCU: 0x15CC4, offset: 0x15CC4, size: 0x8, addend: 0x0, symName: __ZNSt3__16vectorINS_5arrayIyLm20EEENS_9allocatorIS2_EEED1B8ue170006Ev, symObjAddr: 0x57A8, symBinAddr: 0x100006118, symSize: 0x1A0 }
  - { offsetInCU: 0x15D26, offset: 0x15D26, size: 0x8, addend: 0x0, symName: __ZNSt3__16vectorIxNS_9allocatorIxEEED1B8ue170006Ev, symObjAddr: 0x5948, symBinAddr: 0x1000062B8, symSize: 0x1A0 }
  - { offsetInCU: 0x15D88, offset: 0x15D88, size: 0x8, addend: 0x0, symName: __ZNSt3__16vectorIiNS_9allocatorIiEEED1B8ue170006Ev, symObjAddr: 0x5AE8, symBinAddr: 0x100006458, symSize: 0x1A0 }
  - { offsetInCU: 0x15DEA, offset: 0x15DEA, size: 0x8, addend: 0x0, symName: __ZNSt3__16vectorINS0_INS_4pairIiyEENS_9allocatorIS2_EEEENS3_IS5_EEED1B8ue170006Ev, symObjAddr: 0x5C88, symBinAddr: 0x1000065F8, symSize: 0x1A0 }
  - { offsetInCU: 0x15E4C, offset: 0x15E4C, size: 0x8, addend: 0x0, symName: __ZNSt3__16vectorINS_4pairIiyEENS_9allocatorIS2_EEE9__end_capB8ue170006Ev, symObjAddr: 0xBCEC, symBinAddr: 0x10000C65C, symSize: 0x70 }
  - { offsetInCU: 0x15E7C, offset: 0x15E7C, size: 0x8, addend: 0x0, symName: __ZNSt3__16vectorINS_4pairIiyEENS_9allocatorIS2_EEE22__construct_one_at_endB8ue170006IJRiRyEEEvDpOT_, symObjAddr: 0xBD5C, symBinAddr: 0x10000C6CC, symSize: 0x298 }
  - { offsetInCU: 0x15FEC, offset: 0x15FEC, size: 0x8, addend: 0x0, symName: __ZNSt3__16vectorINS_4pairIiyEENS_9allocatorIS2_EEE24__emplace_back_slow_pathIJRiRyEEEvDpOT_, symObjAddr: 0xBFF4, symBinAddr: 0x10000C964, symSize: 0x2D0 }
  - { offsetInCU: 0x161B5, offset: 0x161B5, size: 0x8, addend: 0x0, symName: __ZNSt3__16vectorINS_4pairIiyEENS_9allocatorIS2_EEE4backB8ue170006Ev, symObjAddr: 0xC2C4, symBinAddr: 0x10000CC34, symSize: 0xC0 }
  - { offsetInCU: 0x16488, offset: 0x16488, size: 0x8, addend: 0x0, symName: __ZNKSt3__16vectorINS_4pairIiyEENS_9allocatorIS2_EEE4sizeB8ue170006Ev, symObjAddr: 0x5E28, symBinAddr: 0x100006798, symSize: 0x8C }
  - { offsetInCU: 0x164AF, offset: 0x164AF, size: 0x8, addend: 0x0, symName: __ZNSt3__15arrayIiLm20EEixB8ue170006Em, symObjAddr: 0x6064, symBinAddr: 0x1000069D4, symSize: 0xE8 }
  - { offsetInCU: 0x164DA, offset: 0x164DA, size: 0x8, addend: 0x0, symName: __ZNSt3__15arrayIyLm20EEixB8ue170006Em, symObjAddr: 0x614C, symBinAddr: 0x100006ABC, symSize: 0xE8 }
  - { offsetInCU: 0x16505, offset: 0x16505, size: 0x8, addend: 0x0, symName: __ZNSt3__16vectorIbNS_9allocatorIbEEE10__make_refB8ue170006Em, symObjAddr: 0x628C, symBinAddr: 0x100006BFC, symSize: 0xCC }
  - { offsetInCU: 0x1653C, offset: 0x1653C, size: 0x8, addend: 0x0, symName: __ZNSt3__115__bit_referenceINS_6vectorIbNS_9allocatorIbEEEELb1EEaSB8ue170006Eb, symObjAddr: 0x5EB4, symBinAddr: 0x100006824, symSize: 0x1B0 }
  - { offsetInCU: 0x1660A, offset: 0x1660A, size: 0x8, addend: 0x0, symName: __ZNSt3__119ostreambuf_iteratorIcNS_11char_traitsIcEEEC2B8ue170006ERNS_13basic_ostreamIcS2_EE, symObjAddr: 0x7F5C, symBinAddr: 0x1000088CC, symSize: 0x298 }
  - { offsetInCU: 0x16667, offset: 0x16667, size: 0x8, addend: 0x0, symName: __ZNKSt3__19basic_iosIcNS_11char_traitsIcEEE4fillB8ue170006Ev, symObjAddr: 0x7468, symBinAddr: 0x100007DD8, symSize: 0x248 }
  - { offsetInCU: 0x166AA, offset: 0x166AA, size: 0x8, addend: 0x0, symName: __ZNSt3__19basic_iosIcNS_11char_traitsIcEEE8setstateB8ue170006Ej, symObjAddr: 0x76B0, symBinAddr: 0x100008020, symSize: 0xFC }
  - { offsetInCU: 0x167B9, offset: 0x167B9, size: 0x8, addend: 0x0, symName: __ZNSt3__117__compressed_pairINS_12basic_stringIcNS_11char_traitsIcEENS_9allocatorIcEEE5__repES5_EC1B8ue170006INS_18__default_init_tagESA_EEOT_OT0_, symObjAddr: 0x7958, symBinAddr: 0x1000082C8, symSize: 0x98 }
  - { offsetInCU: 0x16856, offset: 0x16856, size: 0x8, addend: 0x0, symName: __ZNSt3__112basic_stringIcNS_11char_traitsIcEENS_9allocatorIcEEE13__get_pointerB8ue170006Ev, symObjAddr: 0x7D10, symBinAddr: 0x100008680, symSize: 0x5C }
  - { offsetInCU: 0x168B9, offset: 0x168B9, size: 0x8, addend: 0x0, symName: __ZNSt3__18ios_base5widthB8ue170006El, symObjAddr: 0x77B8, symBinAddr: 0x100008128, symSize: 0x1A0 }
  - { offsetInCU: 0x16902, offset: 0x16902, size: 0x8, addend: 0x0, symName: __ZNKSt3__19basic_iosIcNS_11char_traitsIcEEE5widenB8ue170006Ec, symObjAddr: 0x82D4, symBinAddr: 0x100008C44, symSize: 0x340 }
  - { offsetInCU: 0x16985, offset: 0x16985, size: 0x8, addend: 0x0, symName: __ZNSt3__18ios_base8setstateB8ue170006Ej, symObjAddr: 0x8714, symBinAddr: 0x100009084, symSize: 0x19C }
  - { offsetInCU: 0x16A22, offset: 0x16A22, size: 0x8, addend: 0x0, symName: __ZNSt3__122__compressed_pair_elemINS_9allocatorIcEELi1ELb1EEC2B8ue170006ENS_18__default_init_tagE, symObjAddr: 0x79F0, symBinAddr: 0x100008360, symSize: 0x7C }
  - { offsetInCU: 0x16AD1, offset: 0x16AD1, size: 0x8, addend: 0x0, symName: __ZNSt3__112basic_stringIcNS_11char_traitsIcEENS_9allocatorIcEEE19__get_short_pointerB8ue170006Ev, symObjAddr: 0x7A6C, symBinAddr: 0x1000083DC, symSize: 0x58 }
  - { offsetInCU: 0x16B06, offset: 0x16B06, size: 0x8, addend: 0x0, symName: __ZNSt3__117__compressed_pairINS_12basic_stringIcNS_11char_traitsIcEENS_9allocatorIcEEE5__repES5_E5firstB8ue170006Ev, symObjAddr: 0x7BE8, symBinAddr: 0x100008558, symSize: 0xCC }
  - { offsetInCU: 0x16B4A, offset: 0x16B4A, size: 0x8, addend: 0x0, symName: __ZNSt12length_errorC1B8ue170006EPKc, symObjAddr: 0x7B3C, symBinAddr: 0x1000084AC, symSize: 0xAC }
  - { offsetInCU: 0x16BE4, offset: 0x16BE4, size: 0x8, addend: 0x0, symName: __ZNKSt3__112basic_stringIcNS_11char_traitsIcEENS_9allocatorIcEEE9__is_longB8ue170006Ev, symObjAddr: 0x7D6C, symBinAddr: 0x1000086DC, symSize: 0x9C }
  - { offsetInCU: 0x16C18, offset: 0x16C18, size: 0x8, addend: 0x0, symName: __ZNSt3__112basic_stringIcNS_11char_traitsIcEENS_9allocatorIcEEE18__get_long_pointerB8ue170006Ev, symObjAddr: 0x7E08, symBinAddr: 0x100008778, symSize: 0x88 }
  - { offsetInCU: 0x16C4C, offset: 0x16C4C, size: 0x8, addend: 0x0, symName: __ZNKSt3__117__compressed_pairINS_12basic_stringIcNS_11char_traitsIcEENS_9allocatorIcEEE5__repES5_E5firstB8ue170006Ev, symObjAddr: 0x7E90, symBinAddr: 0x100008800, symSize: 0xCC }
  - { offsetInCU: 0x16CCA, offset: 0x16CCA, size: 0x8, addend: 0x0, symName: __ZNKSt3__18ios_base5rdbufB8ue170006Ev, symObjAddr: 0x81F4, symBinAddr: 0x100008B64, symSize: 0xE0 }
  - { offsetInCU: 0x16D57, offset: 0x16D57, size: 0x8, addend: 0x0, symName: __ZNKSt3__112basic_stringIcNS_11char_traitsIcEENS_9allocatorIcEEE15__get_long_sizeB8ue170006Ev, symObjAddr: 0x8A48, symBinAddr: 0x1000093B8, symSize: 0x8C }
  - { offsetInCU: 0x16D8B, offset: 0x16D8B, size: 0x8, addend: 0x0, symName: __ZNKSt3__112basic_stringIcNS_11char_traitsIcEENS_9allocatorIcEEE16__get_short_sizeB8ue170006Ev, symObjAddr: 0x8AD4, symBinAddr: 0x100009444, symSize: 0x9C }
  - { offsetInCU: 0x16DBF, offset: 0x16DBF, size: 0x8, addend: 0x0, symName: __ZNKSt3__112basic_stringIcNS_11char_traitsIcEENS_9allocatorIcEEE18__get_long_pointerB8ue170006Ev, symObjAddr: 0x8968, symBinAddr: 0x1000092D8, symSize: 0x88 }
  - { offsetInCU: 0x16DF3, offset: 0x16DF3, size: 0x8, addend: 0x0, symName: __ZNKSt3__112basic_stringIcNS_11char_traitsIcEENS_9allocatorIcEEE19__get_short_pointerB8ue170006Ev, symObjAddr: 0x89F0, symBinAddr: 0x100009360, symSize: 0x58 }
  - { offsetInCU: 0x16EF0, offset: 0x16EF0, size: 0x8, addend: 0x0, symName: __ZNSt3__117__compressed_pairIPNS_6vectorINS_4pairIiyEENS_9allocatorIS3_EEEENS4_IS6_EEEC2B8ue170006IDnNS_18__default_init_tagEEEOT_OT0_, symObjAddr: 0x9508, symBinAddr: 0x100009E78, symSize: 0xB0 }
  - { offsetInCU: 0x16F6F, offset: 0x16F6F, size: 0x8, addend: 0x0, symName: __ZNSt3__16vectorINS0_INS_4pairIiyEENS_9allocatorIS2_EEEENS3_IS5_EEE11__vallocateB8ue170006Em, symObjAddr: 0x9010, symBinAddr: 0x100009980, symSize: 0x1BC }
  - { offsetInCU: 0x1705A, offset: 0x1705A, size: 0x8, addend: 0x0, symName: __ZNSt3__16vectorINS0_INS_4pairIiyEENS_9allocatorIS2_EEEENS3_IS5_EEE18__construct_at_endEm, symObjAddr: 0x91CC, symBinAddr: 0x100009B3C, symSize: 0x2F4 }
  - { offsetInCU: 0x171AA, offset: 0x171AA, size: 0x8, addend: 0x0, symName: __ZNSt3__128__exception_guard_exceptionsINS_6vectorINS1_INS_4pairIiyEENS_9allocatorIS3_EEEENS4_IS6_EEE16__destroy_vectorEED2B8ue170006Ev, symObjAddr: 0xABB8, symBinAddr: 0x10000B528, symSize: 0xE4 }
  - { offsetInCU: 0x171E9, offset: 0x171E9, size: 0x8, addend: 0x0, symName: __ZNSt3__128__exception_guard_exceptionsINS_6vectorINS1_INS_4pairIiyEENS_9allocatorIS3_EEEENS4_IS6_EEE16__destroy_vectorEED1B8ue170006Ev, symObjAddr: 0x94C0, symBinAddr: 0x100009E30, symSize: 0x48 }
  - { offsetInCU: 0x1724D, offset: 0x1724D, size: 0x8, addend: 0x0, symName: __ZNKSt3__16vectorINS0_INS_4pairIiyEENS_9allocatorIS2_EEEENS3_IS5_EEE7__allocB8ue170006Ev, symObjAddr: 0x99E4, symBinAddr: 0x10000A354, symSize: 0x70 }
  - { offsetInCU: 0x17282, offset: 0x17282, size: 0x8, addend: 0x0, symName: __ZNSt3__16vectorINS0_INS_4pairIiyEENS_9allocatorIS2_EEEENS3_IS5_EEE7__allocB8ue170006Ev, symObjAddr: 0x96CC, symBinAddr: 0x10000A03C, symSize: 0x70 }
  - { offsetInCU: 0x172B2, offset: 0x172B2, size: 0x8, addend: 0x0, symName: __ZNSt3__117__compressed_pairIPNS_6vectorINS_4pairIiyEENS_9allocatorIS3_EEEENS4_IS6_EEE5firstB8ue170006Ev, symObjAddr: 0x9BFC, symBinAddr: 0x10000A56C, symSize: 0xCC }
  - { offsetInCU: 0x172F6, offset: 0x172F6, size: 0x8, addend: 0x0, symName: __ZNKSt3__16vectorINS0_INS_4pairIiyEENS_9allocatorIS2_EEEENS3_IS5_EEE14__annotate_newB8ue170006Em, symObjAddr: 0x973C, symBinAddr: 0x10000A0AC, symSize: 0x2A8 }
  - { offsetInCU: 0x173EC, offset: 0x173EC, size: 0x8, addend: 0x0, symName: __ZNKSt3__16vectorINS0_INS_4pairIiyEENS_9allocatorIS2_EEEENS3_IS5_EEE20__throw_length_errorB8ue170006Ev, symObjAddr: 0x9634, symBinAddr: 0x100009FA4, symSize: 0x44 }
  - { offsetInCU: 0x17508, offset: 0x17508, size: 0x8, addend: 0x0, symName: __ZNSt3__16vectorINS0_INS_4pairIiyEENS_9allocatorIS2_EEEENS3_IS5_EEE21_ConstructTransactionC2B8ue170006ERS7_m, symObjAddr: 0x9E9C, symBinAddr: 0x10000A80C, symSize: 0x1A4 }
  - { offsetInCU: 0x17560, offset: 0x17560, size: 0x8, addend: 0x0, symName: __ZNSt3__117__compressed_pairIPNS_6vectorINS_4pairIiyEENS_9allocatorIS3_EEEENS4_IS6_EEE6secondB8ue170006Ev, symObjAddr: 0x9B28, symBinAddr: 0x10000A498, symSize: 0xD4 }
  - { offsetInCU: 0x175A3, offset: 0x175A3, size: 0x8, addend: 0x0, symName: __ZNSt3__16vectorINS_4pairIiyEENS_9allocatorIS2_EEEC1B8ue170006Ev, symObjAddr: 0xA3E4, symBinAddr: 0x10000AD54, symSize: 0x204 }
  - { offsetInCU: 0x17622, offset: 0x17622, size: 0x8, addend: 0x0, symName: __ZNSt3__16vectorINS0_INS_4pairIiyEENS_9allocatorIS2_EEEENS3_IS5_EEE21_ConstructTransactionD2B8ue170006Ev, symObjAddr: 0xA714, symBinAddr: 0x10000B084, symSize: 0x220 }
  - { offsetInCU: 0x17689, offset: 0x17689, size: 0x8, addend: 0x0, symName: __ZNSt3__122__compressed_pair_elemINS_9allocatorINS_6vectorINS_4pairIiyEENS1_IS4_EEEEEELi1ELb1EEC2B8ue170006ENS_18__default_init_tagE, symObjAddr: 0x95B8, symBinAddr: 0x100009F28, symSize: 0x7C }
  - { offsetInCU: 0x177B4, offset: 0x177B4, size: 0x8, addend: 0x0, symName: __ZNKSt3__16vectorINS0_INS_4pairIiyEENS_9allocatorIS2_EEEENS3_IS5_EEE8capacityB8ue170006Ev, symObjAddr: 0x9CC8, symBinAddr: 0x10000A638, symSize: 0x98 }
  - { offsetInCU: 0x177EF, offset: 0x177EF, size: 0x8, addend: 0x0, symName: __ZNKSt3__117__compressed_pairIPNS_6vectorINS_4pairIiyEENS_9allocatorIS3_EEEENS4_IS6_EEE6secondB8ue170006Ev, symObjAddr: 0x9A54, symBinAddr: 0x10000A3C4, symSize: 0xD4 }
  - { offsetInCU: 0x1787A, offset: 0x1787A, size: 0x8, addend: 0x0, symName: __ZNKSt3__16vectorINS0_INS_4pairIiyEENS_9allocatorIS2_EEEENS3_IS5_EEE9__end_capB8ue170006Ev, symObjAddr: 0x9D60, symBinAddr: 0x10000A6D0, symSize: 0x70 }
  - { offsetInCU: 0x178AF, offset: 0x178AF, size: 0x8, addend: 0x0, symName: __ZNKSt3__117__compressed_pairIPNS_6vectorINS_4pairIiyEENS_9allocatorIS3_EEEENS4_IS6_EEE5firstB8ue170006Ev, symObjAddr: 0x9DD0, symBinAddr: 0x10000A740, symSize: 0xCC }
  - { offsetInCU: 0x1790F, offset: 0x1790F, size: 0x8, addend: 0x0, symName: __ZNKSt3__16vectorINS0_INS_4pairIiyEENS_9allocatorIS2_EEEENS3_IS5_EEE19__annotate_increaseB8ue170006Em, symObjAddr: 0xA040, symBinAddr: 0x10000A9B0, symSize: 0x30C }
  - { offsetInCU: 0x17A19, offset: 0x17A19, size: 0x8, addend: 0x0, symName: __ZNKSt3__16vectorINS0_INS_4pairIiyEENS_9allocatorIS2_EEEENS3_IS5_EEE4sizeB8ue170006Ev, symObjAddr: 0xA34C, symBinAddr: 0x10000ACBC, symSize: 0x98 }
  - { offsetInCU: 0x17A9C, offset: 0x17A9C, size: 0x8, addend: 0x0, symName: __ZNSt3__117__compressed_pairIPNS_4pairIiyEENS_9allocatorIS2_EEEC2B8ue170006IDnNS_18__default_init_tagEEEOT_OT0_, symObjAddr: 0xA5E8, symBinAddr: 0x10000AF58, symSize: 0xB0 }
  - { offsetInCU: 0x17B4A, offset: 0x17B4A, size: 0x8, addend: 0x0, symName: __ZNSt3__122__compressed_pair_elemINS_9allocatorINS_4pairIiyEEEELi1ELb1EEC2B8ue170006ENS_18__default_init_tagE, symObjAddr: 0xA698, symBinAddr: 0x10000B008, symSize: 0x7C }
  - { offsetInCU: 0x17BF9, offset: 0x17BF9, size: 0x8, addend: 0x0, symName: __ZNKSt3__16vectorINS0_INS_4pairIiyEENS_9allocatorIS2_EEEENS3_IS5_EEE17__annotate_shrinkB8ue170006Em, symObjAddr: 0xA934, symBinAddr: 0x10000B2A4, symSize: 0x284 }
  - { offsetInCU: 0x17D5D, offset: 0x17D5D, size: 0x8, addend: 0x0, symName: __ZNSt3__16vectorINS0_INS_4pairIiyEENS_9allocatorIS2_EEEENS3_IS5_EEE22__base_destruct_at_endB8ue170006EPS5_, symObjAddr: 0xB174, symBinAddr: 0x10000BAE4, symSize: 0x100 }
  - { offsetInCU: 0x17DF0, offset: 0x17DF0, size: 0x8, addend: 0x0, symName: __ZNKSt3__16vectorINS0_INS_4pairIiyEENS_9allocatorIS2_EEEENS3_IS5_EEE17__annotate_deleteB8ue170006Ev, symObjAddr: 0xAEDC, symBinAddr: 0x10000B84C, symSize: 0x298 }
  - { offsetInCU: 0x17F14, offset: 0x17F14, size: 0x8, addend: 0x0, symName: __ZNSt3__19allocatorINS_6vectorINS_4pairIiyEENS0_IS3_EEEEE7destroyB8ue170006EPS5_, symObjAddr: 0xB274, symBinAddr: 0x10000BBE4, symSize: 0x1D4 }
  - { offsetInCU: 0x18022, offset: 0x18022, size: 0x8, addend: 0x0, symName: __ZNSt3__16vectorINS_4pairIiyEENS_9allocatorIS2_EEE16__destroy_vectorclB8ue170006Ev, symObjAddr: 0xB448, symBinAddr: 0x10000BDB8, symSize: 0x240 }
  - { offsetInCU: 0x181BE, offset: 0x181BE, size: 0x8, addend: 0x0, symName: __ZNSt3__16vectorINS_4pairIiyEENS_9allocatorIS2_EEE22__base_destruct_at_endB8ue170006EPS2_, symObjAddr: 0xB9F4, symBinAddr: 0x10000C364, symSize: 0xE8 }
  - { offsetInCU: 0x18219, offset: 0x18219, size: 0x8, addend: 0x0, symName: __ZNKSt3__16vectorINS_4pairIiyEENS_9allocatorIS2_EEE17__annotate_deleteB8ue170006Ev, symObjAddr: 0xB688, symBinAddr: 0x10000BFF8, symSize: 0x270 }
  - { offsetInCU: 0x18313, offset: 0x18313, size: 0x8, addend: 0x0, symName: __ZNSt3__16vectorINS_4pairIiyEENS_9allocatorIS2_EEE7__allocB8ue170006Ev, symObjAddr: 0xB8F8, symBinAddr: 0x10000C268, symSize: 0x70 }
  - { offsetInCU: 0x18343, offset: 0x18343, size: 0x8, addend: 0x0, symName: __ZNKSt3__16vectorINS_4pairIiyEENS_9allocatorIS2_EEE8capacityB8ue170006Ev, symObjAddr: 0xB968, symBinAddr: 0x10000C2D8, symSize: 0x8C }
  - { offsetInCU: 0x183DA, offset: 0x183DA, size: 0x8, addend: 0x0, symName: __ZNSt3__117__compressed_pairIPNS_4pairIiyEENS_9allocatorIS2_EEE6secondB8ue170006Ev, symObjAddr: 0xBADC, symBinAddr: 0x10000C44C, symSize: 0xD4 }
  - { offsetInCU: 0x1841D, offset: 0x1841D, size: 0x8, addend: 0x0, symName: __ZNKSt3__16vectorINS_4pairIiyEENS_9allocatorIS2_EEE9__end_capB8ue170006Ev, symObjAddr: 0xBBB0, symBinAddr: 0x10000C520, symSize: 0x70 }
  - { offsetInCU: 0x18468, offset: 0x18468, size: 0x8, addend: 0x0, symName: __ZNKSt3__117__compressed_pairIPNS_4pairIiyEENS_9allocatorIS2_EEE5firstB8ue170006Ev, symObjAddr: 0xBC20, symBinAddr: 0x10000C590, symSize: 0xCC }
  - { offsetInCU: 0x184C8, offset: 0x184C8, size: 0x8, addend: 0x0, symName: __ZNSt3__117__compressed_pairIPNS_4pairIiyEENS_9allocatorIS2_EEE5firstB8ue170006Ev, symObjAddr: 0xC384, symBinAddr: 0x10000CCF4, symSize: 0xCC }
  - { offsetInCU: 0x185E2, offset: 0x185E2, size: 0x8, addend: 0x0, symName: __ZNSt3__16vectorINS_4pairIiyEENS_9allocatorIS2_EEE21_ConstructTransactionC2B8ue170006ERS5_m, symObjAddr: 0xC450, symBinAddr: 0x10000CDC0, symSize: 0x194 }
  - { offsetInCU: 0x1863A, offset: 0x1863A, size: 0x8, addend: 0x0, symName: __ZNSt3__19allocatorINS_4pairIiyEEE9constructB8ue170006IS2_JRiRyEEEvPT_DpOT0_, symObjAddr: 0xC8BC, symBinAddr: 0x10000D22C, symSize: 0x138 }
  - { offsetInCU: 0x186F7, offset: 0x186F7, size: 0x8, addend: 0x0, symName: __ZNSt3__16vectorINS_4pairIiyEENS_9allocatorIS2_EEE21_ConstructTransactionD2B8ue170006Ev, symObjAddr: 0xC9F4, symBinAddr: 0x10000D364, symSize: 0x214 }
  - { offsetInCU: 0x1878E, offset: 0x1878E, size: 0x8, addend: 0x0, symName: __ZNKSt3__16vectorINS_4pairIiyEENS_9allocatorIS2_EEE11__recommendB8ue170006Em, symObjAddr: 0xCE64, symBinAddr: 0x10000D7D4, symSize: 0x9C }
  - { offsetInCU: 0x1883A, offset: 0x1883A, size: 0x8, addend: 0x0, symName: __ZNSt3__114__split_bufferINS_4pairIiyEERNS_9allocatorIS2_EEEC2EmmS5_, symObjAddr: 0xD3B8, symBinAddr: 0x10000DD28, symSize: 0x35C }
  - { offsetInCU: 0x18941, offset: 0x18941, size: 0x8, addend: 0x0, symName: __ZNSt3__114__split_bufferINS_4pairIiyEERNS_9allocatorIS2_EEED2Ev, symObjAddr: 0xEB18, symBinAddr: 0x10000F488, symSize: 0xF4 }
  - { offsetInCU: 0x18A50, offset: 0x18A50, size: 0x8, addend: 0x0, symName: __ZNSt3__114__split_bufferINS_4pairIiyEERNS_9allocatorIS2_EEED1Ev, symObjAddr: 0xD1E8, symBinAddr: 0x10000DB58, symSize: 0x48 }
  - { offsetInCU: 0x18A96, offset: 0x18A96, size: 0x8, addend: 0x0, symName: __ZNKSt3__16vectorINS_4pairIiyEENS_9allocatorIS2_EEE19__annotate_increaseB8ue170006Em, symObjAddr: 0xC5E4, symBinAddr: 0x10000CF54, symSize: 0x2D8 }
  - { offsetInCU: 0x18C30, offset: 0x18C30, size: 0x8, addend: 0x0, symName: __ZNKSt3__16vectorINS_4pairIiyEENS_9allocatorIS2_EEE17__annotate_shrinkB8ue170006Em, symObjAddr: 0xCC08, symBinAddr: 0x10000D578, symSize: 0x25C }
  - { offsetInCU: 0x18D3E, offset: 0x18D3E, size: 0x8, addend: 0x0, symName: __ZNKSt3__16vectorINS_4pairIiyEENS_9allocatorIS2_EEE7__allocB8ue170006Ev, symObjAddr: 0xD274, symBinAddr: 0x10000DBE4, symSize: 0x70 }
  - { offsetInCU: 0x18D73, offset: 0x18D73, size: 0x8, addend: 0x0, symName: __ZNKSt3__16vectorINS_4pairIiyEENS_9allocatorIS2_EEE20__throw_length_errorB8ue170006Ev, symObjAddr: 0xD230, symBinAddr: 0x10000DBA0, symSize: 0x44 }
  - { offsetInCU: 0x18DD3, offset: 0x18DD3, size: 0x8, addend: 0x0, symName: __ZNSt3__117__compressed_pairIPNS_4pairIiyEERNS_9allocatorIS2_EEE5firstB8ue170006Ev, symObjAddr: 0xD9C4, symBinAddr: 0x10000E334, symSize: 0xCC }
  - { offsetInCU: 0x18E17, offset: 0x18E17, size: 0x8, addend: 0x0, symName: __ZNKSt3__16vectorINS_4pairIiyEENS_9allocatorIS2_EEE14__annotate_newB8ue170006Em, symObjAddr: 0xDEB4, symBinAddr: 0x10000E824, symSize: 0x280 }
  - { offsetInCU: 0x18F0D, offset: 0x18F0D, size: 0x8, addend: 0x0, symName: __ZNKSt3__117__compressed_pairIPNS_4pairIiyEENS_9allocatorIS2_EEE6secondB8ue170006Ev, symObjAddr: 0xD2E4, symBinAddr: 0x10000DC54, symSize: 0xD4 }
  - { offsetInCU: 0x18FAE, offset: 0x18FAE, size: 0x8, addend: 0x0, symName: __ZNSt3__117__compressed_pairIPNS_4pairIiyEERNS_9allocatorIS2_EEEC2B8ue170006IDnS6_EEOT_OT0_, symObjAddr: 0xD7C8, symBinAddr: 0x10000E138, symSize: 0xFC }
  - { offsetInCU: 0x1903E, offset: 0x1903E, size: 0x8, addend: 0x0, symName: __ZNSt3__114__split_bufferINS_4pairIiyEERNS_9allocatorIS2_EEE7__allocB8ue170006Ev, symObjAddr: 0xD758, symBinAddr: 0x10000E0C8, symSize: 0x70 }
  - { offsetInCU: 0x1908F, offset: 0x1908F, size: 0x8, addend: 0x0, symName: __ZNSt3__117__compressed_pairIPNS_4pairIiyEERNS_9allocatorIS2_EEE6secondB8ue170006Ev, symObjAddr: 0xD8C4, symBinAddr: 0x10000E234, symSize: 0x100 }
  - { offsetInCU: 0x19279, offset: 0x19279, size: 0x8, addend: 0x0, symName: __ZNKSt3__116reverse_iteratorIPNS_4pairIiyEEEdeB8ue170006Ev, symObjAddr: 0xE134, symBinAddr: 0x10000EAA4, symSize: 0xC0 }
  - { offsetInCU: 0x192B0, offset: 0x192B0, size: 0x8, addend: 0x0, symName: __ZNSt3__128__exception_guard_exceptionsINS_29_AllocatorDestroyRangeReverseINS_9allocatorINS_4pairIiyEEEENS_16reverse_iteratorIPS4_EEEEED2B8ue170006Ev, symObjAddr: 0xE1F4, symBinAddr: 0x10000EB64, symSize: 0xF4 }
  - { offsetInCU: 0x192EF, offset: 0x192EF, size: 0x8, addend: 0x0, symName: __ZNKSt3__129_AllocatorDestroyRangeReverseINS_9allocatorINS_4pairIiyEEEENS_16reverse_iteratorIPS3_EEEclB8ue170006Ev, symObjAddr: 0xE2E8, symBinAddr: 0x10000EC58, symSize: 0x334 }
  - { offsetInCU: 0x19418, offset: 0x19418, size: 0x8, addend: 0x0, symName: __ZNKSt3__116reverse_iteratorINS0_IPNS_4pairIiyEEEEEdeB8ue170006Ev, symObjAddr: 0xE928, symBinAddr: 0x10000F298, symSize: 0x1F0 }
  - { offsetInCU: 0x1947B, offset: 0x1947B, size: 0x8, addend: 0x0, symName: __ZNSt3__116reverse_iteratorINS0_IPNS_4pairIiyEEEEEppB8ue170006Ev, symObjAddr: 0xE788, symBinAddr: 0x10000F0F8, symSize: 0x1A0 }
  - { offsetInCU: 0x194E4, offset: 0x194E4, size: 0x8, addend: 0x0, symName: __ZNSt3__114__split_bufferINS_4pairIiyEERNS_9allocatorIS2_EEE5clearB8ue170006Ev, symObjAddr: 0xEC0C, symBinAddr: 0x10000F57C, symSize: 0xAC }
  - { offsetInCU: 0x19538, offset: 0x19538, size: 0x8, addend: 0x0, symName: __ZNKSt3__114__split_bufferINS_4pairIiyEERNS_9allocatorIS2_EEE8capacityB8ue170006Ev, symObjAddr: 0xECB8, symBinAddr: 0x10000F628, symSize: 0x8C }
  - { offsetInCU: 0x19594, offset: 0x19594, size: 0x8, addend: 0x0, symName: __ZNSt3__114__split_bufferINS_4pairIiyEERNS_9allocatorIS2_EEE17__destruct_at_endB8ue170006EPS2_NS_17integral_constantIbLb0EEE, symObjAddr: 0xED44, symBinAddr: 0x10000F6B4, symSize: 0x100 }
  - { offsetInCU: 0x195E8, offset: 0x195E8, size: 0x8, addend: 0x0, symName: __ZNKSt3__114__split_bufferINS_4pairIiyEERNS_9allocatorIS2_EEE9__end_capB8ue170006Ev, symObjAddr: 0xEE44, symBinAddr: 0x10000F7B4, symSize: 0x70 }
  - { offsetInCU: 0x1961D, offset: 0x1961D, size: 0x8, addend: 0x0, symName: __ZNKSt3__117__compressed_pairIPNS_4pairIiyEERNS_9allocatorIS2_EEE5firstB8ue170006Ev, symObjAddr: 0xEEB4, symBinAddr: 0x10000F824, symSize: 0xCC }
  - { offsetInCU: 0x19723, offset: 0x19723, size: 0x8, addend: 0x0, symName: __ZNSt3__117__compressed_pairIPiNS_9allocatorIiEEEC2B8ue170006IDnNS_18__default_init_tagEEEOT_OT0_, symObjAddr: 0xF7A0, symBinAddr: 0x100010110, symSize: 0xB0 }
  - { offsetInCU: 0x197A2, offset: 0x197A2, size: 0x8, addend: 0x0, symName: __ZNSt3__16vectorIiNS_9allocatorIiEEE11__vallocateB8ue170006Em, symObjAddr: 0xF2B8, symBinAddr: 0x10000FC28, symSize: 0x1A0 }
  - { offsetInCU: 0x1988D, offset: 0x1988D, size: 0x8, addend: 0x0, symName: __ZNSt3__16vectorIiNS_9allocatorIiEEE18__construct_at_endEm, symObjAddr: 0xF458, symBinAddr: 0x10000FDC8, symSize: 0x300 }
  - { offsetInCU: 0x199C9, offset: 0x199C9, size: 0x8, addend: 0x0, symName: __ZNSt3__128__exception_guard_exceptionsINS_6vectorIiNS_9allocatorIiEEE16__destroy_vectorEED2B8ue170006Ev, symObjAddr: 0x10A58, symBinAddr: 0x1000113C8, symSize: 0xE4 }
  - { offsetInCU: 0x19A08, offset: 0x19A08, size: 0x8, addend: 0x0, symName: __ZNSt3__128__exception_guard_exceptionsINS_6vectorIiNS_9allocatorIiEEE16__destroy_vectorEED1B8ue170006Ev, symObjAddr: 0xF758, symBinAddr: 0x1000100C8, symSize: 0x48 }
  - { offsetInCU: 0x19A6C, offset: 0x19A6C, size: 0x8, addend: 0x0, symName: __ZNKSt3__16vectorIiNS_9allocatorIiEEE7__allocB8ue170006Ev, symObjAddr: 0xFC44, symBinAddr: 0x1000105B4, symSize: 0x70 }
  - { offsetInCU: 0x19AA1, offset: 0x19AA1, size: 0x8, addend: 0x0, symName: __ZNSt3__16vectorIiNS_9allocatorIiEEE7__allocB8ue170006Ev, symObjAddr: 0xF954, symBinAddr: 0x1000102C4, symSize: 0x70 }
  - { offsetInCU: 0x19AD1, offset: 0x19AD1, size: 0x8, addend: 0x0, symName: __ZNSt3__117__compressed_pairIPiNS_9allocatorIiEEE5firstB8ue170006Ev, symObjAddr: 0xFE5C, symBinAddr: 0x1000107CC, symSize: 0xCC }
  - { offsetInCU: 0x19B15, offset: 0x19B15, size: 0x8, addend: 0x0, symName: __ZNKSt3__16vectorIiNS_9allocatorIiEEE14__annotate_newB8ue170006Em, symObjAddr: 0xF9C4, symBinAddr: 0x100010334, symSize: 0x280 }
  - { offsetInCU: 0x19C0B, offset: 0x19C0B, size: 0x8, addend: 0x0, symName: __ZNKSt3__16vectorIiNS_9allocatorIiEEE20__throw_length_errorB8ue170006Ev, symObjAddr: 0xF8CC, symBinAddr: 0x10001023C, symSize: 0x44 }
  - { offsetInCU: 0x19D27, offset: 0x19D27, size: 0x8, addend: 0x0, symName: __ZNSt3__16vectorIiNS_9allocatorIiEEE21_ConstructTransactionC2B8ue170006ERS3_m, symObjAddr: 0x100F0, symBinAddr: 0x100010A60, symSize: 0x194 }
  - { offsetInCU: 0x19D7F, offset: 0x19D7F, size: 0x8, addend: 0x0, symName: __ZNSt3__117__compressed_pairIPiNS_9allocatorIiEEE6secondB8ue170006Ev, symObjAddr: 0xFD88, symBinAddr: 0x1000106F8, symSize: 0xD4 }
  - { offsetInCU: 0x19DC2, offset: 0x19DC2, size: 0x8, addend: 0x0, symName: __ZNSt3__16vectorIiNS_9allocatorIiEEE21_ConstructTransactionD2B8ue170006Ev, symObjAddr: 0x105E8, symBinAddr: 0x100010F58, symSize: 0x214 }
  - { offsetInCU: 0x19E29, offset: 0x19E29, size: 0x8, addend: 0x0, symName: __ZNSt3__122__compressed_pair_elemINS_9allocatorIiEELi1ELb1EEC2B8ue170006ENS_18__default_init_tagE, symObjAddr: 0xF850, symBinAddr: 0x1000101C0, symSize: 0x7C }
  - { offsetInCU: 0x19F4F, offset: 0x19F4F, size: 0x8, addend: 0x0, symName: __ZNKSt3__16vectorIiNS_9allocatorIiEEE8capacityB8ue170006Ev, symObjAddr: 0xFF28, symBinAddr: 0x100010898, symSize: 0x8C }
  - { offsetInCU: 0x19F8A, offset: 0x19F8A, size: 0x8, addend: 0x0, symName: __ZNKSt3__117__compressed_pairIPiNS_9allocatorIiEEE6secondB8ue170006Ev, symObjAddr: 0xFCB4, symBinAddr: 0x100010624, symSize: 0xD4 }
  - { offsetInCU: 0x1A015, offset: 0x1A015, size: 0x8, addend: 0x0, symName: __ZNKSt3__16vectorIiNS_9allocatorIiEEE9__end_capB8ue170006Ev, symObjAddr: 0xFFB4, symBinAddr: 0x100010924, symSize: 0x70 }
  - { offsetInCU: 0x1A04A, offset: 0x1A04A, size: 0x8, addend: 0x0, symName: __ZNKSt3__117__compressed_pairIPiNS_9allocatorIiEEE5firstB8ue170006Ev, symObjAddr: 0x10024, symBinAddr: 0x100010994, symSize: 0xCC }
  - { offsetInCU: 0x1A0AA, offset: 0x1A0AA, size: 0x8, addend: 0x0, symName: __ZNKSt3__16vectorIiNS_9allocatorIiEEE19__annotate_increaseB8ue170006Em, symObjAddr: 0x10284, symBinAddr: 0x100010BF4, symSize: 0x2D8 }
  - { offsetInCU: 0x1A1B4, offset: 0x1A1B4, size: 0x8, addend: 0x0, symName: __ZNKSt3__16vectorIiNS_9allocatorIiEEE4sizeB8ue170006Ev, symObjAddr: 0x1055C, symBinAddr: 0x100010ECC, symSize: 0x8C }
  - { offsetInCU: 0x1A1DB, offset: 0x1A1DB, size: 0x8, addend: 0x0, symName: __ZNKSt3__16vectorIiNS_9allocatorIiEEE17__annotate_shrinkB8ue170006Em, symObjAddr: 0x107FC, symBinAddr: 0x10001116C, symSize: 0x25C }
  - { offsetInCU: 0x1A33F, offset: 0x1A33F, size: 0x8, addend: 0x0, symName: __ZNSt3__16vectorIiNS_9allocatorIiEEE22__base_destruct_at_endB8ue170006EPi, symObjAddr: 0x10FEC, symBinAddr: 0x10001195C, symSize: 0xE8 }
  - { offsetInCU: 0x1A39A, offset: 0x1A39A, size: 0x8, addend: 0x0, symName: __ZNKSt3__16vectorIiNS_9allocatorIiEEE17__annotate_deleteB8ue170006Ev, symObjAddr: 0x10D7C, symBinAddr: 0x1000116EC, symSize: 0x270 }
  - { offsetInCU: 0x1A556, offset: 0x1A556, size: 0x8, addend: 0x0, symName: __ZNSt3__117__compressed_pairIPxNS_9allocatorIxEEEC2B8ue170006IDnNS_18__default_init_tagEEEOT_OT0_, symObjAddr: 0x118F4, symBinAddr: 0x100012264, symSize: 0xB0 }
  - { offsetInCU: 0x1A5D5, offset: 0x1A5D5, size: 0x8, addend: 0x0, symName: __ZNSt3__16vectorIxNS_9allocatorIxEEE11__vallocateB8ue170006Em, symObjAddr: 0x1140C, symBinAddr: 0x100011D7C, symSize: 0x1A0 }
  - { offsetInCU: 0x1A6C0, offset: 0x1A6C0, size: 0x8, addend: 0x0, symName: __ZNSt3__16vectorIxNS_9allocatorIxEEE18__construct_at_endEm, symObjAddr: 0x115AC, symBinAddr: 0x100011F1C, symSize: 0x300 }
  - { offsetInCU: 0x1A7FC, offset: 0x1A7FC, size: 0x8, addend: 0x0, symName: __ZNSt3__128__exception_guard_exceptionsINS_6vectorIxNS_9allocatorIxEEE16__destroy_vectorEED2B8ue170006Ev, symObjAddr: 0x12BAC, symBinAddr: 0x10001351C, symSize: 0xE4 }
  - { offsetInCU: 0x1A83B, offset: 0x1A83B, size: 0x8, addend: 0x0, symName: __ZNSt3__128__exception_guard_exceptionsINS_6vectorIxNS_9allocatorIxEEE16__destroy_vectorEED1B8ue170006Ev, symObjAddr: 0x118AC, symBinAddr: 0x10001221C, symSize: 0x48 }
  - { offsetInCU: 0x1A89F, offset: 0x1A89F, size: 0x8, addend: 0x0, symName: __ZNKSt3__16vectorIxNS_9allocatorIxEEE7__allocB8ue170006Ev, symObjAddr: 0x11D98, symBinAddr: 0x100012708, symSize: 0x70 }
  - { offsetInCU: 0x1A8D4, offset: 0x1A8D4, size: 0x8, addend: 0x0, symName: __ZNSt3__16vectorIxNS_9allocatorIxEEE7__allocB8ue170006Ev, symObjAddr: 0x11AA8, symBinAddr: 0x100012418, symSize: 0x70 }
  - { offsetInCU: 0x1A904, offset: 0x1A904, size: 0x8, addend: 0x0, symName: __ZNSt3__117__compressed_pairIPxNS_9allocatorIxEEE5firstB8ue170006Ev, symObjAddr: 0x11FB0, symBinAddr: 0x100012920, symSize: 0xCC }
  - { offsetInCU: 0x1A948, offset: 0x1A948, size: 0x8, addend: 0x0, symName: __ZNKSt3__16vectorIxNS_9allocatorIxEEE14__annotate_newB8ue170006Em, symObjAddr: 0x11B18, symBinAddr: 0x100012488, symSize: 0x280 }
  - { offsetInCU: 0x1AA3E, offset: 0x1AA3E, size: 0x8, addend: 0x0, symName: __ZNKSt3__16vectorIxNS_9allocatorIxEEE20__throw_length_errorB8ue170006Ev, symObjAddr: 0x11A20, symBinAddr: 0x100012390, symSize: 0x44 }
  - { offsetInCU: 0x1AB5A, offset: 0x1AB5A, size: 0x8, addend: 0x0, symName: __ZNSt3__16vectorIxNS_9allocatorIxEEE21_ConstructTransactionC2B8ue170006ERS3_m, symObjAddr: 0x12244, symBinAddr: 0x100012BB4, symSize: 0x194 }
  - { offsetInCU: 0x1ABB2, offset: 0x1ABB2, size: 0x8, addend: 0x0, symName: __ZNSt3__117__compressed_pairIPxNS_9allocatorIxEEE6secondB8ue170006Ev, symObjAddr: 0x11EDC, symBinAddr: 0x10001284C, symSize: 0xD4 }
  - { offsetInCU: 0x1ABF5, offset: 0x1ABF5, size: 0x8, addend: 0x0, symName: __ZNSt3__16vectorIxNS_9allocatorIxEEE21_ConstructTransactionD2B8ue170006Ev, symObjAddr: 0x1273C, symBinAddr: 0x1000130AC, symSize: 0x214 }
  - { offsetInCU: 0x1AC5C, offset: 0x1AC5C, size: 0x8, addend: 0x0, symName: __ZNSt3__122__compressed_pair_elemINS_9allocatorIxEELi1ELb1EEC2B8ue170006ENS_18__default_init_tagE, symObjAddr: 0x119A4, symBinAddr: 0x100012314, symSize: 0x7C }
  - { offsetInCU: 0x1AD82, offset: 0x1AD82, size: 0x8, addend: 0x0, symName: __ZNKSt3__16vectorIxNS_9allocatorIxEEE8capacityB8ue170006Ev, symObjAddr: 0x1207C, symBinAddr: 0x1000129EC, symSize: 0x8C }
  - { offsetInCU: 0x1ADBD, offset: 0x1ADBD, size: 0x8, addend: 0x0, symName: __ZNKSt3__117__compressed_pairIPxNS_9allocatorIxEEE6secondB8ue170006Ev, symObjAddr: 0x11E08, symBinAddr: 0x100012778, symSize: 0xD4 }
  - { offsetInCU: 0x1AE48, offset: 0x1AE48, size: 0x8, addend: 0x0, symName: __ZNKSt3__16vectorIxNS_9allocatorIxEEE9__end_capB8ue170006Ev, symObjAddr: 0x12108, symBinAddr: 0x100012A78, symSize: 0x70 }
  - { offsetInCU: 0x1AE7D, offset: 0x1AE7D, size: 0x8, addend: 0x0, symName: __ZNKSt3__117__compressed_pairIPxNS_9allocatorIxEEE5firstB8ue170006Ev, symObjAddr: 0x12178, symBinAddr: 0x100012AE8, symSize: 0xCC }
  - { offsetInCU: 0x1AEDD, offset: 0x1AEDD, size: 0x8, addend: 0x0, symName: __ZNKSt3__16vectorIxNS_9allocatorIxEEE19__annotate_increaseB8ue170006Em, symObjAddr: 0x123D8, symBinAddr: 0x100012D48, symSize: 0x2D8 }
  - { offsetInCU: 0x1AFE7, offset: 0x1AFE7, size: 0x8, addend: 0x0, symName: __ZNKSt3__16vectorIxNS_9allocatorIxEEE4sizeB8ue170006Ev, symObjAddr: 0x126B0, symBinAddr: 0x100013020, symSize: 0x8C }
  - { offsetInCU: 0x1B00E, offset: 0x1B00E, size: 0x8, addend: 0x0, symName: __ZNKSt3__16vectorIxNS_9allocatorIxEEE17__annotate_shrinkB8ue170006Em, symObjAddr: 0x12950, symBinAddr: 0x1000132C0, symSize: 0x25C }
  - { offsetInCU: 0x1B172, offset: 0x1B172, size: 0x8, addend: 0x0, symName: __ZNSt3__16vectorIxNS_9allocatorIxEEE22__base_destruct_at_endB8ue170006EPx, symObjAddr: 0x13140, symBinAddr: 0x100013AB0, symSize: 0xE8 }
  - { offsetInCU: 0x1B1CD, offset: 0x1B1CD, size: 0x8, addend: 0x0, symName: __ZNKSt3__16vectorIxNS_9allocatorIxEEE17__annotate_deleteB8ue170006Ev, symObjAddr: 0x12ED0, symBinAddr: 0x100013840, symSize: 0x270 }
  - { offsetInCU: 0x1B389, offset: 0x1B389, size: 0x8, addend: 0x0, symName: __ZNSt3__117__compressed_pairIPNS_5arrayIyLm20EEENS_9allocatorIS2_EEEC2B8ue170006IDnNS_18__default_init_tagEEEOT_OT0_, symObjAddr: 0x13A60, symBinAddr: 0x1000143D0, symSize: 0xB0 }
  - { offsetInCU: 0x1B408, offset: 0x1B408, size: 0x8, addend: 0x0, symName: __ZNSt3__16vectorINS_5arrayIyLm20EEENS_9allocatorIS2_EEE11__vallocateB8ue170006Em, symObjAddr: 0x13560, symBinAddr: 0x100013ED0, symSize: 0x1BC }
  - { offsetInCU: 0x1B4F3, offset: 0x1B4F3, size: 0x8, addend: 0x0, symName: __ZNSt3__16vectorINS_5arrayIyLm20EEENS_9allocatorIS2_EEE18__construct_at_endEm, symObjAddr: 0x1371C, symBinAddr: 0x10001408C, symSize: 0x2FC }
  - { offsetInCU: 0x1B62F, offset: 0x1B62F, size: 0x8, addend: 0x0, symName: __ZNSt3__128__exception_guard_exceptionsINS_6vectorINS_5arrayIyLm20EEENS_9allocatorIS3_EEE16__destroy_vectorEED2B8ue170006Ev, symObjAddr: 0x14DE0, symBinAddr: 0x100015750, symSize: 0xE4 }
  - { offsetInCU: 0x1B66E, offset: 0x1B66E, size: 0x8, addend: 0x0, symName: __ZNSt3__128__exception_guard_exceptionsINS_6vectorINS_5arrayIyLm20EEENS_9allocatorIS3_EEE16__destroy_vectorEED1B8ue170006Ev, symObjAddr: 0x13A18, symBinAddr: 0x100014388, symSize: 0x48 }
  - { offsetInCU: 0x1B6D2, offset: 0x1B6D2, size: 0x8, addend: 0x0, symName: __ZNKSt3__16vectorINS_5arrayIyLm20EEENS_9allocatorIS2_EEE7__allocB8ue170006Ev, symObjAddr: 0x13F3C, symBinAddr: 0x1000148AC, symSize: 0x70 }
  - { offsetInCU: 0x1B707, offset: 0x1B707, size: 0x8, addend: 0x0, symName: __ZNSt3__16vectorINS_5arrayIyLm20EEENS_9allocatorIS2_EEE7__allocB8ue170006Ev, symObjAddr: 0x13C24, symBinAddr: 0x100014594, symSize: 0x70 }
  - { offsetInCU: 0x1B737, offset: 0x1B737, size: 0x8, addend: 0x0, symName: __ZNSt3__117__compressed_pairIPNS_5arrayIyLm20EEENS_9allocatorIS2_EEE5firstB8ue170006Ev, symObjAddr: 0x14154, symBinAddr: 0x100014AC4, symSize: 0xCC }
  - { offsetInCU: 0x1B77B, offset: 0x1B77B, size: 0x8, addend: 0x0, symName: __ZNKSt3__16vectorINS_5arrayIyLm20EEENS_9allocatorIS2_EEE14__annotate_newB8ue170006Em, symObjAddr: 0x13C94, symBinAddr: 0x100014604, symSize: 0x2A8 }
  - { offsetInCU: 0x1B871, offset: 0x1B871, size: 0x8, addend: 0x0, symName: __ZNKSt3__16vectorINS_5arrayIyLm20EEENS_9allocatorIS2_EEE20__throw_length_errorB8ue170006Ev, symObjAddr: 0x13B8C, symBinAddr: 0x1000144FC, symSize: 0x44 }
  - { offsetInCU: 0x1B98D, offset: 0x1B98D, size: 0x8, addend: 0x0, symName: __ZNSt3__16vectorINS_5arrayIyLm20EEENS_9allocatorIS2_EEE21_ConstructTransactionC2B8ue170006ERS5_m, symObjAddr: 0x143F4, symBinAddr: 0x100014D64, symSize: 0x1A4 }
  - { offsetInCU: 0x1B9E5, offset: 0x1B9E5, size: 0x8, addend: 0x0, symName: __ZNSt3__117__compressed_pairIPNS_5arrayIyLm20EEENS_9allocatorIS2_EEE6secondB8ue170006Ev, symObjAddr: 0x14080, symBinAddr: 0x1000149F0, symSize: 0xD4 }
  - { offsetInCU: 0x1BA28, offset: 0x1BA28, size: 0x8, addend: 0x0, symName: __ZNSt3__16vectorINS_5arrayIyLm20EEENS_9allocatorIS2_EEE21_ConstructTransactionD2B8ue170006Ev, symObjAddr: 0x1493C, symBinAddr: 0x1000152AC, symSize: 0x220 }
  - { offsetInCU: 0x1BA8F, offset: 0x1BA8F, size: 0x8, addend: 0x0, symName: __ZNSt3__122__compressed_pair_elemINS_9allocatorINS_5arrayIyLm20EEEEELi1ELb1EEC2B8ue170006ENS_18__default_init_tagE, symObjAddr: 0x13B10, symBinAddr: 0x100014480, symSize: 0x7C }
  - { offsetInCU: 0x1BBB5, offset: 0x1BBB5, size: 0x8, addend: 0x0, symName: __ZNKSt3__16vectorINS_5arrayIyLm20EEENS_9allocatorIS2_EEE8capacityB8ue170006Ev, symObjAddr: 0x14220, symBinAddr: 0x100014B90, symSize: 0x98 }
  - { offsetInCU: 0x1BBF0, offset: 0x1BBF0, size: 0x8, addend: 0x0, symName: __ZNKSt3__117__compressed_pairIPNS_5arrayIyLm20EEENS_9allocatorIS2_EEE6secondB8ue170006Ev, symObjAddr: 0x13FAC, symBinAddr: 0x10001491C, symSize: 0xD4 }
  - { offsetInCU: 0x1BC7B, offset: 0x1BC7B, size: 0x8, addend: 0x0, symName: __ZNKSt3__16vectorINS_5arrayIyLm20EEENS_9allocatorIS2_EEE9__end_capB8ue170006Ev, symObjAddr: 0x142B8, symBinAddr: 0x100014C28, symSize: 0x70 }
  - { offsetInCU: 0x1BCB0, offset: 0x1BCB0, size: 0x8, addend: 0x0, symName: __ZNKSt3__117__compressed_pairIPNS_5arrayIyLm20EEENS_9allocatorIS2_EEE5firstB8ue170006Ev, symObjAddr: 0x14328, symBinAddr: 0x100014C98, symSize: 0xCC }
  - { offsetInCU: 0x1BD10, offset: 0x1BD10, size: 0x8, addend: 0x0, symName: __ZNKSt3__16vectorINS_5arrayIyLm20EEENS_9allocatorIS2_EEE19__annotate_increaseB8ue170006Em, symObjAddr: 0x14598, symBinAddr: 0x100014F08, symSize: 0x30C }
  - { offsetInCU: 0x1BE1A, offset: 0x1BE1A, size: 0x8, addend: 0x0, symName: __ZNKSt3__16vectorINS_5arrayIyLm20EEENS_9allocatorIS2_EEE4sizeB8ue170006Ev, symObjAddr: 0x148A4, symBinAddr: 0x100015214, symSize: 0x98 }
  - { offsetInCU: 0x1BE41, offset: 0x1BE41, size: 0x8, addend: 0x0, symName: __ZNKSt3__16vectorINS_5arrayIyLm20EEENS_9allocatorIS2_EEE17__annotate_shrinkB8ue170006Em, symObjAddr: 0x14B5C, symBinAddr: 0x1000154CC, symSize: 0x284 }
  - { offsetInCU: 0x1BFA5, offset: 0x1BFA5, size: 0x8, addend: 0x0, symName: __ZNSt3__16vectorINS_5arrayIyLm20EEENS_9allocatorIS2_EEE22__base_destruct_at_endB8ue170006EPS2_, symObjAddr: 0x1539C, symBinAddr: 0x100015D0C, symSize: 0xE8 }
  - { offsetInCU: 0x1C000, offset: 0x1C000, size: 0x8, addend: 0x0, symName: __ZNKSt3__16vectorINS_5arrayIyLm20EEENS_9allocatorIS2_EEE17__annotate_deleteB8ue170006Ev, symObjAddr: 0x15104, symBinAddr: 0x100015A74, symSize: 0x298 }
  - { offsetInCU: 0x1C1BC, offset: 0x1C1BC, size: 0x8, addend: 0x0, symName: __ZNSt3__117__compressed_pairIPNS_5arrayIiLm20EEENS_9allocatorIS2_EEEC2B8ue170006IDnNS_18__default_init_tagEEEOT_OT0_, symObjAddr: 0x15CBC, symBinAddr: 0x10001662C, symSize: 0xB0 }
  - { offsetInCU: 0x1C23B, offset: 0x1C23B, size: 0x8, addend: 0x0, symName: __ZNSt3__16vectorINS_5arrayIiLm20EEENS_9allocatorIS2_EEE11__vallocateB8ue170006Em, symObjAddr: 0x157BC, symBinAddr: 0x10001612C, symSize: 0x1BC }
  - { offsetInCU: 0x1C326, offset: 0x1C326, size: 0x8, addend: 0x0, symName: __ZNSt3__16vectorINS_5arrayIiLm20EEENS_9allocatorIS2_EEE18__construct_at_endEm, symObjAddr: 0x15978, symBinAddr: 0x1000162E8, symSize: 0x2FC }
  - { offsetInCU: 0x1C462, offset: 0x1C462, size: 0x8, addend: 0x0, symName: __ZNSt3__128__exception_guard_exceptionsINS_6vectorINS_5arrayIiLm20EEENS_9allocatorIS3_EEE16__destroy_vectorEED2B8ue170006Ev, symObjAddr: 0x1703C, symBinAddr: 0x1000179AC, symSize: 0xE4 }
  - { offsetInCU: 0x1C4A1, offset: 0x1C4A1, size: 0x8, addend: 0x0, symName: __ZNSt3__128__exception_guard_exceptionsINS_6vectorINS_5arrayIiLm20EEENS_9allocatorIS3_EEE16__destroy_vectorEED1B8ue170006Ev, symObjAddr: 0x15C74, symBinAddr: 0x1000165E4, symSize: 0x48 }
  - { offsetInCU: 0x1C505, offset: 0x1C505, size: 0x8, addend: 0x0, symName: __ZNKSt3__16vectorINS_5arrayIiLm20EEENS_9allocatorIS2_EEE7__allocB8ue170006Ev, symObjAddr: 0x16198, symBinAddr: 0x100016B08, symSize: 0x70 }
  - { offsetInCU: 0x1C53A, offset: 0x1C53A, size: 0x8, addend: 0x0, symName: __ZNSt3__16vectorINS_5arrayIiLm20EEENS_9allocatorIS2_EEE7__allocB8ue170006Ev, symObjAddr: 0x15E80, symBinAddr: 0x1000167F0, symSize: 0x70 }
  - { offsetInCU: 0x1C56A, offset: 0x1C56A, size: 0x8, addend: 0x0, symName: __ZNSt3__117__compressed_pairIPNS_5arrayIiLm20EEENS_9allocatorIS2_EEE5firstB8ue170006Ev, symObjAddr: 0x163B0, symBinAddr: 0x100016D20, symSize: 0xCC }
  - { offsetInCU: 0x1C5AE, offset: 0x1C5AE, size: 0x8, addend: 0x0, symName: __ZNKSt3__16vectorINS_5arrayIiLm20EEENS_9allocatorIS2_EEE14__annotate_newB8ue170006Em, symObjAddr: 0x15EF0, symBinAddr: 0x100016860, symSize: 0x2A8 }
  - { offsetInCU: 0x1C6A4, offset: 0x1C6A4, size: 0x8, addend: 0x0, symName: __ZNKSt3__16vectorINS_5arrayIiLm20EEENS_9allocatorIS2_EEE20__throw_length_errorB8ue170006Ev, symObjAddr: 0x15DE8, symBinAddr: 0x100016758, symSize: 0x44 }
  - { offsetInCU: 0x1C7C0, offset: 0x1C7C0, size: 0x8, addend: 0x0, symName: __ZNSt3__16vectorINS_5arrayIiLm20EEENS_9allocatorIS2_EEE21_ConstructTransactionC2B8ue170006ERS5_m, symObjAddr: 0x16650, symBinAddr: 0x100016FC0, symSize: 0x1A4 }
  - { offsetInCU: 0x1C818, offset: 0x1C818, size: 0x8, addend: 0x0, symName: __ZNSt3__117__compressed_pairIPNS_5arrayIiLm20EEENS_9allocatorIS2_EEE6secondB8ue170006Ev, symObjAddr: 0x162DC, symBinAddr: 0x100016C4C, symSize: 0xD4 }
  - { offsetInCU: 0x1C85B, offset: 0x1C85B, size: 0x8, addend: 0x0, symName: __ZNSt3__16vectorINS_5arrayIiLm20EEENS_9allocatorIS2_EEE21_ConstructTransactionD2B8ue170006Ev, symObjAddr: 0x16B98, symBinAddr: 0x100017508, symSize: 0x220 }
  - { offsetInCU: 0x1C8C2, offset: 0x1C8C2, size: 0x8, addend: 0x0, symName: __ZNSt3__122__compressed_pair_elemINS_9allocatorINS_5arrayIiLm20EEEEELi1ELb1EEC2B8ue170006ENS_18__default_init_tagE, symObjAddr: 0x15D6C, symBinAddr: 0x1000166DC, symSize: 0x7C }
  - { offsetInCU: 0x1C9E8, offset: 0x1C9E8, size: 0x8, addend: 0x0, symName: __ZNKSt3__16vectorINS_5arrayIiLm20EEENS_9allocatorIS2_EEE8capacityB8ue170006Ev, symObjAddr: 0x1647C, symBinAddr: 0x100016DEC, symSize: 0x98 }
  - { offsetInCU: 0x1CA23, offset: 0x1CA23, size: 0x8, addend: 0x0, symName: __ZNKSt3__117__compressed_pairIPNS_5arrayIiLm20EEENS_9allocatorIS2_EEE6secondB8ue170006Ev, symObjAddr: 0x16208, symBinAddr: 0x100016B78, symSize: 0xD4 }
  - { offsetInCU: 0x1CAAE, offset: 0x1CAAE, size: 0x8, addend: 0x0, symName: __ZNKSt3__16vectorINS_5arrayIiLm20EEENS_9allocatorIS2_EEE9__end_capB8ue170006Ev, symObjAddr: 0x16514, symBinAddr: 0x100016E84, symSize: 0x70 }
  - { offsetInCU: 0x1CAE3, offset: 0x1CAE3, size: 0x8, addend: 0x0, symName: __ZNKSt3__117__compressed_pairIPNS_5arrayIiLm20EEENS_9allocatorIS2_EEE5firstB8ue170006Ev, symObjAddr: 0x16584, symBinAddr: 0x100016EF4, symSize: 0xCC }
  - { offsetInCU: 0x1CB43, offset: 0x1CB43, size: 0x8, addend: 0x0, symName: __ZNKSt3__16vectorINS_5arrayIiLm20EEENS_9allocatorIS2_EEE19__annotate_increaseB8ue170006Em, symObjAddr: 0x167F4, symBinAddr: 0x100017164, symSize: 0x30C }
  - { offsetInCU: 0x1CC4D, offset: 0x1CC4D, size: 0x8, addend: 0x0, symName: __ZNKSt3__16vectorINS_5arrayIiLm20EEENS_9allocatorIS2_EEE4sizeB8ue170006Ev, symObjAddr: 0x16B00, symBinAddr: 0x100017470, symSize: 0x98 }
  - { offsetInCU: 0x1CC74, offset: 0x1CC74, size: 0x8, addend: 0x0, symName: __ZNKSt3__16vectorINS_5arrayIiLm20EEENS_9allocatorIS2_EEE17__annotate_shrinkB8ue170006Em, symObjAddr: 0x16DB8, symBinAddr: 0x100017728, symSize: 0x284 }
  - { offsetInCU: 0x1CDD8, offset: 0x1CDD8, size: 0x8, addend: 0x0, symName: __ZNSt3__16vectorINS_5arrayIiLm20EEENS_9allocatorIS2_EEE22__base_destruct_at_endB8ue170006EPS2_, symObjAddr: 0x175F8, symBinAddr: 0x100017F68, symSize: 0xE8 }
  - { offsetInCU: 0x1CE33, offset: 0x1CE33, size: 0x8, addend: 0x0, symName: __ZNKSt3__16vectorINS_5arrayIiLm20EEENS_9allocatorIS2_EEE17__annotate_deleteB8ue170006Ev, symObjAddr: 0x17360, symBinAddr: 0x100017CD0, symSize: 0x298 }
  - { offsetInCU: 0x1CF6F, offset: 0x1CF6F, size: 0x8, addend: 0x0, symName: __ZNSt3__117__compressed_pairImNS_9allocatorImEEEC2B8ue170006IiNS_18__default_init_tagEEEOT_OT0_, symObjAddr: 0x17DEC, symBinAddr: 0x10001875C, symSize: 0xE8 }
  - { offsetInCU: 0x1CFF7, offset: 0x1CFF7, size: 0x8, addend: 0x0, symName: __ZNSt3__16vectorIbNS_9allocatorIbEEE11__vallocateB8ue170006Em, symObjAddr: 0x178EC, symBinAddr: 0x10001825C, symSize: 0x138 }
  - { offsetInCU: 0x1D0E6, offset: 0x1D0E6, size: 0x8, addend: 0x0, symName: __ZNSt3__16vectorIbNS_9allocatorIbEEE18__construct_at_endB8ue170006Emb, symObjAddr: 0x17A24, symBinAddr: 0x100018394, symSize: 0x3C8 }
  - { offsetInCU: 0x1D1ED, offset: 0x1D1ED, size: 0x8, addend: 0x0, symName: __ZNKSt3__16vectorIbNS_9allocatorIbEEE7__allocB8ue170006Ev, symObjAddr: 0x180B8, symBinAddr: 0x100018A28, symSize: 0x70 }
  - { offsetInCU: 0x1D222, offset: 0x1D222, size: 0x8, addend: 0x0, symName: __ZNSt3__16vectorIbNS_9allocatorIbEEE7__allocB8ue170006Ev, symObjAddr: 0x17FD8, symBinAddr: 0x100018948, symSize: 0x70 }
  - { offsetInCU: 0x1D257, offset: 0x1D257, size: 0x8, addend: 0x0, symName: __ZNSt3__117__compressed_pairImNS_9allocatorImEEE5firstB8ue170006Ev, symObjAddr: 0x182D0, symBinAddr: 0x100018C40, symSize: 0xCC }
  - { offsetInCU: 0x1D29B, offset: 0x1D29B, size: 0x8, addend: 0x0, symName: __ZNKSt3__16vectorIbNS_9allocatorIbEEE20__throw_length_errorB8ue170006Ev, symObjAddr: 0x17F50, symBinAddr: 0x1000188C0, symSize: 0x44 }
  - { offsetInCU: 0x1D2FE, offset: 0x1D2FE, size: 0x8, addend: 0x0, symName: __ZNSt3__122__compressed_pair_elemINS_9allocatorImEELi1ELb1EEC2B8ue170006ENS_18__default_init_tagE, symObjAddr: 0x17ED4, symBinAddr: 0x100018844, symSize: 0x7C }
  - { offsetInCU: 0x1D3CE, offset: 0x1D3CE, size: 0x8, addend: 0x0, symName: __ZNSt3__117__compressed_pairImNS_9allocatorImEEE6secondB8ue170006Ev, symObjAddr: 0x181FC, symBinAddr: 0x100018B6C, symSize: 0xD4 }
  - { offsetInCU: 0x1D411, offset: 0x1D411, size: 0x8, addend: 0x0, symName: __ZNSt3__16vectorIbNS_9allocatorIbEEE5__capB8ue170006Ev, symObjAddr: 0x18048, symBinAddr: 0x1000189B8, symSize: 0x70 }
  - { offsetInCU: 0x1D441, offset: 0x1D441, size: 0x8, addend: 0x0, symName: __ZNKSt3__117__compressed_pairImNS_9allocatorImEEE6secondB8ue170006Ev, symObjAddr: 0x18128, symBinAddr: 0x100018A98, symSize: 0xD4 }
...
