---
triple:          'arm64-apple-darwin'
binary-path:     '/Users/eric/Workspace/compprog/codeforces/contest/1000virtual/D_Game_With_Triangles.bin'
relocations:
  - { offsetInCU: 0x3B, offset: 0x3B, size: 0x8, addend: 0x0, symName: _.str, symObjAddr: 0x1DDC0, symBinAddr: 0x100020620, symSize: 0x0 }
  - { offsetInCU: 0x6B, offset: 0x6B, size: 0x8, addend: 0x0, symName: _.str.1, symObjAddr: 0x1DDE0, symBinAddr: 0x100020640, symSize: 0x0 }
  - { offsetInCU: 0x7C, offset: 0x7C, size: 0x8, addend: 0x0, symName: _.str.2, symObjAddr: 0x1DE00, symBinAddr: 0x100020660, symSize: 0x0 }
  - { offsetInCU: 0x8D, offset: 0x8D, size: 0x8, addend: 0x0, symName: _.str.3, symObjAddr: 0x1A840, symBinAddr: 0x10001D080, symSize: 0x0 }
  - { offsetInCU: 0xAA, offset: 0xAA, size: 0x8, addend: 0x0, symName: _.str.4, symObjAddr: 0x1DE20, symBinAddr: 0x100020680, symSize: 0x0 }
  - { offsetInCU: 0xBB, offset: 0xBB, size: 0x8, addend: 0x0, symName: _.str.6, symObjAddr: 0x1DE40, symBinAddr: 0x1000206A0, symSize: 0x0 }
  - { offsetInCU: 0xD8, offset: 0xD8, size: 0x8, addend: 0x0, symName: _.str.7, symObjAddr: 0x1DE60, symBinAddr: 0x1000206C0, symSize: 0x0 }
  - { offsetInCU: 0xF6, offset: 0xF6, size: 0x8, addend: 0x0, symName: _.str.17, symObjAddr: 0x1DE80, symBinAddr: 0x1000206E0, symSize: 0x0 }
  - { offsetInCU: 0x113, offset: 0x113, size: 0x8, addend: 0x0, symName: _.str.51, symObjAddr: 0x1DEA0, symBinAddr: 0x100020700, symSize: 0x0 }
  - { offsetInCU: 0x124, offset: 0x124, size: 0x8, addend: 0x0, symName: _.str.52, symObjAddr: 0x1DEC0, symBinAddr: 0x100020720, symSize: 0x0 }
  - { offsetInCU: 0x136, offset: 0x136, size: 0x8, addend: 0x0, symName: _.str.54, symObjAddr: 0x1DEE0, symBinAddr: 0x100020740, symSize: 0x0 }
  - { offsetInCU: 0x5029, offset: 0x5029, size: 0x8, addend: 0x0, symName: __ZNSt3__124__put_character_sequenceB8ue170006IcNS_11char_traitsIcEEEERNS_13basic_ostreamIT_T0_EES7_PKS4_m, symObjAddr: 0x45D8, symBinAddr: 0x100006ADC, symSize: 0x910 }
  - { offsetInCU: 0x79FD, offset: 0x79FD, size: 0x8, addend: 0x0, symName: __ZNSt3__111__introsortINS_17_ClassicAlgPolicyERNS_6__lessIvvEENS_16__deque_iteratorIxPxRxPS6_lLl512EEELb0EEEvT1_SA_T0_NS_15iterator_traitsISA_E15difference_typeEb, symObjAddr: 0xF284, symBinAddr: 0x100011788, symSize: 0x15DC }
  - { offsetInCU: 0x85C7, offset: 0x85C7, size: 0x8, addend: 0x0, symName: __ZNSt3__126__insertion_sort_unguardedB8ue170006INS_17_ClassicAlgPolicyERNS_6__lessIvvEENS_16__deque_iteratorIxPxRxPS6_lLl512EEEEEvT1_SA_T0_, symObjAddr: 0x11144, symBinAddr: 0x100013648, symSize: 0x5BC }
  - { offsetInCU: 0x889B, offset: 0x889B, size: 0x8, addend: 0x0, symName: __ZNSt3__111__sift_downB8ue170006INS_17_ClassicAlgPolicyERNS_6__lessIvvEENS_16__deque_iteratorIxPxRxPS6_lLl512EEEEEvT1_OT0_NS_15iterator_traitsISA_E15difference_typeESA_, symObjAddr: 0x151FC, symBinAddr: 0x100017700, symSize: 0x948 }
  - { offsetInCU: 0x8BE9, offset: 0x8BE9, size: 0x8, addend: 0x0, symName: __ZNSt3__117__floyd_sift_downB8ue170006INS_17_ClassicAlgPolicyERNS_6__lessIvvEENS_16__deque_iteratorIxPxRxPS6_lLl512EEEEET1_SA_OT0_NS_15iterator_traitsISA_E15difference_typeE, symObjAddr: 0x15FF8, symBinAddr: 0x1000184FC, symSize: 0x464 }
  - { offsetInCU: 0x8D55, offset: 0x8D55, size: 0x8, addend: 0x0, symName: __ZNSt3__131__partition_with_equals_on_leftB8ue170006INS_17_ClassicAlgPolicyENS_16__deque_iteratorIxPxRxPS3_lLl512EEERNS_6__lessIvvEEEET0_SA_SA_T1_, symObjAddr: 0x11F0C, symBinAddr: 0x100014410, symSize: 0x6B4 }
  - { offsetInCU: 0x9100, offset: 0x9100, size: 0x8, addend: 0x0, symName: __ZNSt3__132__partition_with_equals_on_rightB8ue170006INS_17_ClassicAlgPolicyENS_16__deque_iteratorIxPxRxPS3_lLl512EEERNS_6__lessIvvEEEENS_4pairIT0_bEESB_SB_T1_, symObjAddr: 0x125C0, symBinAddr: 0x100014AC4, symSize: 0x6F0 }
  - { offsetInCU: 0x950B, offset: 0x950B, size: 0x8, addend: 0x0, symName: __ZNSt3__127__insertion_sort_incompleteB8ue170006INS_17_ClassicAlgPolicyERNS_6__lessIvvEENS_16__deque_iteratorIxPxRxPS6_lLl512EEEEEbT1_SA_T0_, symObjAddr: 0x12CB0, symBinAddr: 0x1000151B4, symSize: 0xD40 }
  - { offsetInCU: 0xBEDB, offset: 0xBEDB, size: 0x8, addend: 0x0, symName: __ZNSt3__1lsB8ue170006IcNS_11char_traitsIcEENS_9allocatorIcEEEERNS_13basic_ostreamIT_T0_EES9_RKNS_12basic_stringIS6_S7_T1_EE, symObjAddr: 0xB8C, symBinAddr: 0x100003090, symSize: 0x48 }
  - { offsetInCU: 0xBF95, offset: 0xBF95, size: 0x8, addend: 0x0, symName: __ZNSt3__1neB8ue170006ERKNS_14__bit_iteratorINS_6vectorIbNS_9allocatorIbEEEELb0ELm0EEES7_, symObjAddr: 0x1104, symBinAddr: 0x100003608, symSize: 0xC4 }
  - { offsetInCU: 0xC1E4, offset: 0xC1E4, size: 0x8, addend: 0x0, symName: __ZNSt3__1miB8ue170006ERKNS_16__deque_iteratorIxPxRxPS1_lLl512EEES6_, symObjAddr: 0xEFD8, symBinAddr: 0x1000114DC, symSize: 0x2AC }
  - { offsetInCU: 0xC263, offset: 0xC263, size: 0x8, addend: 0x0, symName: __ZNSt3__1eqB8ue170006IPxEEbRKNS_11__wrap_iterIT_EES6_, symObjAddr: 0x4580, symBinAddr: 0x100006A84, symSize: 0x58 }
  - { offsetInCU: 0xC2C0, offset: 0xC2C0, size: 0x8, addend: 0x0, symName: __ZNSt3__116__pad_and_outputB8ue170006IcNS_11char_traitsIcEEEENS_19ostreambuf_iteratorIT_T0_EES6_PKS4_S8_S8_RNS_8ios_baseES4_, symObjAddr: 0x4EE8, symBinAddr: 0x1000073EC, symSize: 0x800 }
  - { offsetInCU: 0xC524, offset: 0xC524, size: 0x8, addend: 0x0, symName: __ZNSt3__120__throw_length_errorB8ue170006EPKc, symObjAddr: 0x5D44, symBinAddr: 0x100008248, symSize: 0x78 }
  - { offsetInCU: 0xCA01, offset: 0xCA01, size: 0x8, addend: 0x0, symName: __ZNSt3__19use_facetB8ue170006INS_5ctypeIcEEEERKT_RKNS_6localeE, symObjAddr: 0x6894, symBinAddr: 0x100008D98, symSize: 0x100 }
  - { offsetInCU: 0xD6EE, offset: 0xD6EE, size: 0x8, addend: 0x0, symName: __ZNSt3__119__allocate_at_leastB8ue170006INS_9allocatorIPxEEEENS_19__allocation_resultINS_16allocator_traitsIT_E7pointerEEERS6_m, symObjAddr: 0xE320, symBinAddr: 0x100010824, symSize: 0x44 }
  - { offsetInCU: 0xD924, offset: 0xD924, size: 0x8, addend: 0x0, symName: __ZNSt3__17__sort3B8ue170006INS_17_ClassicAlgPolicyERNS_6__lessIvvEENS_16__deque_iteratorIxPxRxPS6_lLl512EEEEEjT1_SA_SA_T0_, symObjAddr: 0x11700, symBinAddr: 0x100013C04, symSize: 0x6D8 }
  - { offsetInCU: 0xDBE0, offset: 0xDBE0, size: 0x8, addend: 0x0, symName: __ZNSt3__17__sort5B8ue170006INS_17_ClassicAlgPolicyERNS_6__lessIvvEENS_16__deque_iteratorIxPxRxPS6_lLl512EEEEEvT1_SA_SA_SA_SA_T0_, symObjAddr: 0x143C0, symBinAddr: 0x1000168C4, symSize: 0x60C }
  - { offsetInCU: 0xDE21, offset: 0xDE21, size: 0x8, addend: 0x0, symName: __ZNSt3__17__sort4B8ue170006INS_17_ClassicAlgPolicyERNS_6__lessIvvEENS_16__deque_iteratorIxPxRxPS6_lLl512EEEEEvT1_SA_SA_SA_T0_, symObjAddr: 0x13EF8, symBinAddr: 0x1000163FC, symSize: 0x4C8 }
  - { offsetInCU: 0xDFEA, offset: 0xDFEA, size: 0x8, addend: 0x0, symName: __ZNSt3__116__insertion_sortB8ue170006INS_17_ClassicAlgPolicyERNS_6__lessIvvEENS_16__deque_iteratorIxPxRxPS6_lLl512EEEEEvT1_SA_T0_, symObjAddr: 0x10C7C, symBinAddr: 0x100013180, symSize: 0x4C8 }
  - { offsetInCU: 0xE21A, offset: 0xE21A, size: 0x8, addend: 0x0, symName: __ZNSt3__119__partial_sort_implB8ue170006INS_17_ClassicAlgPolicyERNS_6__lessIvvEENS_16__deque_iteratorIxPxRxPS6_lLl512EEES9_EET1_SA_SA_T2_OT0_, symObjAddr: 0x14A3C, symBinAddr: 0x100016F40, symSize: 0x7C0 }
  - { offsetInCU: 0xE5A5, offset: 0xE5A5, size: 0x8, addend: 0x0, symName: __ZNSt3__1ltB8ue170006ERKNS_16__deque_iteratorIxPxRxPS1_lLl512EEES6_, symObjAddr: 0x169E4, symBinAddr: 0x100018EE8, symSize: 0xB0 }
  - { offsetInCU: 0xE827, offset: 0xE827, size: 0x8, addend: 0x0, symName: __ZNSt3__110__pop_heapB8ue170006INS_17_ClassicAlgPolicyENS_6__lessIvvEENS_16__deque_iteratorIxPxRxPS5_lLl512EEEEEvT1_S9_RT0_NS_15iterator_traitsIS9_E15difference_typeE, symObjAddr: 0x15B44, symBinAddr: 0x100018048, symSize: 0x4B4 }
  - { offsetInCU: 0xE9DA, offset: 0xE9DA, size: 0x8, addend: 0x0, symName: __ZNSt3__19__sift_upB8ue170006INS_17_ClassicAlgPolicyERNS_6__lessIvvEENS_16__deque_iteratorIxPxRxPS6_lLl512EEEEEvT1_SA_OT0_NS_15iterator_traitsISA_E15difference_typeE, symObjAddr: 0x1645C, symBinAddr: 0x100018960, symSize: 0x588 }
  - { offsetInCU: 0xEEBC, offset: 0xEEBC, size: 0x8, addend: 0x0, symName: __ZNSt3__119__allocate_at_leastB8ue170006INS_9allocatorIxEEEENS_19__allocation_resultINS_16allocator_traitsIT_E7pointerEEERS5_m, symObjAddr: 0x18F58, symBinAddr: 0x10001B45C, symSize: 0x44 }
  - { offsetInCU: 0xF2E5, offset: 0xF2E5, size: 0x8, addend: 0x0, symName: __ZSt28__throw_bad_array_new_lengthB8ue170006v, symObjAddr: 0x5F34, symBinAddr: 0x100008438, symSize: 0x5C }
  - { offsetInCU: 0xFD65, offset: 0xFD65, size: 0x8, addend: 0x0, symName: __ZNSt3__16vectorIxNS_9allocatorIxEEE26__swap_out_circular_bufferERNS_14__split_bufferIxRS2_EE, symObjAddr: 0x185EC, symBinAddr: 0x10001AAF0, symSize: 0x440 }
  - { offsetInCU: 0x12533, offset: 0x12533, size: 0x8, addend: 0x0, symName: __ZN14__DEBUG_UTIL__5printEPKc, symObjAddr: 0x0, symBinAddr: 0x100002504, symSize: 0x30 }
  - { offsetInCU: 0x125C1, offset: 0x125C1, size: 0x8, addend: 0x0, symName: __ZN14__DEBUG_UTIL__5printEb, symObjAddr: 0x30, symBinAddr: 0x100002534, symSize: 0x28 }
  - { offsetInCU: 0x1261C, offset: 0x1261C, size: 0x8, addend: 0x0, symName: __ZN14__DEBUG_UTIL__5printEc, symObjAddr: 0x58, symBinAddr: 0x10000255C, symSize: 0x21C }
  - { offsetInCU: 0x126F5, offset: 0x126F5, size: 0x8, addend: 0x0, symName: __ZN14__DEBUG_UTIL__5printEs, symObjAddr: 0x274, symBinAddr: 0x100002778, symSize: 0xA8 }
  - { offsetInCU: 0x1271E, offset: 0x1271E, size: 0x8, addend: 0x0, symName: __ZN14__DEBUG_UTIL__5printEt, symObjAddr: 0x31C, symBinAddr: 0x100002820, symSize: 0xA8 }
  - { offsetInCU: 0x12747, offset: 0x12747, size: 0x8, addend: 0x0, symName: __ZN14__DEBUG_UTIL__5printEi, symObjAddr: 0x3C4, symBinAddr: 0x1000028C8, symSize: 0xA8 }
  - { offsetInCU: 0x12770, offset: 0x12770, size: 0x8, addend: 0x0, symName: __ZN14__DEBUG_UTIL__5printEj, symObjAddr: 0x46C, symBinAddr: 0x100002970, symSize: 0xA8 }
  - { offsetInCU: 0x12799, offset: 0x12799, size: 0x8, addend: 0x0, symName: __ZN14__DEBUG_UTIL__5printEl, symObjAddr: 0x514, symBinAddr: 0x100002A18, symSize: 0xA8 }
  - { offsetInCU: 0x127C2, offset: 0x127C2, size: 0x8, addend: 0x0, symName: __ZN14__DEBUG_UTIL__5printEm, symObjAddr: 0x5BC, symBinAddr: 0x100002AC0, symSize: 0xA8 }
  - { offsetInCU: 0x127EC, offset: 0x127EC, size: 0x8, addend: 0x0, symName: __ZN14__DEBUG_UTIL__5printEx, symObjAddr: 0x664, symBinAddr: 0x100002B68, symSize: 0xA8 }
  - { offsetInCU: 0x12809, offset: 0x12809, size: 0x8, addend: 0x0, symName: __ZN14__DEBUG_UTIL__5printEy, symObjAddr: 0x70C, symBinAddr: 0x100002C10, symSize: 0xA8 }
  - { offsetInCU: 0x12832, offset: 0x12832, size: 0x8, addend: 0x0, symName: __ZN14__DEBUG_UTIL__5printEf, symObjAddr: 0x7B4, symBinAddr: 0x100002CB8, symSize: 0xA0 }
  - { offsetInCU: 0x1285B, offset: 0x1285B, size: 0x8, addend: 0x0, symName: __ZN14__DEBUG_UTIL__5printEd, symObjAddr: 0x854, symBinAddr: 0x100002D58, symSize: 0xA0 }
  - { offsetInCU: 0x12884, offset: 0x12884, size: 0x8, addend: 0x0, symName: __ZN14__DEBUG_UTIL__5printEe, symObjAddr: 0x8F4, symBinAddr: 0x100002DF8, symSize: 0xA0 }
  - { offsetInCU: 0x128AD, offset: 0x128AD, size: 0x8, addend: 0x0, symName: __ZN14__DEBUG_UTIL__5printENSt3__112basic_stringIcNS0_11char_traitsIcEENS0_9allocatorIcEEEE, symObjAddr: 0x994, symBinAddr: 0x100002E98, symSize: 0x1F8 }
  - { offsetInCU: 0x12959, offset: 0x12959, size: 0x8, addend: 0x0, symName: __ZN14__DEBUG_UTIL__5printENSt3__16vectorIbNS0_9allocatorIbEEEE, symObjAddr: 0xBD4, symBinAddr: 0x1000030D8, symSize: 0x4E4 }
  - { offsetInCU: 0x12BCA, offset: 0x12BCA, size: 0x8, addend: 0x0, symName: __ZN14__DEBUG_UTIL__7printerEPKc, symObjAddr: 0x1518, symBinAddr: 0x100003A1C, symSize: 0x4 }
  - { offsetInCU: 0x12BEF, offset: 0x12BEF, size: 0x8, addend: 0x0, symName: __ZN14__DEBUG_UTIL__10printerArrEPKc, symObjAddr: 0x151C, symBinAddr: 0x100003A20, symSize: 0x4 }
  - { offsetInCU: 0x12C13, offset: 0x12C13, size: 0x8, addend: 0x0, symName: __ZN14__DEBUG_UTIL__7printerIRxJEEEvPKcOT_DpOT0_, symObjAddr: 0x31C4, symBinAddr: 0x1000056C8, symSize: 0x69C }
  - { offsetInCU: 0x12D3A, offset: 0x12D3A, size: 0x8, addend: 0x0, symName: __ZNKSt3__112basic_stringIcNS_11char_traitsIcEENS_9allocatorIcEEE13__get_pointerB8ue170006Ev, symObjAddr: 0x6B8C, symBinAddr: 0x100009090, symSize: 0x5C }
  - { offsetInCU: 0x12D9D, offset: 0x12D9D, size: 0x8, addend: 0x0, symName: __ZNKSt3__112basic_stringIcNS_11char_traitsIcEENS_9allocatorIcEEE4sizeB8ue170006Ev, symObjAddr: 0x6B30, symBinAddr: 0x100009034, symSize: 0x5C }
  - { offsetInCU: 0x12EBE, offset: 0x12EBE, size: 0x8, addend: 0x0, symName: __ZNKSt3__114__bit_iteratorINS_6vectorIbNS_9allocatorIbEEEELb0ELm0EEdeB8ue170006Ev, symObjAddr: 0x11C8, symBinAddr: 0x1000036CC, symSize: 0xCC }
  - { offsetInCU: 0x12EE5, offset: 0x12EE5, size: 0x8, addend: 0x0, symName: __ZNKSt3__115__bit_referenceINS_6vectorIbNS_9allocatorIbEEEELb1EEcvbB8ue170006Ev, symObjAddr: 0x1294, symBinAddr: 0x100003798, symSize: 0xE4 }
  - { offsetInCU: 0x12F0C, offset: 0x12F0C, size: 0x8, addend: 0x0, symName: __ZNSt3__114__bit_iteratorINS_6vectorIbNS_9allocatorIbEEEELb0ELm0EEppB8ue170006Ev, symObjAddr: 0x1378, symBinAddr: 0x10000387C, symSize: 0x1A0 }
  - { offsetInCU: 0x12F33, offset: 0x12F33, size: 0x8, addend: 0x0, symName: __ZNSt3__16vectorIbNS_9allocatorIbEEE5beginB8ue170006Ev, symObjAddr: 0x10B8, symBinAddr: 0x1000035BC, symSize: 0x4C }
  - { offsetInCU: 0x12F68, offset: 0x12F68, size: 0x8, addend: 0x0, symName: __ZNSt3__16vectorIbNS_9allocatorIbEEE11__make_iterB8ue170006Em, symObjAddr: 0x6DF0, symBinAddr: 0x1000092F4, symSize: 0x168 }
  - { offsetInCU: 0x131D2, offset: 0x131D2, size: 0x8, addend: 0x0, symName: __Z5solvev, symObjAddr: 0x1520, symBinAddr: 0x100003A24, symSize: 0x13B4 }
  - { offsetInCU: 0x13BE2, offset: 0x13BE2, size: 0x8, addend: 0x0, symName: __ZNSt3__15dequeIxNS_9allocatorIxEEEC2B8ue170006Ev, symObjAddr: 0x6F58, symBinAddr: 0x10000945C, symSize: 0x20C }
  - { offsetInCU: 0x13C70, offset: 0x13C70, size: 0x8, addend: 0x0, symName: __ZNSt3__15dequeIxNS_9allocatorIxEEE9push_backEOx, symObjAddr: 0x28D4, symBinAddr: 0x100004DD8, symSize: 0x120 }
  - { offsetInCU: 0x13D7F, offset: 0x13D7F, size: 0x8, addend: 0x0, symName: __ZNSt3__15dequeIxNS_9allocatorIxEEE5beginB8ue170006Ev, symObjAddr: 0x29F4, symBinAddr: 0x100004EF8, symSize: 0x1F0 }
  - { offsetInCU: 0x13DDA, offset: 0x13DDA, size: 0x8, addend: 0x0, symName: __ZNSt3__15dequeIxNS_9allocatorIxEEE3endB8ue170006Ev, symObjAddr: 0x2BE4, symBinAddr: 0x1000050E8, symSize: 0x1E4 }
  - { offsetInCU: 0x13E77, offset: 0x13E77, size: 0x8, addend: 0x0, symName: __ZNSt3__117__compressed_pairIPxNS_9allocatorIxEEEC2B8ue170006IDnNS_18__default_init_tagEEEOT_OT0_, symObjAddr: 0x16A94, symBinAddr: 0x100018F98, symSize: 0xB0 }
  - { offsetInCU: 0x13EF6, offset: 0x13EF6, size: 0x8, addend: 0x0, symName: __ZNKSt3__117__compressed_pairImNS_9allocatorIxEEE5firstB8ue170006Ev, symObjAddr: 0x17458, symBinAddr: 0x10001995C, symSize: 0xCC }
  - { offsetInCU: 0x13F3B, offset: 0x13F3B, size: 0x8, addend: 0x0, symName: __ZNSt3__15dequeIxNS_9allocatorIxEEE4backEv, symObjAddr: 0x2DC8, symBinAddr: 0x1000052CC, symSize: 0x20C }
  - { offsetInCU: 0x13FB6, offset: 0x13FB6, size: 0x8, addend: 0x0, symName: __ZNSt3__15dequeIxNS_9allocatorIxEEE5frontEv, symObjAddr: 0x2FD4, symBinAddr: 0x1000054D8, symSize: 0x1F0 }
  - { offsetInCU: 0x13FF6, offset: 0x13FF6, size: 0x8, addend: 0x0, symName: __ZNSt3__16vectorIxNS_9allocatorIxEEE9push_backB8ue170006ERKx, symObjAddr: 0x3860, symBinAddr: 0x100005D64, symSize: 0xB0 }
  - { offsetInCU: 0x1405F, offset: 0x1405F, size: 0x8, addend: 0x0, symName: __ZNSt3__15dequeIxNS_9allocatorIxEEE8pop_backEv, symObjAddr: 0x3910, symBinAddr: 0x100005E14, symSize: 0x264 }
  - { offsetInCU: 0x14192, offset: 0x14192, size: 0x8, addend: 0x0, symName: __ZNSt3__15dequeIxNS_9allocatorIxEEE9pop_frontEv, symObjAddr: 0x3B74, symBinAddr: 0x100006078, symSize: 0x264 }
  - { offsetInCU: 0x1428A, offset: 0x1428A, size: 0x8, addend: 0x0, symName: __ZNKSt3__16vectorIxNS_9allocatorIxEEE4sizeB8ue170006Ev, symObjAddr: 0x3DD8, symBinAddr: 0x1000062DC, symSize: 0x8C }
  - { offsetInCU: 0x142B1, offset: 0x142B1, size: 0x8, addend: 0x0, symName: __ZNSt3__16vectorIxNS_9allocatorIxEEE16__destroy_vectorclB8ue170006Ev, symObjAddr: 0x16B44, symBinAddr: 0x100019048, symSize: 0x240 }
  - { offsetInCU: 0x143E1, offset: 0x143E1, size: 0x8, addend: 0x0, symName: __ZNSt3__15dequeIxNS_9allocatorIxEEED2B8ue170006Ev, symObjAddr: 0x8124, symBinAddr: 0x10000A628, symSize: 0x1C8 }
  - { offsetInCU: 0x14593, offset: 0x14593, size: 0x8, addend: 0x0, symName: __ZNSt3__16vectorIxNS_9allocatorIxEEED1B8ue170006Ev, symObjAddr: 0x3E64, symBinAddr: 0x100006368, symSize: 0x1A0 }
  - { offsetInCU: 0x145F4, offset: 0x145F4, size: 0x8, addend: 0x0, symName: __ZNSt3__15dequeIxNS_9allocatorIxEEED1B8ue170006Ev, symObjAddr: 0x4004, symBinAddr: 0x100006508, symSize: 0x48 }
  - { offsetInCU: 0x146CD, offset: 0x146CD, size: 0x8, addend: 0x0, symName: __ZNSt3__15dequeIxNS_9allocatorIxEEE7__allocB8ue170006Ev, symObjAddr: 0x8834, symBinAddr: 0x10000AD38, symSize: 0x70 }
  - { offsetInCU: 0x14702, offset: 0x14702, size: 0x8, addend: 0x0, symName: __ZNKSt3__15dequeIxNS_9allocatorIxEEE12__back_spareB8ue170006Ev, symObjAddr: 0x96BC, symBinAddr: 0x10000BBC0, symSize: 0xC4 }
  - { offsetInCU: 0x14768, offset: 0x14768, size: 0x8, addend: 0x0, symName: __ZNSt3__15dequeIxNS_9allocatorIxEEE19__add_back_capacityEv, symObjAddr: 0x9780, symBinAddr: 0x10000BC84, symSize: 0xAE0 }
  - { offsetInCU: 0x14DE3, offset: 0x14DE3, size: 0x8, addend: 0x0, symName: __ZNKSt3__15dequeIxNS_9allocatorIxEEE24__annotate_increase_backB8ue170006Em, symObjAddr: 0xA260, symBinAddr: 0x10000C764, symSize: 0x128 }
  - { offsetInCU: 0x14E8E, offset: 0x14E8E, size: 0x8, addend: 0x0, symName: __ZNSt3__15dequeIxNS_9allocatorIxEEE6__sizeB8ue170006Ev, symObjAddr: 0x8B50, symBinAddr: 0x10000B054, symSize: 0x70 }
  - { offsetInCU: 0x14EDF, offset: 0x14EDF, size: 0x8, addend: 0x0, symName: __ZNKSt3__114__split_bufferIPxNS_9allocatorIS1_EEE5emptyB8ue170006Ev, symObjAddr: 0xEF48, symBinAddr: 0x10001144C, symSize: 0x90 }
  - { offsetInCU: 0x14F06, offset: 0x14F06, size: 0x8, addend: 0x0, symName: __ZNKSt3__15dequeIxNS_9allocatorIxEEE6__sizeB8ue170006Ev, symObjAddr: 0x173E8, symBinAddr: 0x1000198EC, symSize: 0x70 }
  - { offsetInCU: 0x14F36, offset: 0x14F36, size: 0x8, addend: 0x0, symName: __ZNSt3__16vectorIxNS_9allocatorIxEEE9__end_capB8ue170006Ev, symObjAddr: 0x17524, symBinAddr: 0x100019A28, symSize: 0x70 }
  - { offsetInCU: 0x14F66, offset: 0x14F66, size: 0x8, addend: 0x0, symName: __ZNSt3__16vectorIxNS_9allocatorIxEEE22__construct_one_at_endB8ue170006IJRKxEEEvDpOT_, symObjAddr: 0x17594, symBinAddr: 0x100019A98, symSize: 0x2F4 }
  - { offsetInCU: 0x150B9, offset: 0x150B9, size: 0x8, addend: 0x0, symName: __ZNSt3__16vectorIxNS_9allocatorIxEEE21__push_back_slow_pathIRKxEEvOT_, symObjAddr: 0x17888, symBinAddr: 0x100019D8C, symSize: 0x320 }
  - { offsetInCU: 0x1525A, offset: 0x1525A, size: 0x8, addend: 0x0, symName: __ZNKSt3__15dequeIxNS_9allocatorIxEEE22__annotate_shrink_backB8ue170006Emm, symObjAddr: 0x19E08, symBinAddr: 0x10001C30C, symSize: 0x9C }
  - { offsetInCU: 0x152EA, offset: 0x152EA, size: 0x8, addend: 0x0, symName: __ZNSt3__15dequeIxNS_9allocatorIxEEE25__maybe_remove_back_spareB8ue170006Eb, symObjAddr: 0x19EA4, symBinAddr: 0x10001C3A8, symSize: 0x15C }
  - { offsetInCU: 0x154C5, offset: 0x154C5, size: 0x8, addend: 0x0, symName: __ZNKSt3__15dequeIxNS_9allocatorIxEEE23__annotate_shrink_frontB8ue170006Emm, symObjAddr: 0x1A1A8, symBinAddr: 0x10001C6AC, symSize: 0xA0 }
  - { offsetInCU: 0x1555B, offset: 0x1555B, size: 0x8, addend: 0x0, symName: __ZNSt3__15dequeIxNS_9allocatorIxEEE26__maybe_remove_front_spareB8ue170006Eb, symObjAddr: 0x1A248, symBinAddr: 0x10001C74C, symSize: 0x164 }
  - { offsetInCU: 0x156BB, offset: 0x156BB, size: 0x8, addend: 0x0, symName: _main, symObjAddr: 0x404C, symBinAddr: 0x100006550, symSize: 0x394 }
  - { offsetInCU: 0x15718, offset: 0x15718, size: 0x8, addend: 0x0, symName: __ZNSt3__19basic_iosIcNS_11char_traitsIcEEE3tieB8ue170006EPNS_13basic_ostreamIcS2_EE, symObjAddr: 0x43E0, symBinAddr: 0x1000068E4, symSize: 0x1A0 }
  - { offsetInCU: 0x157F9, offset: 0x157F9, size: 0x8, addend: 0x0, symName: __ZNSt3__119ostreambuf_iteratorIcNS_11char_traitsIcEEEC2B8ue170006ERNS_13basic_ostreamIcS2_EE, symObjAddr: 0x61DC, symBinAddr: 0x1000086E0, symSize: 0x298 }
  - { offsetInCU: 0x15856, offset: 0x15856, size: 0x8, addend: 0x0, symName: __ZNKSt3__19basic_iosIcNS_11char_traitsIcEEE4fillB8ue170006Ev, symObjAddr: 0x56E8, symBinAddr: 0x100007BEC, symSize: 0x248 }
  - { offsetInCU: 0x15899, offset: 0x15899, size: 0x8, addend: 0x0, symName: __ZNSt3__19basic_iosIcNS_11char_traitsIcEEE8setstateB8ue170006Ej, symObjAddr: 0x5930, symBinAddr: 0x100007E34, symSize: 0xFC }
  - { offsetInCU: 0x159A2, offset: 0x159A2, size: 0x8, addend: 0x0, symName: __ZNSt3__117__compressed_pairINS_12basic_stringIcNS_11char_traitsIcEENS_9allocatorIcEEE5__repES5_EC1B8ue170006INS_18__default_init_tagESA_EEOT_OT0_, symObjAddr: 0x5BD8, symBinAddr: 0x1000080DC, symSize: 0x98 }
  - { offsetInCU: 0x15A40, offset: 0x15A40, size: 0x8, addend: 0x0, symName: __ZNSt3__112basic_stringIcNS_11char_traitsIcEENS_9allocatorIcEEE13__get_pointerB8ue170006Ev, symObjAddr: 0x5F90, symBinAddr: 0x100008494, symSize: 0x5C }
  - { offsetInCU: 0x15AA3, offset: 0x15AA3, size: 0x8, addend: 0x0, symName: __ZNSt3__18ios_base5widthB8ue170006El, symObjAddr: 0x5A38, symBinAddr: 0x100007F3C, symSize: 0x1A0 }
  - { offsetInCU: 0x15AEC, offset: 0x15AEC, size: 0x8, addend: 0x0, symName: __ZNKSt3__19basic_iosIcNS_11char_traitsIcEEE5widenB8ue170006Ec, symObjAddr: 0x6554, symBinAddr: 0x100008A58, symSize: 0x340 }
  - { offsetInCU: 0x15B70, offset: 0x15B70, size: 0x8, addend: 0x0, symName: __ZNSt3__18ios_base8setstateB8ue170006Ej, symObjAddr: 0x6994, symBinAddr: 0x100008E98, symSize: 0x19C }
  - { offsetInCU: 0x15C0D, offset: 0x15C0D, size: 0x8, addend: 0x0, symName: __ZNSt3__122__compressed_pair_elemINS_9allocatorIcEELi1ELb1EEC2B8ue170006ENS_18__default_init_tagE, symObjAddr: 0x5C70, symBinAddr: 0x100008174, symSize: 0x7C }
  - { offsetInCU: 0x15CBE, offset: 0x15CBE, size: 0x8, addend: 0x0, symName: __ZNSt3__112basic_stringIcNS_11char_traitsIcEENS_9allocatorIcEEE19__get_short_pointerB8ue170006Ev, symObjAddr: 0x5CEC, symBinAddr: 0x1000081F0, symSize: 0x58 }
  - { offsetInCU: 0x15CF3, offset: 0x15CF3, size: 0x8, addend: 0x0, symName: __ZNSt3__117__compressed_pairINS_12basic_stringIcNS_11char_traitsIcEENS_9allocatorIcEEE5__repES5_E5firstB8ue170006Ev, symObjAddr: 0x5E68, symBinAddr: 0x10000836C, symSize: 0xCC }
  - { offsetInCU: 0x15D38, offset: 0x15D38, size: 0x8, addend: 0x0, symName: __ZNSt12length_errorC1B8ue170006EPKc, symObjAddr: 0x5DBC, symBinAddr: 0x1000082C0, symSize: 0xAC }
  - { offsetInCU: 0x15DD2, offset: 0x15DD2, size: 0x8, addend: 0x0, symName: __ZNKSt3__112basic_stringIcNS_11char_traitsIcEENS_9allocatorIcEEE9__is_longB8ue170006Ev, symObjAddr: 0x5FEC, symBinAddr: 0x1000084F0, symSize: 0x9C }
  - { offsetInCU: 0x15E06, offset: 0x15E06, size: 0x8, addend: 0x0, symName: __ZNSt3__112basic_stringIcNS_11char_traitsIcEENS_9allocatorIcEEE18__get_long_pointerB8ue170006Ev, symObjAddr: 0x6088, symBinAddr: 0x10000858C, symSize: 0x88 }
  - { offsetInCU: 0x15E3A, offset: 0x15E3A, size: 0x8, addend: 0x0, symName: __ZNKSt3__117__compressed_pairINS_12basic_stringIcNS_11char_traitsIcEENS_9allocatorIcEEE5__repES5_E5firstB8ue170006Ev, symObjAddr: 0x6110, symBinAddr: 0x100008614, symSize: 0xCC }
  - { offsetInCU: 0x15EB9, offset: 0x15EB9, size: 0x8, addend: 0x0, symName: __ZNKSt3__18ios_base5rdbufB8ue170006Ev, symObjAddr: 0x6474, symBinAddr: 0x100008978, symSize: 0xE0 }
  - { offsetInCU: 0x15F41, offset: 0x15F41, size: 0x8, addend: 0x0, symName: __ZNKSt3__112basic_stringIcNS_11char_traitsIcEENS_9allocatorIcEEE15__get_long_sizeB8ue170006Ev, symObjAddr: 0x6CC8, symBinAddr: 0x1000091CC, symSize: 0x8C }
  - { offsetInCU: 0x15F75, offset: 0x15F75, size: 0x8, addend: 0x0, symName: __ZNKSt3__112basic_stringIcNS_11char_traitsIcEENS_9allocatorIcEEE16__get_short_sizeB8ue170006Ev, symObjAddr: 0x6D54, symBinAddr: 0x100009258, symSize: 0x9C }
  - { offsetInCU: 0x15FA9, offset: 0x15FA9, size: 0x8, addend: 0x0, symName: __ZNKSt3__112basic_stringIcNS_11char_traitsIcEENS_9allocatorIcEEE18__get_long_pointerB8ue170006Ev, symObjAddr: 0x6BE8, symBinAddr: 0x1000090EC, symSize: 0x88 }
  - { offsetInCU: 0x15FDD, offset: 0x15FDD, size: 0x8, addend: 0x0, symName: __ZNKSt3__112basic_stringIcNS_11char_traitsIcEENS_9allocatorIcEEE19__get_short_pointerB8ue170006Ev, symObjAddr: 0x6C70, symBinAddr: 0x100009174, symSize: 0x58 }
  - { offsetInCU: 0x1605A, offset: 0x1605A, size: 0x8, addend: 0x0, symName: __ZNSt3__114__split_bufferIPxNS_9allocatorIS1_EEEC1B8ue170006Ev, symObjAddr: 0x7164, symBinAddr: 0x100009668, symSize: 0x204 }
  - { offsetInCU: 0x160D7, offset: 0x160D7, size: 0x8, addend: 0x0, symName: __ZNSt3__117__compressed_pairImNS_9allocatorIxEEEC2B8ue170006IiNS_18__default_init_tagEEEOT_OT0_, symObjAddr: 0x75AC, symBinAddr: 0x100009AB0, symSize: 0xE8 }
  - { offsetInCU: 0x1615F, offset: 0x1615F, size: 0x8, addend: 0x0, symName: __ZNKSt3__15dequeIxNS_9allocatorIxEEE14__annotate_newB8ue170006Em, symObjAddr: 0x7368, symBinAddr: 0x10000986C, symSize: 0x118 }
  - { offsetInCU: 0x16255, offset: 0x16255, size: 0x8, addend: 0x0, symName: __ZNSt3__117__compressed_pairIPPxNS_9allocatorIS1_EEEC2B8ue170006IDnNS_18__default_init_tagEEEOT_OT0_, symObjAddr: 0x7480, symBinAddr: 0x100009984, symSize: 0xB0 }
  - { offsetInCU: 0x162D4, offset: 0x162D4, size: 0x8, addend: 0x0, symName: __ZNKSt3__15dequeIxNS_9allocatorIxEEE18__annotate_from_toB8ue170006EmmNS3_22__asan_annotation_typeENS3_23__asan_annotation_placeE, symObjAddr: 0x7710, symBinAddr: 0x100009C14, symSize: 0x8F4 }
  - { offsetInCU: 0x1652E, offset: 0x1652E, size: 0x8, addend: 0x0, symName: __ZNKSt3__114__split_bufferIPxNS_9allocatorIS1_EEE4sizeB8ue170006Ev, symObjAddr: 0x8004, symBinAddr: 0x10000A508, symSize: 0x90 }
  - { offsetInCU: 0x16584, offset: 0x16584, size: 0x8, addend: 0x0, symName: __ZNSt3__122__compressed_pair_elemINS_9allocatorIPxEELi1ELb1EEC2B8ue170006ENS_18__default_init_tagE, symObjAddr: 0x7530, symBinAddr: 0x100009A34, symSize: 0x7C }
  - { offsetInCU: 0x16664, offset: 0x16664, size: 0x8, addend: 0x0, symName: __ZNSt3__122__compressed_pair_elemINS_9allocatorIxEELi1ELb1EEC2B8ue170006ENS_18__default_init_tagE, symObjAddr: 0x7694, symBinAddr: 0x100009B98, symSize: 0x7C }
  - { offsetInCU: 0x16777, offset: 0x16777, size: 0x8, addend: 0x0, symName: __ZNKSt3__15dequeIxNS_9allocatorIxEEE5emptyB8ue170006Ev, symObjAddr: 0x8094, symBinAddr: 0x10000A598, symSize: 0x90 }
  - { offsetInCU: 0x16851, offset: 0x16851, size: 0x8, addend: 0x0, symName: __ZNSt3__15dequeIxNS_9allocatorIxEEE5clearEv, symObjAddr: 0x82EC, symBinAddr: 0x10000A7F0, symSize: 0x3C8 }
  - { offsetInCU: 0x16A7B, offset: 0x16A7B, size: 0x8, addend: 0x0, symName: __ZNKSt3__15dequeIxNS_9allocatorIxEEE17__annotate_deleteB8ue170006Ev, symObjAddr: 0x86B4, symBinAddr: 0x10000ABB8, symSize: 0x180 }
  - { offsetInCU: 0x16B8C, offset: 0x16B8C, size: 0x8, addend: 0x0, symName: __ZNSt3__114__split_bufferIPxNS_9allocatorIS1_EEED2Ev, symObjAddr: 0x9110, symBinAddr: 0x10000B614, symSize: 0xF4 }
  - { offsetInCU: 0x16CB9, offset: 0x16CB9, size: 0x8, addend: 0x0, symName: __ZNSt3__116__deque_iteratorIxPxRxPS1_lLl512EEppB8ue170006Ev, symObjAddr: 0x88A4, symBinAddr: 0x10000ADA8, symSize: 0x2AC }
  - { offsetInCU: 0x16CE0, offset: 0x16CE0, size: 0x8, addend: 0x0, symName: __ZNSt3__114__split_bufferIPxNS_9allocatorIS1_EEE9pop_frontB8ue170006Ev, symObjAddr: 0x8BC0, symBinAddr: 0x10000B0C4, symSize: 0x140 }
  - { offsetInCU: 0x16D45, offset: 0x16D45, size: 0x8, addend: 0x0, symName: __ZNKSt3__15dequeIxNS_9allocatorIxEEE22__annotate_whole_blockB8ue170006EmNS3_22__asan_annotation_typeE, symObjAddr: 0x8DCC, symBinAddr: 0x10000B2D0, symSize: 0x270 }
  - { offsetInCU: 0x16DEA, offset: 0x16DEA, size: 0x8, addend: 0x0, symName: __ZNSt3__117__compressed_pairImNS_9allocatorIxEEE6secondB8ue170006Ev, symObjAddr: 0x903C, symBinAddr: 0x10000B540, symSize: 0xD4 }
  - { offsetInCU: 0x16E2E, offset: 0x16E2E, size: 0x8, addend: 0x0, symName: __ZNSt3__117__compressed_pairImNS_9allocatorIxEEE5firstB8ue170006Ev, symObjAddr: 0x8D00, symBinAddr: 0x10000B204, symSize: 0xCC }
  - { offsetInCU: 0x16F87, offset: 0x16F87, size: 0x8, addend: 0x0, symName: __ZNSt3__114__split_bufferIPxNS_9allocatorIS1_EEE5clearB8ue170006Ev, symObjAddr: 0x9204, symBinAddr: 0x10000B708, symSize: 0xAC }
  - { offsetInCU: 0x16FDB, offset: 0x16FDB, size: 0x8, addend: 0x0, symName: __ZNSt3__117__compressed_pairIPPxNS_9allocatorIS1_EEE6secondB8ue170006Ev, symObjAddr: 0x94AC, symBinAddr: 0x10000B9B0, symSize: 0xD4 }
  - { offsetInCU: 0x1701F, offset: 0x1701F, size: 0x8, addend: 0x0, symName: __ZNKSt3__114__split_bufferIPxNS_9allocatorIS1_EEE8capacityB8ue170006Ev, symObjAddr: 0x9320, symBinAddr: 0x10000B824, symSize: 0x8C }
  - { offsetInCU: 0x1707B, offset: 0x1707B, size: 0x8, addend: 0x0, symName: __ZNSt3__114__split_bufferIPxNS_9allocatorIS1_EEE17__destruct_at_endB8ue170006EPS1_NS_17integral_constantIbLb0EEE, symObjAddr: 0x93AC, symBinAddr: 0x10000B8B0, symSize: 0x100 }
  - { offsetInCU: 0x170CF, offset: 0x170CF, size: 0x8, addend: 0x0, symName: __ZNSt3__114__split_bufferIPxNS_9allocatorIS1_EEE7__allocB8ue170006Ev, symObjAddr: 0x92B0, symBinAddr: 0x10000B7B4, symSize: 0x70 }
  - { offsetInCU: 0x170FF, offset: 0x170FF, size: 0x8, addend: 0x0, symName: __ZNKSt3__114__split_bufferIPxNS_9allocatorIS1_EEE9__end_capB8ue170006Ev, symObjAddr: 0x9580, symBinAddr: 0x10000BA84, symSize: 0x70 }
  - { offsetInCU: 0x1714A, offset: 0x1714A, size: 0x8, addend: 0x0, symName: __ZNKSt3__117__compressed_pairIPPxNS_9allocatorIS1_EEE5firstB8ue170006Ev, symObjAddr: 0x95F0, symBinAddr: 0x10000BAF4, symSize: 0xCC }
  - { offsetInCU: 0x171AB, offset: 0x171AB, size: 0x8, addend: 0x0, symName: __ZNKSt3__15dequeIxNS_9allocatorIxEEE10__capacityB8ue170006Ev, symObjAddr: 0xA388, symBinAddr: 0x10000C88C, symSize: 0x84 }
  - { offsetInCU: 0x17411, offset: 0x17411, size: 0x8, addend: 0x0, symName: __ZNSt3__114__split_bufferIPxNS_9allocatorIS1_EEE9push_backB8ue170006ERKS1_, symObjAddr: 0xA40C, symBinAddr: 0x10000C910, symSize: 0x8F8 }
  - { offsetInCU: 0x17926, offset: 0x17926, size: 0x8, addend: 0x0, symName: __ZNKSt3__114__split_bufferIPxNS_9allocatorIS1_EEE12__back_spareB8ue170006Ev, symObjAddr: 0xAD04, symBinAddr: 0x10000D208, symSize: 0x90 }
  - { offsetInCU: 0x17961, offset: 0x17961, size: 0x8, addend: 0x0, symName: __ZNSt3__114__split_bufferIPxNS_9allocatorIS1_EEE9push_backEOS1_, symObjAddr: 0xAD94, symBinAddr: 0x10000D298, symSize: 0x8F8 }
  - { offsetInCU: 0x17E76, offset: 0x17E76, size: 0x8, addend: 0x0, symName: __ZNSt3__114__split_bufferIPxRNS_9allocatorIS1_EEEC2EmmS4_, symObjAddr: 0xDFC4, symBinAddr: 0x1000104C8, symSize: 0x35C }
  - { offsetInCU: 0x17F83, offset: 0x17F83, size: 0x8, addend: 0x0, symName: __ZNSt3__110unique_ptrIPxNS_22__allocator_destructorINS_9allocatorIxEEEEEC1B8ue170006ILb1EvEES1_NS_16__dependent_typeINS_27__unique_ptr_deleter_sfinaeIS5_EEXT_EE20__good_rval_ref_typeE, symObjAddr: 0xC0B0, symBinAddr: 0x10000E5B4, symSize: 0x20C }
  - { offsetInCU: 0x18039, offset: 0x18039, size: 0x8, addend: 0x0, symName: __ZNKSt3__117__compressed_pairIPxNS_22__allocator_destructorINS_9allocatorIxEEEEE5firstB8ue170006Ev, symObjAddr: 0xE564, symBinAddr: 0x100010A68, symSize: 0xCC }
  - { offsetInCU: 0x1807E, offset: 0x1807E, size: 0x8, addend: 0x0, symName: __ZNSt3__114__split_bufferIPxRNS_9allocatorIS1_EEE9push_backEOS1_, symObjAddr: 0xC2BC, symBinAddr: 0x10000E7C0, symSize: 0x8F8 }
  - { offsetInCU: 0x18593, offset: 0x18593, size: 0x8, addend: 0x0, symName: __ZNSt3__110unique_ptrIPxNS_22__allocator_destructorINS_9allocatorIxEEEEE7releaseB8ue170006Ev, symObjAddr: 0xCBB4, symBinAddr: 0x10000F0B8, symSize: 0xC0 }
  - { offsetInCU: 0x185F2, offset: 0x185F2, size: 0x8, addend: 0x0, symName: __ZNSt3__114__split_bufferIPxRNS_9allocatorIS1_EEE10push_frontERKS1_, symObjAddr: 0xCC74, symBinAddr: 0x10000F178, symSize: 0xA24 }
  - { offsetInCU: 0x18B2A, offset: 0x18B2A, size: 0x8, addend: 0x0, symName: __ZNSt3__117__compressed_pairIPPxNS_9allocatorIS1_EEE5firstB8ue170006Ev, symObjAddr: 0xE6FC, symBinAddr: 0x100010C00, symSize: 0xCC }
  - { offsetInCU: 0x18B6F, offset: 0x18B6F, size: 0x8, addend: 0x0, symName: __ZNSt3__117__compressed_pairIPPxRNS_9allocatorIS1_EEE5firstB8ue170006Ev, symObjAddr: 0xE7C8, symBinAddr: 0x100010CCC, symSize: 0xCC }
  - { offsetInCU: 0x18BB4, offset: 0x18BB4, size: 0x8, addend: 0x0, symName: __ZNSt3__110unique_ptrIPxNS_22__allocator_destructorINS_9allocatorIxEEEEE5resetB8ue170006ES1_, symObjAddr: 0xE894, symBinAddr: 0x100010D98, symSize: 0x104 }
  - { offsetInCU: 0x18C4B, offset: 0x18C4B, size: 0x8, addend: 0x0, symName: __ZNSt3__114__split_bufferIPxRNS_9allocatorIS1_EEED2Ev, symObjAddr: 0xEAE0, symBinAddr: 0x100010FE4, symSize: 0xF4 }
  - { offsetInCU: 0x18D5C, offset: 0x18D5C, size: 0x8, addend: 0x0, symName: __ZNSt3__114__split_bufferIPxNS_9allocatorIS1_EEE10push_frontEOS1_, symObjAddr: 0xB68C, symBinAddr: 0x10000DB90, symSize: 0xA24 }
  - { offsetInCU: 0x19294, offset: 0x19294, size: 0x8, addend: 0x0, symName: __ZNSt3__110unique_ptrIPxNS_22__allocator_destructorINS_9allocatorIxEEEEED1B8ue170006Ev, symObjAddr: 0xD778, symBinAddr: 0x10000FC7C, symSize: 0x5C }
  - { offsetInCU: 0x192E6, offset: 0x192E6, size: 0x8, addend: 0x0, symName: __ZNSt3__114__split_bufferIPxRNS_9allocatorIS1_EEED1Ev, symObjAddr: 0xD7D4, symBinAddr: 0x10000FCD8, symSize: 0x48 }
  - { offsetInCU: 0x19470, offset: 0x19470, size: 0x8, addend: 0x0, symName: __ZNSt3__114__split_bufferIPxNS_9allocatorIS1_EEE9__end_capB8ue170006Ev, symObjAddr: 0xD698, symBinAddr: 0x10000FB9C, symSize: 0x70 }
  - { offsetInCU: 0x194A0, offset: 0x194A0, size: 0x8, addend: 0x0, symName: __ZNSt3__114__split_bufferIPxRNS_9allocatorIS1_EEE28__construct_at_end_with_sizeINS_13move_iteratorIPS1_EEEEvT_m, symObjAddr: 0xD81C, symBinAddr: 0x10000FD20, symSize: 0x39C }
  - { offsetInCU: 0x1973B, offset: 0x1973B, size: 0x8, addend: 0x0, symName: __ZNSt3__117__compressed_pairIPxNS_22__allocator_destructorINS_9allocatorIxEEEEEC2B8ue170006IRS1_S5_EEOT_OT0_, symObjAddr: 0xE460, symBinAddr: 0x100010964, symSize: 0x104 }
  - { offsetInCU: 0x197EA, offset: 0x197EA, size: 0x8, addend: 0x0, symName: __ZNSt3__114__split_bufferIPxRNS_9allocatorIS1_EEE9__end_capB8ue170006Ev, symObjAddr: 0xD708, symBinAddr: 0x10000FC0C, symSize: 0x70 }
  - { offsetInCU: 0x1981A, offset: 0x1981A, size: 0x8, addend: 0x0, symName: __ZNSt3__117__compressed_pairIPPxRNS_9allocatorIS1_EEE6secondB8ue170006Ev, symObjAddr: 0xDDDC, symBinAddr: 0x1000102E0, symSize: 0x100 }
  - { offsetInCU: 0x19857, offset: 0x19857, size: 0x8, addend: 0x0, symName: __ZNSt3__114__split_bufferIPxRNS_9allocatorIS1_EEE7__allocB8ue170006Ev, symObjAddr: 0xDBB8, symBinAddr: 0x1000100BC, symSize: 0x70 }
  - { offsetInCU: 0x19887, offset: 0x19887, size: 0x8, addend: 0x0, symName: __ZNSt3__117__compressed_pairIPxNS_22__allocator_destructorINS_9allocatorIxEEEEE5firstB8ue170006Ev, symObjAddr: 0xE630, symBinAddr: 0x100010B34, symSize: 0xCC }
  - { offsetInCU: 0x19960, offset: 0x19960, size: 0x8, addend: 0x0, symName: __ZNSt3__114__split_bufferIPxRNS_9allocatorIS1_EEE21_ConstructTransactionC2B8ue170006EPPS1_m, symObjAddr: 0xDC28, symBinAddr: 0x10001012C, symSize: 0x1B4 }
  - { offsetInCU: 0x199A9, offset: 0x199A9, size: 0x8, addend: 0x0, symName: __ZNSt3__114__split_bufferIPxRNS_9allocatorIS1_EEE21_ConstructTransactionD2B8ue170006Ev, symObjAddr: 0xDEDC, symBinAddr: 0x1000103E0, symSize: 0xE8 }
  - { offsetInCU: 0x19A2C, offset: 0x19A2C, size: 0x8, addend: 0x0, symName: __ZNSt3__117__compressed_pairIPPxRNS_9allocatorIS1_EEEC2B8ue170006IDnS5_EEOT_OT0_, symObjAddr: 0xE364, symBinAddr: 0x100010868, symSize: 0xFC }
  - { offsetInCU: 0x19BB2, offset: 0x19BB2, size: 0x8, addend: 0x0, symName: __ZNSt3__117__compressed_pairIPxNS_22__allocator_destructorINS_9allocatorIxEEEEE6secondB8ue170006Ev, symObjAddr: 0xE998, symBinAddr: 0x100010E9C, symSize: 0xB0 }
  - { offsetInCU: 0x19BF7, offset: 0x19BF7, size: 0x8, addend: 0x0, symName: __ZNSt3__122__allocator_destructorINS_9allocatorIxEEEclB8ue170006EPx, symObjAddr: 0xEA48, symBinAddr: 0x100010F4C, symSize: 0x98 }
  - { offsetInCU: 0x19CDB, offset: 0x19CDB, size: 0x8, addend: 0x0, symName: __ZNSt3__114__split_bufferIPxRNS_9allocatorIS1_EEE5clearB8ue170006Ev, symObjAddr: 0xEBD4, symBinAddr: 0x1000110D8, symSize: 0xAC }
  - { offsetInCU: 0x19D2F, offset: 0x19D2F, size: 0x8, addend: 0x0, symName: __ZNKSt3__114__split_bufferIPxRNS_9allocatorIS1_EEE8capacityB8ue170006Ev, symObjAddr: 0xEC80, symBinAddr: 0x100011184, symSize: 0x8C }
  - { offsetInCU: 0x19D8B, offset: 0x19D8B, size: 0x8, addend: 0x0, symName: __ZNSt3__114__split_bufferIPxRNS_9allocatorIS1_EEE17__destruct_at_endB8ue170006EPS1_NS_17integral_constantIbLb0EEE, symObjAddr: 0xED0C, symBinAddr: 0x100011210, symSize: 0x100 }
  - { offsetInCU: 0x19DDF, offset: 0x19DDF, size: 0x8, addend: 0x0, symName: __ZNKSt3__114__split_bufferIPxRNS_9allocatorIS1_EEE9__end_capB8ue170006Ev, symObjAddr: 0xEE0C, symBinAddr: 0x100011310, symSize: 0x70 }
  - { offsetInCU: 0x19E14, offset: 0x19E14, size: 0x8, addend: 0x0, symName: __ZNKSt3__117__compressed_pairIPPxRNS_9allocatorIS1_EEE5firstB8ue170006Ev, symObjAddr: 0xEE7C, symBinAddr: 0x100011380, symSize: 0xCC }
  - { offsetInCU: 0x19F2C, offset: 0x19F2C, size: 0x8, addend: 0x0, symName: __ZNSt3__116__deque_iteratorIxPxRxPS1_lLl512EEpLB8ue170006El, symObjAddr: 0x139F0, symBinAddr: 0x100015EF4, symSize: 0x508 }
  - { offsetInCU: 0x19F7F, offset: 0x19F7F, size: 0x8, addend: 0x0, symName: __ZNSt3__18_IterOpsINS_17_ClassicAlgPolicyEE9iter_swapB8ue170006IRNS_16__deque_iteratorIxPxRxPS5_lLl512EEES8_EEvOT_OT0_, symObjAddr: 0x11DD8, symBinAddr: 0x1000142DC, symSize: 0x134 }
  - { offsetInCU: 0x1A024, offset: 0x1A024, size: 0x8, addend: 0x0, symName: __ZNSt3__116__deque_iteratorIxPxRxPS1_lLl512EEmmB8ue170006Ev, symObjAddr: 0x10860, symBinAddr: 0x100012D64, symSize: 0x2E8 }
  - { offsetInCU: 0x1A04B, offset: 0x1A04B, size: 0x8, addend: 0x0, symName: __ZNSt3__18_IterOpsINS_17_ClassicAlgPolicyEE9iter_swapB8ue170006IRNS_16__deque_iteratorIxPxRxPS5_lLl512EEES9_EEvOT_OT0_, symObjAddr: 0x10B48, symBinAddr: 0x10001304C, symSize: 0x134 }
  - { offsetInCU: 0x1A0F0, offset: 0x1A0F0, size: 0x8, addend: 0x0, symName: __ZNSt3__18_IterOpsINS_17_ClassicAlgPolicyEE11__iter_moveB8ue170006IRNS_16__deque_iteratorIxPxRxPS5_lLl512EEEEENS_9enable_ifIXsr12is_referenceIDTdeclsr3stdE7declvalIRT_EEEEE5valueEDTclsr3stdE4movedeclsr3stdE7declvalISC_EEEEE4typeEOSB_, symObjAddr: 0x149CC, symBinAddr: 0x100016ED0, symSize: 0x70 }
  - { offsetInCU: 0x1A221, offset: 0x1A221, size: 0x8, addend: 0x0, symName: __ZNSt3__16vectorIxNS_9allocatorIxEEE22__base_destruct_at_endB8ue170006EPx, symObjAddr: 0x170F0, symBinAddr: 0x1000195F4, symSize: 0xE8 }
  - { offsetInCU: 0x1A27C, offset: 0x1A27C, size: 0x8, addend: 0x0, symName: __ZNKSt3__16vectorIxNS_9allocatorIxEEE17__annotate_deleteB8ue170006Ev, symObjAddr: 0x16D84, symBinAddr: 0x100019288, symSize: 0x270 }
  - { offsetInCU: 0x1A376, offset: 0x1A376, size: 0x8, addend: 0x0, symName: __ZNSt3__16vectorIxNS_9allocatorIxEEE7__allocB8ue170006Ev, symObjAddr: 0x16FF4, symBinAddr: 0x1000194F8, symSize: 0x70 }
  - { offsetInCU: 0x1A3A6, offset: 0x1A3A6, size: 0x8, addend: 0x0, symName: __ZNKSt3__16vectorIxNS_9allocatorIxEEE8capacityB8ue170006Ev, symObjAddr: 0x17064, symBinAddr: 0x100019568, symSize: 0x8C }
  - { offsetInCU: 0x1A443, offset: 0x1A443, size: 0x8, addend: 0x0, symName: __ZNSt3__117__compressed_pairIPxNS_9allocatorIxEEE6secondB8ue170006Ev, symObjAddr: 0x171D8, symBinAddr: 0x1000196DC, symSize: 0xD4 }
  - { offsetInCU: 0x1A487, offset: 0x1A487, size: 0x8, addend: 0x0, symName: __ZNKSt3__16vectorIxNS_9allocatorIxEEE9__end_capB8ue170006Ev, symObjAddr: 0x172AC, symBinAddr: 0x1000197B0, symSize: 0x70 }
  - { offsetInCU: 0x1A4BC, offset: 0x1A4BC, size: 0x8, addend: 0x0, symName: __ZNKSt3__117__compressed_pairIPxNS_9allocatorIxEEE5firstB8ue170006Ev, symObjAddr: 0x1731C, symBinAddr: 0x100019820, symSize: 0xCC }
  - { offsetInCU: 0x1A51D, offset: 0x1A51D, size: 0x8, addend: 0x0, symName: __ZNSt3__117__compressed_pairIPxNS_9allocatorIxEEE5firstB8ue170006Ev, symObjAddr: 0x17BA8, symBinAddr: 0x10001A0AC, symSize: 0xCC }
  - { offsetInCU: 0x1A667, offset: 0x1A667, size: 0x8, addend: 0x0, symName: __ZNSt3__16vectorIxNS_9allocatorIxEEE21_ConstructTransactionC2B8ue170006ERS3_m, symObjAddr: 0x17C74, symBinAddr: 0x10001A178, symSize: 0x194 }
  - { offsetInCU: 0x1A6BF, offset: 0x1A6BF, size: 0x8, addend: 0x0, symName: __ZNSt3__16vectorIxNS_9allocatorIxEEE21_ConstructTransactionD2B8ue170006Ev, symObjAddr: 0x180E0, symBinAddr: 0x10001A5E4, symSize: 0x214 }
  - { offsetInCU: 0x1A756, offset: 0x1A756, size: 0x8, addend: 0x0, symName: __ZNKSt3__16vectorIxNS_9allocatorIxEEE11__recommendB8ue170006Em, symObjAddr: 0x18550, symBinAddr: 0x10001AA54, symSize: 0x9C }
  - { offsetInCU: 0x1A802, offset: 0x1A802, size: 0x8, addend: 0x0, symName: __ZNSt3__114__split_bufferIxRNS_9allocatorIxEEEC2EmmS3_, symObjAddr: 0x18BFC, symBinAddr: 0x10001B100, symSize: 0x35C }
  - { offsetInCU: 0x1A909, offset: 0x1A909, size: 0x8, addend: 0x0, symName: __ZNSt3__114__split_bufferIxRNS_9allocatorIxEEED2Ev, symObjAddr: 0x199A0, symBinAddr: 0x10001BEA4, symSize: 0xF4 }
  - { offsetInCU: 0x1AA1A, offset: 0x1AA1A, size: 0x8, addend: 0x0, symName: __ZNSt3__114__split_bufferIxRNS_9allocatorIxEEED1Ev, symObjAddr: 0x18A2C, symBinAddr: 0x10001AF30, symSize: 0x48 }
  - { offsetInCU: 0x1AA4A, offset: 0x1AA4A, size: 0x8, addend: 0x0, symName: __ZNKSt3__16vectorIxNS_9allocatorIxEEE19__annotate_increaseB8ue170006Em, symObjAddr: 0x17E08, symBinAddr: 0x10001A30C, symSize: 0x2D8 }
  - { offsetInCU: 0x1AB54, offset: 0x1AB54, size: 0x8, addend: 0x0, symName: __ZNKSt3__16vectorIxNS_9allocatorIxEEE17__annotate_shrinkB8ue170006Em, symObjAddr: 0x182F4, symBinAddr: 0x10001A7F8, symSize: 0x25C }
  - { offsetInCU: 0x1AC62, offset: 0x1AC62, size: 0x8, addend: 0x0, symName: __ZNKSt3__16vectorIxNS_9allocatorIxEEE7__allocB8ue170006Ev, symObjAddr: 0x18AB8, symBinAddr: 0x10001AFBC, symSize: 0x70 }
  - { offsetInCU: 0x1AC97, offset: 0x1AC97, size: 0x8, addend: 0x0, symName: __ZNKSt3__16vectorIxNS_9allocatorIxEEE20__throw_length_errorB8ue170006Ev, symObjAddr: 0x18A74, symBinAddr: 0x10001AF78, symSize: 0x44 }
  - { offsetInCU: 0x1AD1F, offset: 0x1AD1F, size: 0x8, addend: 0x0, symName: __ZNKSt3__111__move_loopINS_17_ClassicAlgPolicyEEclB8ue170006INS_16reverse_iteratorIPxEES6_S6_EENS_4pairIT_T1_EES8_T0_S9_, symObjAddr: 0x19554, symBinAddr: 0x10001BA58, symSize: 0x38C }
  - { offsetInCU: 0x1AE8D, offset: 0x1AE8D, size: 0x8, addend: 0x0, symName: __ZNSt3__117__compressed_pairIPxRNS_9allocatorIxEEE5firstB8ue170006Ev, symObjAddr: 0x19208, symBinAddr: 0x10001B70C, symSize: 0xCC }
  - { offsetInCU: 0x1AED2, offset: 0x1AED2, size: 0x8, addend: 0x0, symName: __ZNKSt3__16vectorIxNS_9allocatorIxEEE14__annotate_newB8ue170006Em, symObjAddr: 0x192D4, symBinAddr: 0x10001B7D8, symSize: 0x280 }
  - { offsetInCU: 0x1AFC8, offset: 0x1AFC8, size: 0x8, addend: 0x0, symName: __ZNKSt3__117__compressed_pairIPxNS_9allocatorIxEEE6secondB8ue170006Ev, symObjAddr: 0x18B28, symBinAddr: 0x10001B02C, symSize: 0xD4 }
  - { offsetInCU: 0x1B06A, offset: 0x1B06A, size: 0x8, addend: 0x0, symName: __ZNSt3__117__compressed_pairIPxRNS_9allocatorIxEEEC2B8ue170006IDnS4_EEOT_OT0_, symObjAddr: 0x1900C, symBinAddr: 0x10001B510, symSize: 0xFC }
  - { offsetInCU: 0x1B0FA, offset: 0x1B0FA, size: 0x8, addend: 0x0, symName: __ZNSt3__114__split_bufferIxRNS_9allocatorIxEEE7__allocB8ue170006Ev, symObjAddr: 0x18F9C, symBinAddr: 0x10001B4A0, symSize: 0x70 }
  - { offsetInCU: 0x1B12A, offset: 0x1B12A, size: 0x8, addend: 0x0, symName: __ZNSt3__117__compressed_pairIPxRNS_9allocatorIxEEE6secondB8ue170006Ev, symObjAddr: 0x19108, symBinAddr: 0x10001B60C, symSize: 0x100 }
  - { offsetInCU: 0x1B2A2, offset: 0x1B2A2, size: 0x8, addend: 0x0, symName: __ZNKSt3__116reverse_iteratorIPxEdeB8ue170006Ev, symObjAddr: 0x198E0, symBinAddr: 0x10001BDE4, symSize: 0xC0 }
  - { offsetInCU: 0x1B2EE, offset: 0x1B2EE, size: 0x8, addend: 0x0, symName: __ZNSt3__114__split_bufferIxRNS_9allocatorIxEEE5clearB8ue170006Ev, symObjAddr: 0x19A94, symBinAddr: 0x10001BF98, symSize: 0xAC }
  - { offsetInCU: 0x1B342, offset: 0x1B342, size: 0x8, addend: 0x0, symName: __ZNKSt3__114__split_bufferIxRNS_9allocatorIxEEE8capacityB8ue170006Ev, symObjAddr: 0x19B40, symBinAddr: 0x10001C044, symSize: 0x8C }
  - { offsetInCU: 0x1B39E, offset: 0x1B39E, size: 0x8, addend: 0x0, symName: __ZNSt3__114__split_bufferIxRNS_9allocatorIxEEE17__destruct_at_endB8ue170006EPxNS_17integral_constantIbLb0EEE, symObjAddr: 0x19BCC, symBinAddr: 0x10001C0D0, symSize: 0x100 }
  - { offsetInCU: 0x1B3F2, offset: 0x1B3F2, size: 0x8, addend: 0x0, symName: __ZNKSt3__114__split_bufferIxRNS_9allocatorIxEEE9__end_capB8ue170006Ev, symObjAddr: 0x19CCC, symBinAddr: 0x10001C1D0, symSize: 0x70 }
  - { offsetInCU: 0x1B427, offset: 0x1B427, size: 0x8, addend: 0x0, symName: __ZNKSt3__117__compressed_pairIPxRNS_9allocatorIxEEE5firstB8ue170006Ev, symObjAddr: 0x19D3C, symBinAddr: 0x10001C240, symSize: 0xCC }
  - { offsetInCU: 0x1B482, offset: 0x1B482, size: 0x8, addend: 0x0, symName: __ZNSt3__114__split_bufferIPxNS_9allocatorIS1_EEE4backB8ue170006Ev, symObjAddr: 0x1A000, symBinAddr: 0x10001C504, symSize: 0xC0 }
  - { offsetInCU: 0x1B4A9, offset: 0x1B4A9, size: 0x8, addend: 0x0, symName: __ZNSt3__114__split_bufferIPxNS_9allocatorIS1_EEE8pop_backB8ue170006Ev, symObjAddr: 0x1A0C0, symBinAddr: 0x10001C5C4, symSize: 0xE8 }
  - { offsetInCU: 0x1B4FD, offset: 0x1B4FD, size: 0x8, addend: 0x0, symName: __ZNKSt3__15dequeIxNS_9allocatorIxEEE20__front_spare_blocksB8ue170006Ev, symObjAddr: 0x1A3AC, symBinAddr: 0x10001C8B0, symSize: 0x80 }
...
